	.text
	.def	@feat.00;
	.scl	3;
	.type	0;
	.endef
	.globl	@feat.00
.set @feat.00, 0
	.intel_syntax noprefix
	.file	"main.cpp"
	.def	"??H@YA?AUPoint@@AEBU0@0@Z";
	.scl	2;
	.type	32;
	.endef
	.globl	"??H@YA?AUPoint@@AEBU0@0@Z"     # -- Begin function ??H@YA?AUPoint@@AEBU0@0@Z
	.p2align	4, 0x90
"??H@YA?AUPoint@@AEBU0@0@Z":            # @"??H@YA?AUPoint@@AEBU0@0@Z"
.seh_proc "??H@YA?AUPoint@@AEBU0@0@Z"
# %bb.0:
	sub	rsp, 24
	.seh_stackalloc 24
	.seh_endprologue
	mov	rax, rcx
	mov	qword ptr [rsp + 16], rcx
	mov	qword ptr [rsp + 8], r8
	mov	qword ptr [rsp], rdx
	mov	rdx, qword ptr [rsp]
	movsd	xmm0, qword ptr [rdx]           # xmm0 = mem[0],zero
	mov	rdx, qword ptr [rsp + 8]
	addsd	xmm0, qword ptr [rdx]
	movsd	qword ptr [rcx], xmm0
	mov	rdx, qword ptr [rsp]
	movsd	xmm0, qword ptr [rdx + 8]       # xmm0 = mem[0],zero
	mov	rdx, qword ptr [rsp + 8]
	addsd	xmm0, qword ptr [rdx + 8]
	movsd	qword ptr [rcx + 8], xmm0
	mov	rdx, qword ptr [rsp]
	movsd	xmm0, qword ptr [rdx + 16]      # xmm0 = mem[0],zero
	mov	rdx, qword ptr [rsp + 8]
	addsd	xmm0, qword ptr [rdx + 16]
	movsd	qword ptr [rcx + 16], xmm0
	add	rsp, 24
	ret
	.seh_endproc
                                        # -- End function
	.def	"??G@YA?AUPoint@@AEBU0@0@Z";
	.scl	2;
	.type	32;
	.endef
	.globl	"??G@YA?AUPoint@@AEBU0@0@Z"     # -- Begin function ??G@YA?AUPoint@@AEBU0@0@Z
	.p2align	4, 0x90
"??G@YA?AUPoint@@AEBU0@0@Z":            # @"??G@YA?AUPoint@@AEBU0@0@Z"
.seh_proc "??G@YA?AUPoint@@AEBU0@0@Z"
# %bb.0:
	sub	rsp, 24
	.seh_stackalloc 24
	.seh_endprologue
	mov	rax, rcx
	mov	qword ptr [rsp + 16], rcx
	mov	qword ptr [rsp + 8], r8
	mov	qword ptr [rsp], rdx
	mov	rdx, qword ptr [rsp]
	movsd	xmm0, qword ptr [rdx]           # xmm0 = mem[0],zero
	mov	rdx, qword ptr [rsp + 8]
	subsd	xmm0, qword ptr [rdx]
	movsd	qword ptr [rcx], xmm0
	mov	rdx, qword ptr [rsp]
	movsd	xmm0, qword ptr [rdx + 8]       # xmm0 = mem[0],zero
	mov	rdx, qword ptr [rsp + 8]
	subsd	xmm0, qword ptr [rdx + 8]
	movsd	qword ptr [rcx + 8], xmm0
	mov	rdx, qword ptr [rsp]
	movsd	xmm0, qword ptr [rdx + 16]      # xmm0 = mem[0],zero
	mov	rdx, qword ptr [rsp + 8]
	subsd	xmm0, qword ptr [rdx + 16]
	movsd	qword ptr [rcx + 16], xmm0
	add	rsp, 24
	ret
	.seh_endproc
                                        # -- End function
	.def	"??D@YA?AUPoint@@AEBU0@O@Z";
	.scl	2;
	.type	32;
	.endef
	.globl	"??D@YA?AUPoint@@AEBU0@O@Z"     # -- Begin function ??D@YA?AUPoint@@AEBU0@O@Z
	.p2align	4, 0x90
"??D@YA?AUPoint@@AEBU0@O@Z":            # @"??D@YA?AUPoint@@AEBU0@O@Z"
.seh_proc "??D@YA?AUPoint@@AEBU0@O@Z"
# %bb.0:
	sub	rsp, 24
	.seh_stackalloc 24
	.seh_endprologue
	mov	rax, rcx
	mov	qword ptr [rsp + 16], rcx
	movsd	qword ptr [rsp + 8], xmm2
	mov	qword ptr [rsp], rdx
	mov	rdx, qword ptr [rsp]
	movsd	xmm0, qword ptr [rdx]           # xmm0 = mem[0],zero
	mulsd	xmm0, qword ptr [rsp + 8]
	movsd	qword ptr [rcx], xmm0
	mov	rdx, qword ptr [rsp]
	movsd	xmm0, qword ptr [rdx + 8]       # xmm0 = mem[0],zero
	mulsd	xmm0, qword ptr [rsp + 8]
	movsd	qword ptr [rcx + 8], xmm0
	mov	rdx, qword ptr [rsp]
	movsd	xmm0, qword ptr [rdx + 16]      # xmm0 = mem[0],zero
	mulsd	xmm0, qword ptr [rsp + 8]
	movsd	qword ptr [rcx + 16], xmm0
	add	rsp, 24
	ret
	.seh_endproc
                                        # -- End function
	.def	"??D@YA?AUPoint@@OAEBU0@@Z";
	.scl	2;
	.type	32;
	.endef
	.globl	"??D@YA?AUPoint@@OAEBU0@@Z"     # -- Begin function ??D@YA?AUPoint@@OAEBU0@@Z
	.p2align	4, 0x90
"??D@YA?AUPoint@@OAEBU0@@Z":            # @"??D@YA?AUPoint@@OAEBU0@@Z"
.seh_proc "??D@YA?AUPoint@@OAEBU0@@Z"
# %bb.0:
	sub	rsp, 24
	.seh_stackalloc 24
	.seh_endprologue
	mov	rax, rcx
	mov	qword ptr [rsp + 16], rcx
	mov	qword ptr [rsp + 8], r8
	movsd	qword ptr [rsp], xmm1
	mov	rdx, qword ptr [rsp + 8]
	movsd	xmm0, qword ptr [rdx]           # xmm0 = mem[0],zero
	mulsd	xmm0, qword ptr [rsp]
	movsd	qword ptr [rcx], xmm0
	mov	rdx, qword ptr [rsp + 8]
	movsd	xmm0, qword ptr [rdx + 8]       # xmm0 = mem[0],zero
	mulsd	xmm0, qword ptr [rsp]
	movsd	qword ptr [rcx + 8], xmm0
	mov	rdx, qword ptr [rsp + 8]
	movsd	xmm0, qword ptr [rdx + 16]      # xmm0 = mem[0],zero
	mulsd	xmm0, qword ptr [rsp]
	movsd	qword ptr [rcx + 16], xmm0
	add	rsp, 24
	ret
	.seh_endproc
                                        # -- End function
	.def	"??K@YA?AUPoint@@AEBU0@O@Z";
	.scl	2;
	.type	32;
	.endef
	.globl	"??K@YA?AUPoint@@AEBU0@O@Z"     # -- Begin function ??K@YA?AUPoint@@AEBU0@O@Z
	.p2align	4, 0x90
"??K@YA?AUPoint@@AEBU0@O@Z":            # @"??K@YA?AUPoint@@AEBU0@O@Z"
.seh_proc "??K@YA?AUPoint@@AEBU0@O@Z"
# %bb.0:
	sub	rsp, 24
	.seh_stackalloc 24
	.seh_endprologue
	mov	rax, rcx
	mov	qword ptr [rsp + 16], rcx
	movsd	qword ptr [rsp + 8], xmm2
	mov	qword ptr [rsp], rdx
	mov	rdx, qword ptr [rsp]
	movsd	xmm0, qword ptr [rdx]           # xmm0 = mem[0],zero
	divsd	xmm0, qword ptr [rsp + 8]
	movsd	qword ptr [rcx], xmm0
	mov	rdx, qword ptr [rsp]
	movsd	xmm0, qword ptr [rdx + 8]       # xmm0 = mem[0],zero
	divsd	xmm0, qword ptr [rsp + 8]
	movsd	qword ptr [rcx + 8], xmm0
	mov	rdx, qword ptr [rsp]
	movsd	xmm0, qword ptr [rdx + 16]      # xmm0 = mem[0],zero
	divsd	xmm0, qword ptr [rsp + 8]
	movsd	qword ptr [rcx + 16], xmm0
	add	rsp, 24
	ret
	.seh_endproc
                                        # -- End function
	.def	"?lat_lon_to_xyz@@YA?AUPoint@@OO@Z";
	.scl	2;
	.type	32;
	.endef
	.globl	__real@40b8e20000000000         # -- Begin function ?lat_lon_to_xyz@@YA?AUPoint@@OO@Z
	.section	.rdata,"dr",discard,__real@40b8e20000000000
	.p2align	3, 0x0
__real@40b8e20000000000:
	.quad	0x40b8e20000000000              # double 6370
	.globl	__real@4066800000000000
	.section	.rdata,"dr",discard,__real@4066800000000000
	.p2align	3, 0x0
__real@4066800000000000:
	.quad	0x4066800000000000              # double 180
	.globl	__real@400921fb54442d18
	.section	.rdata,"dr",discard,__real@400921fb54442d18
	.p2align	3, 0x0
__real@400921fb54442d18:
	.quad	0x400921fb54442d18              # double 3.1415926535897931
	.text
	.globl	"?lat_lon_to_xyz@@YA?AUPoint@@OO@Z"
	.p2align	4, 0x90
"?lat_lon_to_xyz@@YA?AUPoint@@OO@Z":    # @"?lat_lon_to_xyz@@YA?AUPoint@@OO@Z"
.seh_proc "?lat_lon_to_xyz@@YA?AUPoint@@OO@Z"
# %bb.0:
	sub	rsp, 136
	.seh_stackalloc 136
	.seh_endprologue
	mov	qword ptr [rsp + 56], rcx       # 8-byte Spill
	mov	rax, rcx
	mov	qword ptr [rsp + 64], rax       # 8-byte Spill
	mov	qword ptr [rsp + 128], rcx
	movsd	qword ptr [rsp + 120], xmm2
	movsd	qword ptr [rsp + 112], xmm1
	movsd	xmm0, qword ptr [rip + __real@400921fb54442d18] # xmm0 = [3.1415926535897931E+0,0.0E+0]
	mulsd	xmm0, qword ptr [rsp + 112]
	movsd	xmm1, qword ptr [rip + __real@4066800000000000] # xmm1 = [1.8E+2,0.0E+0]
	divsd	xmm0, xmm1
	movsd	qword ptr [rsp + 104], xmm0
	movsd	xmm0, qword ptr [rip + __real@400921fb54442d18] # xmm0 = [3.1415926535897931E+0,0.0E+0]
	mulsd	xmm0, qword ptr [rsp + 120]
	movsd	xmm1, qword ptr [rip + __real@4066800000000000] # xmm1 = [1.8E+2,0.0E+0]
	divsd	xmm0, xmm1
	movsd	qword ptr [rsp + 96], xmm0
	movsd	xmm0, qword ptr [rsp + 104]     # xmm0 = mem[0],zero
	call	"?cos@@YAOO@Z"
	movaps	xmm1, xmm0
	movsd	xmm0, qword ptr [rip + __real@40b8e20000000000] # xmm0 = [6.37E+3,0.0E+0]
	mulsd	xmm0, xmm1
	movsd	qword ptr [rsp + 40], xmm0      # 8-byte Spill
	movsd	xmm0, qword ptr [rsp + 96]      # xmm0 = mem[0],zero
	call	"?cos@@YAOO@Z"
	movaps	xmm1, xmm0
	movsd	xmm0, qword ptr [rsp + 40]      # 8-byte Reload
                                        # xmm0 = mem[0],zero
	mulsd	xmm0, xmm1
	movsd	qword ptr [rsp + 88], xmm0
	movsd	xmm0, qword ptr [rsp + 104]     # xmm0 = mem[0],zero
	call	"?cos@@YAOO@Z"
	movaps	xmm1, xmm0
	movsd	xmm0, qword ptr [rip + __real@40b8e20000000000] # xmm0 = [6.37E+3,0.0E+0]
	mulsd	xmm0, xmm1
	movsd	qword ptr [rsp + 48], xmm0      # 8-byte Spill
	movsd	xmm0, qword ptr [rsp + 96]      # xmm0 = mem[0],zero
	call	"?sin@@YAOO@Z"
	movaps	xmm1, xmm0
	movsd	xmm0, qword ptr [rsp + 48]      # 8-byte Reload
                                        # xmm0 = mem[0],zero
	mulsd	xmm0, xmm1
	movsd	qword ptr [rsp + 80], xmm0
	movsd	xmm0, qword ptr [rsp + 104]     # xmm0 = mem[0],zero
	call	"?sin@@YAOO@Z"
	mov	rcx, qword ptr [rsp + 56]       # 8-byte Reload
	mov	rax, qword ptr [rsp + 64]       # 8-byte Reload
	movaps	xmm1, xmm0
	movsd	xmm0, qword ptr [rip + __real@40b8e20000000000] # xmm0 = [6.37E+3,0.0E+0]
	mulsd	xmm0, xmm1
	movsd	qword ptr [rsp + 72], xmm0
	movsd	xmm0, qword ptr [rsp + 88]      # xmm0 = mem[0],zero
	movsd	qword ptr [rcx], xmm0
	movsd	xmm0, qword ptr [rsp + 80]      # xmm0 = mem[0],zero
	movsd	qword ptr [rcx + 8], xmm0
	movsd	xmm0, qword ptr [rsp + 72]      # xmm0 = mem[0],zero
	movsd	qword ptr [rcx + 16], xmm0
	add	rsp, 136
	ret
	.seh_endproc
                                        # -- End function
	.def	"?cos@@YAOO@Z";
	.scl	2;
	.type	32;
	.endef
	.section	.text,"xr",discard,"?cos@@YAOO@Z"
	.globl	"?cos@@YAOO@Z"                  # -- Begin function ?cos@@YAOO@Z
	.p2align	4, 0x90
"?cos@@YAOO@Z":                         # @"?cos@@YAOO@Z"
.seh_proc "?cos@@YAOO@Z"
# %bb.0:
	sub	rsp, 40
	.seh_stackalloc 40
	.seh_endprologue
	movsd	qword ptr [rsp + 32], xmm0
	movsd	xmm0, qword ptr [rsp + 32]      # xmm0 = mem[0],zero
	call	cosl
	nop
	add	rsp, 40
	ret
	.seh_endproc
                                        # -- End function
	.def	"?sin@@YAOO@Z";
	.scl	2;
	.type	32;
	.endef
	.section	.text,"xr",discard,"?sin@@YAOO@Z"
	.globl	"?sin@@YAOO@Z"                  # -- Begin function ?sin@@YAOO@Z
	.p2align	4, 0x90
"?sin@@YAOO@Z":                         # @"?sin@@YAOO@Z"
.seh_proc "?sin@@YAOO@Z"
# %bb.0:
	sub	rsp, 40
	.seh_stackalloc 40
	.seh_endprologue
	movsd	qword ptr [rsp + 32], xmm0
	movsd	xmm0, qword ptr [rsp + 32]      # xmm0 = mem[0],zero
	call	sinl
	nop
	add	rsp, 40
	ret
	.seh_endproc
                                        # -- End function
	.def	"?dot@@YAOAEBUPoint@@0@Z";
	.scl	2;
	.type	32;
	.endef
	.text
	.globl	"?dot@@YAOAEBUPoint@@0@Z"       # -- Begin function ?dot@@YAOAEBUPoint@@0@Z
	.p2align	4, 0x90
"?dot@@YAOAEBUPoint@@0@Z":              # @"?dot@@YAOAEBUPoint@@0@Z"
.seh_proc "?dot@@YAOAEBUPoint@@0@Z"
# %bb.0:
	sub	rsp, 16
	.seh_stackalloc 16
	.seh_endprologue
	mov	qword ptr [rsp + 8], rdx
	mov	qword ptr [rsp], rcx
	mov	rax, qword ptr [rsp]
	movsd	xmm1, qword ptr [rax]           # xmm1 = mem[0],zero
	mov	rax, qword ptr [rsp + 8]
	movsd	xmm2, qword ptr [rax]           # xmm2 = mem[0],zero
	mov	rax, qword ptr [rsp]
	movsd	xmm0, qword ptr [rax + 8]       # xmm0 = mem[0],zero
	mov	rax, qword ptr [rsp + 8]
	mulsd	xmm0, qword ptr [rax + 8]
	mulsd	xmm1, xmm2
	addsd	xmm1, xmm0
	mov	rax, qword ptr [rsp]
	movsd	xmm0, qword ptr [rax + 16]      # xmm0 = mem[0],zero
	mov	rax, qword ptr [rsp + 8]
	movsd	xmm2, qword ptr [rax + 16]      # xmm2 = mem[0],zero
	mulsd	xmm0, xmm2
	addsd	xmm0, xmm1
	add	rsp, 16
	ret
	.seh_endproc
                                        # -- End function
	.def	"?cross@@YA?AUPoint@@AEBU1@0@Z";
	.scl	2;
	.type	32;
	.endef
	.globl	"?cross@@YA?AUPoint@@AEBU1@0@Z" # -- Begin function ?cross@@YA?AUPoint@@AEBU1@0@Z
	.p2align	4, 0x90
"?cross@@YA?AUPoint@@AEBU1@0@Z":        # @"?cross@@YA?AUPoint@@AEBU1@0@Z"
.seh_proc "?cross@@YA?AUPoint@@AEBU1@0@Z"
# %bb.0:
	sub	rsp, 24
	.seh_stackalloc 24
	.seh_endprologue
	mov	rax, rcx
	mov	qword ptr [rsp + 16], rcx
	mov	qword ptr [rsp + 8], r8
	mov	qword ptr [rsp], rdx
	mov	rdx, qword ptr [rsp]
	movsd	xmm0, qword ptr [rdx + 8]       # xmm0 = mem[0],zero
	mov	rdx, qword ptr [rsp + 8]
	movsd	xmm2, qword ptr [rdx + 16]      # xmm2 = mem[0],zero
	mov	rdx, qword ptr [rsp]
	movsd	xmm1, qword ptr [rdx + 16]      # xmm1 = mem[0],zero
	mov	rdx, qword ptr [rsp + 8]
	mulsd	xmm1, qword ptr [rdx + 8]
	movq	rdx, xmm1
	movabs	r8, -9223372036854775808
	xor	rdx, r8
	movq	xmm1, rdx
	mulsd	xmm0, xmm2
	addsd	xmm0, xmm1
	movsd	qword ptr [rcx], xmm0
	mov	rdx, qword ptr [rsp]
	movsd	xmm0, qword ptr [rdx + 16]      # xmm0 = mem[0],zero
	mov	rdx, qword ptr [rsp + 8]
	movsd	xmm2, qword ptr [rdx]           # xmm2 = mem[0],zero
	mov	rdx, qword ptr [rsp]
	movsd	xmm1, qword ptr [rdx]           # xmm1 = mem[0],zero
	mov	rdx, qword ptr [rsp + 8]
	mulsd	xmm1, qword ptr [rdx + 16]
	movq	rdx, xmm1
	movabs	r8, -9223372036854775808
	xor	rdx, r8
	movq	xmm1, rdx
	mulsd	xmm0, xmm2
	addsd	xmm0, xmm1
	movsd	qword ptr [rcx + 8], xmm0
	mov	rdx, qword ptr [rsp]
	movsd	xmm0, qword ptr [rdx]           # xmm0 = mem[0],zero
	mov	rdx, qword ptr [rsp + 8]
	movsd	xmm2, qword ptr [rdx + 8]       # xmm2 = mem[0],zero
	mov	rdx, qword ptr [rsp]
	movsd	xmm1, qword ptr [rdx + 8]       # xmm1 = mem[0],zero
	mov	rdx, qword ptr [rsp + 8]
	mulsd	xmm1, qword ptr [rdx]
	movq	rdx, xmm1
	movabs	r8, -9223372036854775808
	xor	rdx, r8
	movq	xmm1, rdx
	mulsd	xmm0, xmm2
	addsd	xmm0, xmm1
	movsd	qword ptr [rcx + 16], xmm0
	add	rsp, 24
	ret
	.seh_endproc
                                        # -- End function
	.def	"?magnitude@@YAOAEBUPoint@@@Z";
	.scl	2;
	.type	32;
	.endef
	.globl	"?magnitude@@YAOAEBUPoint@@@Z"  # -- Begin function ?magnitude@@YAOAEBUPoint@@@Z
	.p2align	4, 0x90
"?magnitude@@YAOAEBUPoint@@@Z":         # @"?magnitude@@YAOAEBUPoint@@@Z"
.seh_proc "?magnitude@@YAOAEBUPoint@@@Z"
# %bb.0:
	sub	rsp, 40
	.seh_stackalloc 40
	.seh_endprologue
	mov	qword ptr [rsp + 32], rcx
	mov	rdx, qword ptr [rsp + 32]
	mov	rcx, qword ptr [rsp + 32]
	call	"?dot@@YAOAEBUPoint@@0@Z"
	call	"?sqrt@@YAOO@Z"
	nop
	add	rsp, 40
	ret
	.seh_endproc
                                        # -- End function
	.def	"?sqrt@@YAOO@Z";
	.scl	2;
	.type	32;
	.endef
	.section	.text,"xr",discard,"?sqrt@@YAOO@Z"
	.globl	"?sqrt@@YAOO@Z"                 # -- Begin function ?sqrt@@YAOO@Z
	.p2align	4, 0x90
"?sqrt@@YAOO@Z":                        # @"?sqrt@@YAOO@Z"
.seh_proc "?sqrt@@YAOO@Z"
# %bb.0:
	sub	rsp, 40
	.seh_stackalloc 40
	.seh_endprologue
	movsd	qword ptr [rsp + 32], xmm0
	movsd	xmm0, qword ptr [rsp + 32]      # xmm0 = mem[0],zero
	call	sqrtl
	nop
	add	rsp, 40
	ret
	.seh_endproc
                                        # -- End function
	.def	"?normalize@@YA?AUPoint@@AEBU1@@Z";
	.scl	2;
	.type	32;
	.endef
	.globl	__real@3e112e0be826d695         # -- Begin function ?normalize@@YA?AUPoint@@AEBU1@@Z
	.section	.rdata,"dr",discard,__real@3e112e0be826d695
	.p2align	3, 0x0
__real@3e112e0be826d695:
	.quad	0x3e112e0be826d695              # double 1.0000000000000001E-9
	.text
	.globl	"?normalize@@YA?AUPoint@@AEBU1@@Z"
	.p2align	4, 0x90
"?normalize@@YA?AUPoint@@AEBU1@@Z":     # @"?normalize@@YA?AUPoint@@AEBU1@@Z"
.seh_proc "?normalize@@YA?AUPoint@@AEBU1@@Z"
# %bb.0:
	sub	rsp, 72
	.seh_stackalloc 72
	.seh_endprologue
	mov	qword ptr [rsp + 32], rcx       # 8-byte Spill
	mov	rax, rcx
	mov	qword ptr [rsp + 40], rax       # 8-byte Spill
	mov	qword ptr [rsp + 64], rcx
	mov	qword ptr [rsp + 56], rdx
	mov	rcx, qword ptr [rsp + 56]
	call	"?magnitude@@YAOAEBUPoint@@@Z"
	movsd	qword ptr [rsp + 48], xmm0
	movsd	xmm0, qword ptr [rip + __real@3e112e0be826d695] # xmm0 = [1.0000000000000001E-9,0.0E+0]
	ucomisd	xmm0, qword ptr [rsp + 48]
	jbe	.LBB12_2
# %bb.1:
	mov	rcx, qword ptr [rsp + 32]       # 8-byte Reload
	xor	edx, edx
	mov	r8d, 24
	call	memset
	jmp	.LBB12_3
.LBB12_2:
	mov	rcx, qword ptr [rsp + 32]       # 8-byte Reload
	movsd	xmm2, qword ptr [rsp + 48]      # xmm2 = mem[0],zero
	mov	rdx, qword ptr [rsp + 56]
	call	"??K@YA?AUPoint@@AEBU0@O@Z"
.LBB12_3:
	mov	rax, qword ptr [rsp + 40]       # 8-byte Reload
	add	rsp, 72
	ret
	.seh_endproc
                                        # -- End function
	.def	"?dist_xyz@@YAOAEBUPoint@@0@Z";
	.scl	2;
	.type	32;
	.endef
	.globl	__real@bff0000000000000         # -- Begin function ?dist_xyz@@YAOAEBUPoint@@0@Z
	.section	.rdata,"dr",discard,__real@bff0000000000000
	.p2align	3, 0x0
__real@bff0000000000000:
	.quad	0xbff0000000000000              # double -1
	.globl	__real@3ff0000000000000
	.section	.rdata,"dr",discard,__real@3ff0000000000000
	.p2align	3, 0x0
__real@3ff0000000000000:
	.quad	0x3ff0000000000000              # double 1
	.text
	.globl	"?dist_xyz@@YAOAEBUPoint@@0@Z"
	.p2align	4, 0x90
"?dist_xyz@@YAOAEBUPoint@@0@Z":         # @"?dist_xyz@@YAOAEBUPoint@@0@Z"
.seh_proc "?dist_xyz@@YAOAEBUPoint@@0@Z"
# %bb.0:
	sub	rsp, 136
	.seh_stackalloc 136
	.seh_endprologue
	mov	qword ptr [rsp + 128], rdx
	mov	qword ptr [rsp + 120], rcx
	mov	rdx, qword ptr [rsp + 120]
	lea	rcx, [rsp + 96]
	call	"?normalize@@YA?AUPoint@@AEBU1@@Z"
	mov	rdx, qword ptr [rsp + 128]
	lea	rcx, [rsp + 72]
	call	"?normalize@@YA?AUPoint@@AEBU1@@Z"
	lea	rcx, [rsp + 96]
	lea	rdx, [rsp + 72]
	call	"?dot@@YAOAEBUPoint@@0@Z"
	movsd	qword ptr [rsp + 64], xmm0
	movsd	xmm0, qword ptr [rip + __real@3ff0000000000000] # xmm0 = [1.0E+0,0.0E+0]
	movsd	qword ptr [rsp + 56], xmm0
	lea	rcx, [rsp + 56]
	lea	rdx, [rsp + 64]
	call	"??$min@O@std@@YAAEBOAEBO0@Z"
	mov	rdx, rax
	movsd	xmm0, qword ptr [rip + __real@bff0000000000000] # xmm0 = [-1.0E+0,0.0E+0]
	movsd	qword ptr [rsp + 48], xmm0
	lea	rcx, [rsp + 48]
	call	"??$max@O@std@@YAAEBOAEBO0@Z"
	movsd	xmm0, qword ptr [rax]           # xmm0 = mem[0],zero
	movsd	qword ptr [rsp + 64], xmm0
	movsd	xmm0, qword ptr [rsp + 64]      # xmm0 = mem[0],zero
	call	"?acos@@YAOO@Z"
	movsd	qword ptr [rsp + 40], xmm0
	movsd	xmm0, qword ptr [rip + __real@40b8e20000000000] # xmm0 = [6.37E+3,0.0E+0]
	mulsd	xmm0, qword ptr [rsp + 40]
	add	rsp, 136
	ret
	.seh_endproc
                                        # -- End function
	.def	"??$max@O@std@@YAAEBOAEBO0@Z";
	.scl	2;
	.type	32;
	.endef
	.section	.text,"xr",discard,"??$max@O@std@@YAAEBOAEBO0@Z"
	.globl	"??$max@O@std@@YAAEBOAEBO0@Z"   # -- Begin function ??$max@O@std@@YAAEBOAEBO0@Z
	.p2align	4, 0x90
"??$max@O@std@@YAAEBOAEBO0@Z":          # @"??$max@O@std@@YAAEBOAEBO0@Z"
.seh_proc "??$max@O@std@@YAAEBOAEBO0@Z"
# %bb.0:
	sub	rsp, 24
	.seh_stackalloc 24
	.seh_endprologue
	mov	qword ptr [rsp + 16], rdx
	mov	qword ptr [rsp + 8], rcx
	mov	rax, qword ptr [rsp + 8]
	movsd	xmm1, qword ptr [rax]           # xmm1 = mem[0],zero
	mov	rax, qword ptr [rsp + 16]
	movsd	xmm0, qword ptr [rax]           # xmm0 = mem[0],zero
	ucomisd	xmm0, xmm1
	jbe	.LBB14_2
# %bb.1:
	mov	rax, qword ptr [rsp + 16]
	mov	qword ptr [rsp], rax            # 8-byte Spill
	jmp	.LBB14_3
.LBB14_2:
	mov	rax, qword ptr [rsp + 8]
	mov	qword ptr [rsp], rax            # 8-byte Spill
.LBB14_3:
	mov	rax, qword ptr [rsp]            # 8-byte Reload
	add	rsp, 24
	ret
	.seh_endproc
                                        # -- End function
	.def	"??$min@O@std@@YAAEBOAEBO0@Z";
	.scl	2;
	.type	32;
	.endef
	.section	.text,"xr",discard,"??$min@O@std@@YAAEBOAEBO0@Z"
	.globl	"??$min@O@std@@YAAEBOAEBO0@Z"   # -- Begin function ??$min@O@std@@YAAEBOAEBO0@Z
	.p2align	4, 0x90
"??$min@O@std@@YAAEBOAEBO0@Z":          # @"??$min@O@std@@YAAEBOAEBO0@Z"
.seh_proc "??$min@O@std@@YAAEBOAEBO0@Z"
# %bb.0:
	sub	rsp, 24
	.seh_stackalloc 24
	.seh_endprologue
	mov	qword ptr [rsp + 16], rdx
	mov	qword ptr [rsp + 8], rcx
	mov	rax, qword ptr [rsp + 16]
	movsd	xmm1, qword ptr [rax]           # xmm1 = mem[0],zero
	mov	rax, qword ptr [rsp + 8]
	movsd	xmm0, qword ptr [rax]           # xmm0 = mem[0],zero
	ucomisd	xmm0, xmm1
	jbe	.LBB15_2
# %bb.1:
	mov	rax, qword ptr [rsp + 16]
	mov	qword ptr [rsp], rax            # 8-byte Spill
	jmp	.LBB15_3
.LBB15_2:
	mov	rax, qword ptr [rsp + 8]
	mov	qword ptr [rsp], rax            # 8-byte Spill
.LBB15_3:
	mov	rax, qword ptr [rsp]            # 8-byte Reload
	add	rsp, 24
	ret
	.seh_endproc
                                        # -- End function
	.def	"?acos@@YAOO@Z";
	.scl	2;
	.type	32;
	.endef
	.section	.text,"xr",discard,"?acos@@YAOO@Z"
	.globl	"?acos@@YAOO@Z"                 # -- Begin function ?acos@@YAOO@Z
	.p2align	4, 0x90
"?acos@@YAOO@Z":                        # @"?acos@@YAOO@Z"
.seh_proc "?acos@@YAOO@Z"
# %bb.0:
	sub	rsp, 40
	.seh_stackalloc 40
	.seh_endprologue
	movsd	qword ptr [rsp + 32], xmm0
	movsd	xmm0, qword ptr [rsp + 32]      # xmm0 = mem[0],zero
	call	acosl
	nop
	add	rsp, 40
	ret
	.seh_endproc
                                        # -- End function
	.def	"?point_at_angle_on_great_circle@@YA?AUPoint@@AEBU1@0O@Z";
	.scl	2;
	.type	32;
	.endef
	.text
	.globl	"?point_at_angle_on_great_circle@@YA?AUPoint@@AEBU1@0O@Z" # -- Begin function ?point_at_angle_on_great_circle@@YA?AUPoint@@AEBU1@0O@Z
	.p2align	4, 0x90
"?point_at_angle_on_great_circle@@YA?AUPoint@@AEBU1@0O@Z": # @"?point_at_angle_on_great_circle@@YA?AUPoint@@AEBU1@0O@Z"
.seh_proc "?point_at_angle_on_great_circle@@YA?AUPoint@@AEBU1@0O@Z"
# %bb.0:
	sub	rsp, 280
	.seh_stackalloc 280
	.seh_endprologue
	mov	qword ptr [rsp + 32], rcx       # 8-byte Spill
	mov	rax, rcx
	mov	qword ptr [rsp + 40], rax       # 8-byte Spill
	mov	qword ptr [rsp + 272], rcx
	movsd	qword ptr [rsp + 264], xmm3
	mov	qword ptr [rsp + 256], r8
	mov	qword ptr [rsp + 248], rdx
	mov	rdx, qword ptr [rsp + 248]
	lea	rcx, [rsp + 224]
	call	"?normalize@@YA?AUPoint@@AEBU1@@Z"
	mov	rdx, qword ptr [rsp + 256]
	lea	rcx, [rsp + 200]
	call	"?normalize@@YA?AUPoint@@AEBU1@@Z"
	lea	rcx, [rsp + 224]
	lea	rdx, [rsp + 200]
	call	"?dot@@YAOAEBUPoint@@0@Z"
	movsd	qword ptr [rsp + 184], xmm0
	movsd	xmm0, qword ptr [rip + __real@3ff0000000000000] # xmm0 = [1.0E+0,0.0E+0]
	movsd	qword ptr [rsp + 176], xmm0
	lea	rcx, [rsp + 176]
	lea	rdx, [rsp + 184]
	call	"??$min@O@std@@YAAEBOAEBO0@Z"
	mov	rdx, rax
	movsd	xmm0, qword ptr [rip + __real@bff0000000000000] # xmm0 = [-1.0E+0,0.0E+0]
	movsd	qword ptr [rsp + 168], xmm0
	lea	rcx, [rsp + 168]
	call	"??$max@O@std@@YAAEBOAEBO0@Z"
	movsd	xmm0, qword ptr [rax]           # xmm0 = mem[0],zero
	call	"?acos@@YAOO@Z"
	movsd	qword ptr [rsp + 192], xmm0
	movsd	xmm0, qword ptr [rip + __real@3e112e0be826d695] # xmm0 = [1.0000000000000001E-9,0.0E+0]
	ucomisd	xmm0, qword ptr [rsp + 192]
	jbe	.LBB17_2
# %bb.1:
	mov	rax, qword ptr [rsp + 32]       # 8-byte Reload
	mov	rcx, qword ptr [rsp + 248]
	mov	rdx, qword ptr [rcx]
	mov	qword ptr [rax], rdx
	mov	rdx, qword ptr [rcx + 8]
	mov	qword ptr [rax + 8], rdx
	mov	rcx, qword ptr [rcx + 16]
	mov	qword ptr [rax + 16], rcx
	jmp	.LBB17_3
.LBB17_2:
	lea	rcx, [rsp + 224]
	lea	rdx, [rsp + 200]
	call	"?dot@@YAOAEBUPoint@@0@Z"
	movaps	xmm2, xmm0
	lea	rcx, [rsp + 96]
	lea	rdx, [rsp + 224]
	call	"??D@YA?AUPoint@@AEBU0@O@Z"
	lea	rcx, [rsp + 120]
	lea	rdx, [rsp + 200]
	lea	r8, [rsp + 96]
	call	"??G@YA?AUPoint@@AEBU0@0@Z"
	lea	rcx, [rsp + 144]
	lea	rdx, [rsp + 120]
	call	"?normalize@@YA?AUPoint@@AEBU1@@Z"
	movsd	xmm0, qword ptr [rsp + 264]     # xmm0 = mem[0],zero
	call	"?sin@@YAOO@Z"
	movaps	xmm2, xmm0
	lea	rcx, [rsp + 72]
	lea	rdx, [rsp + 144]
	call	"??D@YA?AUPoint@@AEBU0@O@Z"
	movsd	xmm0, qword ptr [rsp + 264]     # xmm0 = mem[0],zero
	call	"?cos@@YAOO@Z"
	movaps	xmm2, xmm0
	lea	rcx, [rsp + 48]
	lea	rdx, [rsp + 224]
	call	"??D@YA?AUPoint@@AEBU0@O@Z"
	mov	rcx, qword ptr [rsp + 32]       # 8-byte Reload
	lea	rdx, [rsp + 48]
	lea	r8, [rsp + 72]
	call	"??H@YA?AUPoint@@AEBU0@0@Z"
.LBB17_3:
	mov	rax, qword ptr [rsp + 40]       # 8-byte Reload
	add	rsp, 280
	ret
	.seh_endproc
                                        # -- End function
	.def	"?is_on_arc@@YA_NAEBUPoint@@00@Z";
	.scl	2;
	.type	32;
	.endef
	.globl	"?is_on_arc@@YA_NAEBUPoint@@00@Z" # -- Begin function ?is_on_arc@@YA_NAEBUPoint@@00@Z
	.p2align	4, 0x90
"?is_on_arc@@YA_NAEBUPoint@@00@Z":      # @"?is_on_arc@@YA_NAEBUPoint@@00@Z"
.seh_proc "?is_on_arc@@YA_NAEBUPoint@@00@Z"
# %bb.0:
	sub	rsp, 88
	.seh_stackalloc 88
	.seh_endprologue
	mov	qword ptr [rsp + 80], r8
	mov	qword ptr [rsp + 72], rdx
	mov	qword ptr [rsp + 64], rcx
	mov	rdx, qword ptr [rsp + 72]
	mov	rcx, qword ptr [rsp + 64]
	call	"?dist_xyz@@YAOAEBUPoint@@0@Z"
	movsd	qword ptr [rsp + 56], xmm0
	mov	rdx, qword ptr [rsp + 80]
	mov	rcx, qword ptr [rsp + 64]
	call	"?dist_xyz@@YAOAEBUPoint@@0@Z"
	movsd	qword ptr [rsp + 48], xmm0
	mov	rdx, qword ptr [rsp + 72]
	mov	rcx, qword ptr [rsp + 80]
	call	"?dist_xyz@@YAOAEBUPoint@@0@Z"
	movsd	qword ptr [rsp + 40], xmm0
	movsd	xmm0, qword ptr [rsp + 48]      # xmm0 = mem[0],zero
	addsd	xmm0, qword ptr [rsp + 40]
	subsd	xmm0, qword ptr [rsp + 56]
	call	"?abs@@YAOO@Z"
	movaps	xmm1, xmm0
	movsd	xmm0, qword ptr [rip + __real@3e112e0be826d695] # xmm0 = [1.0000000000000001E-9,0.0E+0]
	ucomisd	xmm0, xmm1
	seta	al
	and	al, 1
	add	rsp, 88
	ret
	.seh_endproc
                                        # -- End function
	.def	"?abs@@YAOO@Z";
	.scl	2;
	.type	32;
	.endef
	.globl	__xmm@7fffffffffffffff7fffffffffffffff # -- Begin function ?abs@@YAOO@Z
	.section	.rdata,"dr",discard,__xmm@7fffffffffffffff7fffffffffffffff
	.p2align	4, 0x0
__xmm@7fffffffffffffff7fffffffffffffff:
	.quad	0x7fffffffffffffff              # double NaN
	.quad	0x7fffffffffffffff              # double NaN
	.section	.text,"xr",discard,"?abs@@YAOO@Z"
	.globl	"?abs@@YAOO@Z"
	.p2align	4, 0x90
"?abs@@YAOO@Z":                         # @"?abs@@YAOO@Z"
.seh_proc "?abs@@YAOO@Z"
# %bb.0:
	push	rax
	.seh_stackalloc 8
	.seh_endprologue
	movsd	qword ptr [rsp], xmm0
	movsd	xmm0, qword ptr [rsp]           # xmm0 = mem[0],zero
	movaps	xmm1, xmmword ptr [rip + __xmm@7fffffffffffffff7fffffffffffffff] # xmm1 = [NaN,NaN]
	pand	xmm0, xmm1
	pop	rax
	ret
	.seh_endproc
                                        # -- End function
	.def	"?get_arc_parameter@@YAOAEBUPoint@@00@Z";
	.scl	2;
	.type	32;
	.endef
	.text
	.globl	"?get_arc_parameter@@YAOAEBUPoint@@00@Z" # -- Begin function ?get_arc_parameter@@YAOAEBUPoint@@00@Z
	.p2align	4, 0x90
"?get_arc_parameter@@YAOAEBUPoint@@00@Z": # @"?get_arc_parameter@@YAOAEBUPoint@@00@Z"
.seh_proc "?get_arc_parameter@@YAOAEBUPoint@@00@Z"
# %bb.0:
	sub	rsp, 88
	.seh_stackalloc 88
	.seh_endprologue
	mov	qword ptr [rsp + 72], r8
	mov	qword ptr [rsp + 64], rdx
	mov	qword ptr [rsp + 56], rcx
	mov	rdx, qword ptr [rsp + 64]
	mov	rcx, qword ptr [rsp + 56]
	call	"?dist_xyz@@YAOAEBUPoint@@0@Z"
	movsd	qword ptr [rsp + 48], xmm0
	movsd	xmm0, qword ptr [rip + __real@3e112e0be826d695] # xmm0 = [1.0000000000000001E-9,0.0E+0]
	ucomisd	xmm0, qword ptr [rsp + 48]
	jbe	.LBB20_2
# %bb.1:
	xorps	xmm0, xmm0
	movsd	qword ptr [rsp + 80], xmm0
	jmp	.LBB20_3
.LBB20_2:
	mov	rdx, qword ptr [rsp + 72]
	mov	rcx, qword ptr [rsp + 56]
	call	"?dist_xyz@@YAOAEBUPoint@@0@Z"
	movsd	qword ptr [rsp + 40], xmm0
	movsd	xmm0, qword ptr [rsp + 40]      # xmm0 = mem[0],zero
	divsd	xmm0, qword ptr [rsp + 48]
	movsd	qword ptr [rsp + 80], xmm0
.LBB20_3:
	movsd	xmm0, qword ptr [rsp + 80]      # xmm0 = mem[0],zero
	add	rsp, 88
	ret
	.seh_endproc
                                        # -- End function
	.def	"?get_small_circle_intersections@@YA?AV?$vector@UPoint@@V?$allocator@UPoint@@@std@@@std@@AEBUPoint@@0O@Z";
	.scl	2;
	.type	32;
	.endef
	.globl	__real@3ff000000044b830         # -- Begin function ?get_small_circle_intersections@@YA?AV?$vector@UPoint@@V?$allocator@UPoint@@@std@@@std@@AEBUPoint@@0O@Z
	.section	.rdata,"dr",discard,__real@3ff000000044b830
	.p2align	3, 0x0
__real@3ff000000044b830:
	.quad	0x3ff000000044b830              # double 1.0000000010000001
	.globl	__real@4000000000000000
	.section	.rdata,"dr",discard,__real@4000000000000000
	.p2align	3, 0x0
__real@4000000000000000:
	.quad	0x4000000000000000              # double 2
	.globl	__real@bff000000044b830
	.section	.rdata,"dr",discard,__real@bff000000044b830
	.p2align	3, 0x0
__real@bff000000044b830:
	.quad	0xbff000000044b830              # double -1.0000000010000001
	.globl	__real@3fe0000000000000
	.section	.rdata,"dr",discard,__real@3fe0000000000000
	.p2align	3, 0x0
__real@3fe0000000000000:
	.quad	0x3fe0000000000000              # double 0.5
	.text
	.globl	"?get_small_circle_intersections@@YA?AV?$vector@UPoint@@V?$allocator@UPoint@@@std@@@std@@AEBUPoint@@0O@Z"
	.p2align	4, 0x90
"?get_small_circle_intersections@@YA?AV?$vector@UPoint@@V?$allocator@UPoint@@@std@@@std@@AEBUPoint@@0O@Z": # @"?get_small_circle_intersections@@YA?AV?$vector@UPoint@@V?$allocator@UPoint@@@std@@@std@@AEBUPoint@@0O@Z"
.Lfunc_begin0:
.seh_proc "?get_small_circle_intersections@@YA?AV?$vector@UPoint@@V?$allocator@UPoint@@@std@@@std@@AEBUPoint@@0O@Z"
	.seh_handler __CxxFrameHandler3, @unwind, @except
# %bb.0:
	push	rbp
	.seh_pushreg rbp
	sub	rsp, 592
	.seh_stackalloc 592
	lea	rbp, [rsp + 128]
	.seh_setframe rbp, 128
	.seh_endprologue
	mov	qword ptr [rbp + 456], -2
	mov	qword ptr [rbp], rcx            # 8-byte Spill
	mov	rax, rcx
	mov	qword ptr [rbp - 8], rax        # 8-byte Spill
	mov	qword ptr [rbp + 448], rcx
	movsd	qword ptr [rbp + 440], xmm3
	mov	qword ptr [rbp + 432], r8
	mov	qword ptr [rbp + 424], rdx
	mov	rdx, qword ptr [rbp + 424]
	lea	rcx, [rbp + 400]
	call	"?normalize@@YA?AUPoint@@AEBU1@@Z"
	mov	rdx, qword ptr [rbp + 432]
	lea	rcx, [rbp + 376]
	call	"?normalize@@YA?AUPoint@@AEBU1@@Z"
	movsd	xmm0, qword ptr [rbp + 440]     # xmm0 = mem[0],zero
	movsd	xmm1, qword ptr [rip + __real@40b8e20000000000] # xmm1 = [6.37E+3,0.0E+0]
	divsd	xmm0, xmm1
	movsd	qword ptr [rbp + 368], xmm0
	lea	rcx, [rbp + 400]
	lea	rdx, [rbp + 376]
	call	"?dot@@YAOAEBUPoint@@0@Z"
	movsd	qword ptr [rbp + 352], xmm0
	movsd	xmm0, qword ptr [rip + __real@3ff0000000000000] # xmm0 = [1.0E+0,0.0E+0]
	movsd	qword ptr [rbp + 344], xmm0
	lea	rcx, [rbp + 344]
	lea	rdx, [rbp + 352]
	call	"??$min@O@std@@YAAEBOAEBO0@Z"
	mov	rdx, rax
	movsd	xmm0, qword ptr [rip + __real@bff0000000000000] # xmm0 = [-1.0E+0,0.0E+0]
	movsd	qword ptr [rbp + 336], xmm0
	lea	rcx, [rbp + 336]
	call	"??$max@O@std@@YAAEBOAEBO0@Z"
	movsd	xmm0, qword ptr [rax]           # xmm0 = mem[0],zero
	call	"?acos@@YAOO@Z"
	mov	rcx, qword ptr [rbp]            # 8-byte Reload
	movsd	qword ptr [rbp + 360], xmm0
	mov	byte ptr [rbp + 335], 0
	call	"??0?$vector@UPoint@@V?$allocator@UPoint@@@std@@@std@@QEAA@XZ"
	movsd	xmm0, qword ptr [rbp + 360]     # xmm0 = mem[0],zero
	movsd	xmm1, qword ptr [rbp + 368]     # xmm1 = mem[0],zero
	addsd	xmm1, xmm1
	movsd	xmm2, qword ptr [rip + __real@3e112e0be826d695] # xmm2 = [1.0000000000000001E-9,0.0E+0]
	addsd	xmm1, xmm2
	ucomisd	xmm0, xmm1
	jbe	.LBB21_2
# %bb.1:
	mov	byte ptr [rbp + 335], 1
	mov	dword ptr [rbp + 328], 1
	jmp	.LBB21_12
.LBB21_2:
	movsd	xmm0, qword ptr [rip + __real@3e112e0be826d695] # xmm0 = [1.0000000000000001E-9,0.0E+0]
	ucomisd	xmm0, qword ptr [rbp + 360]
	jbe	.LBB21_4
# %bb.3:
	mov	byte ptr [rbp + 335], 1
	mov	dword ptr [rbp + 328], 1
	jmp	.LBB21_12
.LBB21_4:
	movsd	xmm0, qword ptr [rbp + 368]     # xmm0 = mem[0],zero
	call	"?cos@@YAOO@Z"
	movsd	qword ptr [rbp - 16], xmm0      # 8-byte Spill
	movsd	xmm0, qword ptr [rbp + 360]     # xmm0 = mem[0],zero
	movsd	xmm1, qword ptr [rip + __real@4000000000000000] # xmm1 = [2.0E+0,0.0E+0]
	divsd	xmm0, xmm1
	call	"?cos@@YAOO@Z"
	movaps	xmm1, xmm0
	movsd	xmm0, qword ptr [rbp - 16]      # 8-byte Reload
                                        # xmm0 = mem[0],zero
	divsd	xmm0, xmm1
	movsd	qword ptr [rbp + 320], xmm0
	movsd	xmm0, qword ptr [rbp + 320]     # xmm0 = mem[0],zero
	movsd	xmm1, qword ptr [rip + __real@3ff000000044b830] # xmm1 = [1.0000000010000001E+0,0.0E+0]
	ucomisd	xmm0, xmm1
	ja	.LBB21_6
# %bb.5:
	movsd	xmm0, qword ptr [rip + __real@bff000000044b830] # xmm0 = [-1.0000000010000001E+0,0.0E+0]
	ucomisd	xmm0, qword ptr [rbp + 320]
	jbe	.LBB21_7
.LBB21_6:
	movsd	xmm0, qword ptr [rip + __real@3ff0000000000000] # xmm0 = [1.0E+0,0.0E+0]
	movsd	qword ptr [rbp + 312], xmm0
	lea	rcx, [rbp + 312]
	lea	rdx, [rbp + 320]
	call	"??$min@O@std@@YAAEBOAEBO0@Z"
	mov	rdx, rax
	movsd	xmm0, qword ptr [rip + __real@bff0000000000000] # xmm0 = [-1.0E+0,0.0E+0]
	movsd	qword ptr [rbp + 304], xmm0
	lea	rcx, [rbp + 304]
	call	"??$max@O@std@@YAAEBOAEBO0@Z"
	movsd	xmm0, qword ptr [rax]           # xmm0 = mem[0],zero
	movsd	qword ptr [rbp + 320], xmm0
.LBB21_7:
	movsd	xmm0, qword ptr [rbp + 320]     # xmm0 = mem[0],zero
	call	"?acos@@YAOO@Z"
	movsd	qword ptr [rbp + 296], xmm0
	movsd	xmm3, qword ptr [rbp + 360]     # xmm3 = mem[0],zero
	movsd	xmm0, qword ptr [rip + __real@3fe0000000000000] # xmm0 = [5.0E-1,0.0E+0]
	mulsd	xmm3, xmm0
	lea	rcx, [rbp + 272]
	mov	qword ptr [rbp - 40], rcx       # 8-byte Spill
	lea	rdx, [rbp + 400]
	mov	qword ptr [rbp - 96], rdx       # 8-byte Spill
	lea	r8, [rbp + 376]
	mov	qword ptr [rbp - 88], r8        # 8-byte Spill
	call	"?point_at_angle_on_great_circle@@YA?AUPoint@@AEBU1@0O@Z"
	mov	rdx, qword ptr [rbp - 96]       # 8-byte Reload
	mov	r8, qword ptr [rbp - 88]        # 8-byte Reload
	lea	rcx, [rbp + 200]
	mov	qword ptr [rbp - 80], rcx       # 8-byte Spill
	call	"??G@YA?AUPoint@@AEBU0@0@Z"
	mov	r8, qword ptr [rbp - 80]        # 8-byte Reload
	mov	rdx, qword ptr [rbp - 40]       # 8-byte Reload
	lea	rcx, [rbp + 224]
	mov	qword ptr [rbp - 72], rcx       # 8-byte Spill
	call	"?cross@@YA?AUPoint@@AEBU1@0@Z"
	mov	rdx, qword ptr [rbp - 72]       # 8-byte Reload
	lea	rcx, [rbp + 248]
	mov	qword ptr [rbp - 48], rcx       # 8-byte Spill
	call	"?normalize@@YA?AUPoint@@AEBU1@@Z"
	movsd	xmm0, qword ptr [rbp + 296]     # xmm0 = mem[0],zero
	call	"?sin@@YAOO@Z"
	mov	rdx, qword ptr [rbp - 48]       # 8-byte Reload
	movaps	xmm2, xmm0
	lea	rcx, [rbp + 152]
	mov	qword ptr [rbp - 56], rcx       # 8-byte Spill
	call	"??D@YA?AUPoint@@AEBU0@O@Z"
	movsd	xmm0, qword ptr [rbp + 296]     # xmm0 = mem[0],zero
	call	"?cos@@YAOO@Z"
	mov	rdx, qword ptr [rbp - 40]       # 8-byte Reload
	movaps	xmm2, xmm0
	lea	rcx, [rbp + 128]
	mov	qword ptr [rbp - 64], rcx       # 8-byte Spill
	call	"??D@YA?AUPoint@@AEBU0@O@Z"
	mov	rdx, qword ptr [rbp - 64]       # 8-byte Reload
	mov	r8, qword ptr [rbp - 56]        # 8-byte Reload
	lea	rcx, [rbp + 176]
	call	"??H@YA?AUPoint@@AEBU0@0@Z"
	movsd	xmm0, qword ptr [rbp + 296]     # xmm0 = mem[0],zero
	call	"?sin@@YAOO@Z"
	mov	rdx, qword ptr [rbp - 48]       # 8-byte Reload
	movaps	xmm2, xmm0
	lea	rcx, [rbp + 80]
	mov	qword ptr [rbp - 24], rcx       # 8-byte Spill
	call	"??D@YA?AUPoint@@AEBU0@O@Z"
	movsd	xmm0, qword ptr [rbp + 296]     # xmm0 = mem[0],zero
	call	"?cos@@YAOO@Z"
	mov	rdx, qword ptr [rbp - 40]       # 8-byte Reload
	movaps	xmm2, xmm0
	lea	rcx, [rbp + 56]
	mov	qword ptr [rbp - 32], rcx       # 8-byte Spill
	call	"??D@YA?AUPoint@@AEBU0@O@Z"
	mov	rdx, qword ptr [rbp - 32]       # 8-byte Reload
	mov	r8, qword ptr [rbp - 24]        # 8-byte Reload
	lea	rcx, [rbp + 104]
	call	"??G@YA?AUPoint@@AEBU0@0@Z"
	mov	rcx, qword ptr [rbp]            # 8-byte Reload
	movsd	xmm0, qword ptr [rbp + 176]     # xmm0 = mem[0],zero
	movsd	xmm1, qword ptr [rip + __real@40b8e20000000000] # xmm1 = [6.37E+3,0.0E+0]
	mulsd	xmm0, xmm1
	movsd	qword ptr [rbp + 32], xmm0
	movsd	xmm0, qword ptr [rbp + 184]     # xmm0 = mem[0],zero
	mulsd	xmm0, xmm1
	movsd	qword ptr [rbp + 40], xmm0
	movsd	xmm0, qword ptr [rbp + 192]     # xmm0 = mem[0],zero
	mulsd	xmm0, xmm1
	movsd	qword ptr [rbp + 48], xmm0
.Ltmp0:
	lea	rdx, [rbp + 32]
	call	"?push_back@?$vector@UPoint@@V?$allocator@UPoint@@@std@@@std@@QEAAX$$QEAUPoint@@@Z"
.Ltmp1:
	jmp	.LBB21_8
.LBB21_8:
	movsd	xmm0, qword ptr [rbp + 296]     # xmm0 = mem[0],zero
	movsd	xmm1, qword ptr [rip + __real@3e112e0be826d695] # xmm1 = [1.0000000000000001E-9,0.0E+0]
	ucomisd	xmm0, xmm1
	jbe	.LBB21_11
# %bb.9:
	mov	rcx, qword ptr [rbp]            # 8-byte Reload
	movsd	xmm0, qword ptr [rbp + 104]     # xmm0 = mem[0],zero
	movsd	xmm1, qword ptr [rip + __real@40b8e20000000000] # xmm1 = [6.37E+3,0.0E+0]
	mulsd	xmm0, xmm1
	movsd	qword ptr [rbp + 8], xmm0
	movsd	xmm0, qword ptr [rbp + 112]     # xmm0 = mem[0],zero
	mulsd	xmm0, xmm1
	movsd	qword ptr [rbp + 16], xmm0
	movsd	xmm0, qword ptr [rbp + 120]     # xmm0 = mem[0],zero
	mulsd	xmm0, xmm1
	movsd	qword ptr [rbp + 24], xmm0
.Ltmp2:
	lea	rdx, [rbp + 8]
	call	"?push_back@?$vector@UPoint@@V?$allocator@UPoint@@@std@@@std@@QEAAX$$QEAUPoint@@@Z"
.Ltmp3:
	jmp	.LBB21_10
.LBB21_10:
	jmp	.LBB21_11
.LBB21_11:
	mov	byte ptr [rbp + 335], 1
	mov	dword ptr [rbp + 328], 1
.LBB21_12:
	test	byte ptr [rbp + 335], 1
	jne	.LBB21_14
# %bb.13:
	mov	rcx, qword ptr [rbp]            # 8-byte Reload
	call	"??1?$vector@UPoint@@V?$allocator@UPoint@@@std@@@std@@QEAA@XZ"
.LBB21_14:
	mov	rax, qword ptr [rbp - 8]        # 8-byte Reload
	add	rsp, 592
	pop	rbp
	ret
	.seh_handlerdata
	.long	("$cppxdata$?get_small_circle_intersections@@YA?AV?$vector@UPoint@@V?$allocator@UPoint@@@std@@@std@@AEBUPoint@@0O@Z")@IMGREL
	.text
	.seh_endproc
	.def	"?dtor$15@?0??get_small_circle_intersections@@YA?AV?$vector@UPoint@@V?$allocator@UPoint@@@std@@@std@@AEBUPoint@@0O@Z@4HA";
	.scl	3;
	.type	32;
	.endef
	.p2align	4, 0x90
"?dtor$15@?0??get_small_circle_intersections@@YA?AV?$vector@UPoint@@V?$allocator@UPoint@@@std@@@std@@AEBUPoint@@0O@Z@4HA":
.seh_proc "?dtor$15@?0??get_small_circle_intersections@@YA?AV?$vector@UPoint@@V?$allocator@UPoint@@@std@@@std@@AEBUPoint@@0O@Z@4HA"
.LBB21_15:
	mov	qword ptr [rsp + 16], rdx
	push	rbp
	.seh_pushreg rbp
	sub	rsp, 32
	.seh_stackalloc 32
	lea	rbp, [rdx + 128]
	.seh_endprologue
	mov	rcx, qword ptr [rbp]            # 8-byte Reload
	call	"??1?$vector@UPoint@@V?$allocator@UPoint@@@std@@@std@@QEAA@XZ"
	nop
	add	rsp, 32
	pop	rbp
	ret                                     # CLEANUPRET
.Lfunc_end0:
	.seh_handlerdata
	.text
	.seh_endproc
	.section	.xdata,"dr"
	.p2align	2, 0x0
"$cppxdata$?get_small_circle_intersections@@YA?AV?$vector@UPoint@@V?$allocator@UPoint@@@std@@@std@@AEBUPoint@@0O@Z":
	.long	429065506                       # MagicNumber
	.long	1                               # MaxState
	.long	("$stateUnwindMap$?get_small_circle_intersections@@YA?AV?$vector@UPoint@@V?$allocator@UPoint@@@std@@@std@@AEBUPoint@@0O@Z")@IMGREL # UnwindMap
	.long	0                               # NumTryBlocks
	.long	0                               # TryBlockMap
	.long	3                               # IPMapEntries
	.long	("$ip2state$?get_small_circle_intersections@@YA?AV?$vector@UPoint@@V?$allocator@UPoint@@@std@@@std@@AEBUPoint@@0O@Z")@IMGREL # IPToStateXData
	.long	584                             # UnwindHelp
	.long	0                               # ESTypeList
	.long	1                               # EHFlags
"$stateUnwindMap$?get_small_circle_intersections@@YA?AV?$vector@UPoint@@V?$allocator@UPoint@@@std@@@std@@AEBUPoint@@0O@Z":
	.long	-1                              # ToState
	.long	"?dtor$15@?0??get_small_circle_intersections@@YA?AV?$vector@UPoint@@V?$allocator@UPoint@@@std@@@std@@AEBUPoint@@0O@Z@4HA"@IMGREL # Action
"$ip2state$?get_small_circle_intersections@@YA?AV?$vector@UPoint@@V?$allocator@UPoint@@@std@@@std@@AEBUPoint@@0O@Z":
	.long	.Lfunc_begin0@IMGREL            # IP
	.long	-1                              # ToState
	.long	.Ltmp0@IMGREL+1                 # IP
	.long	0                               # ToState
	.long	.Ltmp3@IMGREL+1                 # IP
	.long	-1                              # ToState
	.text
                                        # -- End function
	.def	"??0?$vector@UPoint@@V?$allocator@UPoint@@@std@@@std@@QEAA@XZ";
	.scl	2;
	.type	32;
	.endef
	.section	.text,"xr",discard,"??0?$vector@UPoint@@V?$allocator@UPoint@@@std@@@std@@QEAA@XZ"
	.globl	"??0?$vector@UPoint@@V?$allocator@UPoint@@@std@@@std@@QEAA@XZ" # -- Begin function ??0?$vector@UPoint@@V?$allocator@UPoint@@@std@@@std@@QEAA@XZ
	.p2align	4, 0x90
"??0?$vector@UPoint@@V?$allocator@UPoint@@@std@@@std@@QEAA@XZ": # @"??0?$vector@UPoint@@V?$allocator@UPoint@@@std@@@std@@QEAA@XZ"
.seh_proc "??0?$vector@UPoint@@V?$allocator@UPoint@@@std@@@std@@QEAA@XZ"
# %bb.0:
	sub	rsp, 56
	.seh_stackalloc 56
	.seh_endprologue
	mov	qword ptr [rsp + 48], rcx
	mov	rcx, qword ptr [rsp + 48]
	mov	qword ptr [rsp + 32], rcx       # 8-byte Spill
	mov	dl, byte ptr [rsp + 47]
	call	"??$?0$$V@?$_Compressed_pair@V?$allocator@UPoint@@@std@@V?$_Vector_val@U?$_Simple_types@UPoint@@@std@@@2@$00@std@@QEAA@U_Zero_then_variadic_args_t@1@@Z"
	mov	rcx, qword ptr [rsp + 32]       # 8-byte Reload
	lea	rdx, [rip + "?_Fake_alloc@std@@3U_Fake_allocator@1@B"]
	call	"?_Alloc_proxy@_Container_base0@std@@QEAAXAEBU_Fake_allocator@2@@Z"
	mov	rax, qword ptr [rsp + 32]       # 8-byte Reload
	add	rsp, 56
	ret
	.seh_endproc
                                        # -- End function
	.def	"?push_back@?$vector@UPoint@@V?$allocator@UPoint@@@std@@@std@@QEAAX$$QEAUPoint@@@Z";
	.scl	2;
	.type	32;
	.endef
	.section	.text,"xr",discard,"?push_back@?$vector@UPoint@@V?$allocator@UPoint@@@std@@@std@@QEAAX$$QEAUPoint@@@Z"
	.globl	"?push_back@?$vector@UPoint@@V?$allocator@UPoint@@@std@@@std@@QEAAX$$QEAUPoint@@@Z" # -- Begin function ?push_back@?$vector@UPoint@@V?$allocator@UPoint@@@std@@@std@@QEAAX$$QEAUPoint@@@Z
	.p2align	4, 0x90
"?push_back@?$vector@UPoint@@V?$allocator@UPoint@@@std@@@std@@QEAAX$$QEAUPoint@@@Z": # @"?push_back@?$vector@UPoint@@V?$allocator@UPoint@@@std@@@std@@QEAAX$$QEAUPoint@@@Z"
.seh_proc "?push_back@?$vector@UPoint@@V?$allocator@UPoint@@@std@@@std@@QEAAX$$QEAUPoint@@@Z"
# %bb.0:
	sub	rsp, 56
	.seh_stackalloc 56
	.seh_endprologue
	mov	qword ptr [rsp + 48], rdx
	mov	qword ptr [rsp + 40], rcx
	mov	rcx, qword ptr [rsp + 40]
	mov	rdx, qword ptr [rsp + 48]
	call	"??$_Emplace_one_at_back@UPoint@@@?$vector@UPoint@@V?$allocator@UPoint@@@std@@@std@@AEAAAEAUPoint@@$$QEAU2@@Z"
	nop
	add	rsp, 56
	ret
	.seh_endproc
                                        # -- End function
	.def	"??1?$vector@UPoint@@V?$allocator@UPoint@@@std@@@std@@QEAA@XZ";
	.scl	2;
	.type	32;
	.endef
	.section	.text,"xr",discard,"??1?$vector@UPoint@@V?$allocator@UPoint@@@std@@@std@@QEAA@XZ"
	.globl	"??1?$vector@UPoint@@V?$allocator@UPoint@@@std@@@std@@QEAA@XZ" # -- Begin function ??1?$vector@UPoint@@V?$allocator@UPoint@@@std@@@std@@QEAA@XZ
	.p2align	4, 0x90
"??1?$vector@UPoint@@V?$allocator@UPoint@@@std@@@std@@QEAA@XZ": # @"??1?$vector@UPoint@@V?$allocator@UPoint@@@std@@@std@@QEAA@XZ"
.seh_proc "??1?$vector@UPoint@@V?$allocator@UPoint@@@std@@@std@@QEAA@XZ"
# %bb.0:
	sub	rsp, 40
	.seh_stackalloc 40
	.seh_endprologue
	mov	qword ptr [rsp + 32], rcx
	mov	rcx, qword ptr [rsp + 32]
	call	"?_Tidy@?$vector@UPoint@@V?$allocator@UPoint@@@std@@@std@@AEAAXXZ"
	nop
	add	rsp, 40
	ret
	.seh_endproc
                                        # -- End function
	.def	"?get_covered_intervals@@YA?AV?$vector@U?$pair@OO@std@@V?$allocator@U?$pair@OO@std@@@2@@std@@AEBUPoint@@00O@Z";
	.scl	2;
	.type	32;
	.endef
	.text
	.globl	"?get_covered_intervals@@YA?AV?$vector@U?$pair@OO@std@@V?$allocator@U?$pair@OO@std@@@2@@std@@AEBUPoint@@00O@Z" # -- Begin function ?get_covered_intervals@@YA?AV?$vector@U?$pair@OO@std@@V?$allocator@U?$pair@OO@std@@@2@@std@@AEBUPoint@@00O@Z
	.p2align	4, 0x90
"?get_covered_intervals@@YA?AV?$vector@U?$pair@OO@std@@V?$allocator@U?$pair@OO@std@@@2@@std@@AEBUPoint@@00O@Z": # @"?get_covered_intervals@@YA?AV?$vector@U?$pair@OO@std@@V?$allocator@U?$pair@OO@std@@@2@@std@@AEBUPoint@@00O@Z"
.Lfunc_begin1:
.seh_proc "?get_covered_intervals@@YA?AV?$vector@U?$pair@OO@std@@V?$allocator@U?$pair@OO@std@@@2@@std@@AEBUPoint@@00O@Z"
	.seh_handler __CxxFrameHandler3, @unwind, @except
# %bb.0:
	push	rbp
	.seh_pushreg rbp
	sub	rsp, 1200
	.seh_stackalloc 1200
	lea	rbp, [rsp + 128]
	.seh_setframe rbp, 128
	.seh_endprologue
	mov	qword ptr [rbp + 1064], -2
	mov	qword ptr [rbp + 24], rcx       # 8-byte Spill
	mov	rax, rcx
	mov	qword ptr [rbp + 32], rax       # 8-byte Spill
	movsd	xmm0, qword ptr [rbp + 1120]    # xmm0 = mem[0],zero
	mov	qword ptr [rbp + 1056], rcx
	mov	qword ptr [rbp + 1048], r9
	mov	qword ptr [rbp + 1040], r8
	mov	qword ptr [rbp + 1032], rdx
	movsd	xmm0, qword ptr [rbp + 1120]    # xmm0 = mem[0],zero
	movsd	xmm1, qword ptr [rip + __real@40b8e20000000000] # xmm1 = [6.37E+3,0.0E+0]
	divsd	xmm0, xmm1
	movsd	qword ptr [rbp + 1024], xmm0
	mov	rdx, qword ptr [rbp + 1032]
	lea	rcx, [rbp + 1000]
	call	"?normalize@@YA?AUPoint@@AEBU1@@Z"
	mov	rdx, qword ptr [rbp + 1040]
	lea	rcx, [rbp + 976]
	call	"?normalize@@YA?AUPoint@@AEBU1@@Z"
	mov	rdx, qword ptr [rbp + 1048]
	lea	rcx, [rbp + 952]
	call	"?normalize@@YA?AUPoint@@AEBU1@@Z"
	lea	rcx, [rbp + 1000]
	lea	rdx, [rbp + 976]
	call	"?dot@@YAOAEBUPoint@@0@Z"
	movsd	qword ptr [rbp + 936], xmm0
	movsd	xmm0, qword ptr [rip + __real@3ff0000000000000] # xmm0 = [1.0E+0,0.0E+0]
	movsd	qword ptr [rbp + 928], xmm0
	lea	rcx, [rbp + 928]
	lea	rdx, [rbp + 936]
	call	"??$min@O@std@@YAAEBOAEBO0@Z"
	mov	rdx, rax
	movsd	xmm0, qword ptr [rip + __real@bff0000000000000] # xmm0 = [-1.0E+0,0.0E+0]
	movsd	qword ptr [rbp + 920], xmm0
	lea	rcx, [rbp + 920]
	call	"??$max@O@std@@YAAEBOAEBO0@Z"
	movsd	xmm0, qword ptr [rax]           # xmm0 = mem[0],zero
	call	"?acos@@YAOO@Z"
	movsd	qword ptr [rbp + 944], xmm0
	movsd	xmm0, qword ptr [rip + __real@3e112e0be826d695] # xmm0 = [1.0000000000000001E-9,0.0E+0]
	ucomisd	xmm0, qword ptr [rbp + 944]
	jbe	.LBB25_4
# %bb.1:
	mov	rdx, qword ptr [rbp + 1048]
	mov	rcx, qword ptr [rbp + 1032]
	call	"?dist_xyz@@YAOAEBUPoint@@0@Z"
	movaps	xmm1, xmm0
	movsd	xmm0, qword ptr [rip + __real@3e112e0be826d695] # xmm0 = [1.0000000000000001E-9,0.0E+0]
	addsd	xmm0, qword ptr [rbp + 1120]
	ucomisd	xmm0, xmm1
	jb	.LBB25_3
# %bb.2:
	xorps	xmm0, xmm0
	movsd	qword ptr [rbp + 880], xmm0
	movsd	xmm0, qword ptr [rip + __real@3ff0000000000000] # xmm0 = [1.0E+0,0.0E+0]
	movsd	qword ptr [rbp + 872], xmm0
	lea	rcx, [rbp + 888]
	lea	rdx, [rbp + 880]
	lea	r8, [rbp + 872]
	call	"??$?0NN$0A@@?$pair@OO@std@@QEAA@$$QEAN0@Z"
	lea	rax, [rbp + 888]
	mov	qword ptr [rbp + 904], rax
	lea	rax, [rbp + 888]
	add	rax, 16
	mov	qword ptr [rbp + 912], rax
	lea	rcx, [rbp + 871]
	call	"??0?$allocator@U?$pair@OO@std@@@std@@QEAA@XZ"
	mov	rcx, qword ptr [rbp + 24]       # 8-byte Reload
	lea	rdx, [rbp + 904]
	lea	r8, [rbp + 871]
	call	"??0?$vector@U?$pair@OO@std@@V?$allocator@U?$pair@OO@std@@@2@@std@@QEAA@V?$initializer_list@U?$pair@OO@std@@@1@AEBV?$allocator@U?$pair@OO@std@@@1@@Z"
	jmp	.LBB25_44
.LBB25_3:
	mov	rcx, qword ptr [rbp + 24]       # 8-byte Reload
	call	"??0?$vector@U?$pair@OO@std@@V?$allocator@U?$pair@OO@std@@@2@@std@@QEAA@XZ"
	jmp	.LBB25_44
.LBB25_4:
	lea	rcx, [rbp + 816]
	mov	qword ptr [rbp - 24], rcx       # 8-byte Spill
	lea	rdx, [rbp + 1000]
	lea	r8, [rbp + 976]
	call	"?cross@@YA?AUPoint@@AEBU1@0@Z"
	mov	rdx, qword ptr [rbp - 24]       # 8-byte Reload
	lea	rcx, [rbp + 840]
	mov	qword ptr [rbp + 8], rcx        # 8-byte Spill
	call	"?normalize@@YA?AUPoint@@AEBU1@@Z"
	mov	rdx, qword ptr [rbp + 8]        # 8-byte Reload
	lea	rcx, [rbp + 952]
	mov	qword ptr [rbp], rcx            # 8-byte Spill
	call	"?dot@@YAOAEBUPoint@@0@Z"
	mov	rdx, qword ptr [rbp + 8]        # 8-byte Reload
	movaps	xmm2, xmm0
	lea	rcx, [rbp + 760]
	mov	qword ptr [rbp - 16], rcx       # 8-byte Spill
	call	"??D@YA?AUPoint@@AEBU0@O@Z"
	mov	r8, qword ptr [rbp - 16]        # 8-byte Reload
	mov	rdx, qword ptr [rbp]            # 8-byte Reload
	lea	rcx, [rbp + 784]
	mov	qword ptr [rbp - 8], rcx        # 8-byte Spill
	call	"??G@YA?AUPoint@@AEBU0@0@Z"
	mov	rdx, qword ptr [rbp - 8]        # 8-byte Reload
	lea	rcx, [rbp + 736]
	call	"?normalize@@YA?AUPoint@@AEBU1@@Z"
	mov	rcx, qword ptr [rbp]            # 8-byte Reload
	mov	rdx, qword ptr [rbp + 8]        # 8-byte Reload
	mov	rax, qword ptr [rbp + 752]
	mov	qword ptr [rbp + 800], rax
	movups	xmm0, xmmword ptr [rbp + 736]
	movaps	xmmword ptr [rbp + 784], xmm0
	call	"?dot@@YAOAEBUPoint@@0@Z"
	call	"?abs@@YAOO@Z"
	movsd	qword ptr [rbp + 720], xmm0
	movabs	rax, 4607182418800017408
	mov	qword ptr [rbp + 712], rax
	lea	rcx, [rbp + 712]
	lea	rdx, [rbp + 720]
	call	"??$min@O@std@@YAAEBOAEBO0@Z"
	mov	rdx, rax
	movabs	rax, -4616189618054758400
	mov	qword ptr [rbp + 704], rax
	lea	rcx, [rbp + 704]
	call	"??$max@O@std@@YAAEBOAEBO0@Z"
	movsd	xmm0, qword ptr [rax]           # xmm0 = mem[0],zero
	call	"?acos@@YAOO@Z"
	movsd	qword ptr [rbp + 728], xmm0
	lea	rcx, [rbp + 680]
	mov	qword ptr [rbp + 16], rcx       # 8-byte Spill
	call	"??0?$vector@OV?$allocator@O@std@@@std@@QEAA@XZ"
	mov	rcx, qword ptr [rbp + 16]       # 8-byte Reload
	mov	qword ptr [rbp + 672], 0
.Ltmp4:
	lea	rdx, [rbp + 672]
	call	"?push_back@?$vector@OV?$allocator@O@std@@@std@@QEAAX$$QEAO@Z"
.Ltmp5:
	jmp	.LBB25_5
.LBB25_5:
	movabs	rax, 4607182418800017408
	mov	qword ptr [rbp + 664], rax
.Ltmp6:
	lea	rcx, [rbp + 680]
	lea	rdx, [rbp + 664]
	call	"?push_back@?$vector@OV?$allocator@O@std@@@std@@QEAAX$$QEAO@Z"
.Ltmp7:
	jmp	.LBB25_6
.LBB25_6:
	movsd	xmm1, qword ptr [rbp + 728]     # xmm1 = mem[0],zero
	movsd	xmm0, qword ptr [rip + __real@3e112e0be826d695] # xmm0 = [1.0000000000000001E-9,0.0E+0]
	addsd	xmm0, qword ptr [rbp + 1024]
	ucomisd	xmm0, xmm1
	jb	.LBB25_24
# %bb.7:
	movsd	xmm0, qword ptr [rbp + 728]     # xmm0 = mem[0],zero
	subsd	xmm0, qword ptr [rbp + 1024]
	call	"?abs@@YAOO@Z"
	movaps	xmm1, xmm0
	movsd	xmm0, qword ptr [rip + __real@3e112e0be826d695] # xmm0 = [1.0000000000000001E-9,0.0E+0]
	ucomisd	xmm0, xmm1
	jbe	.LBB25_9
# %bb.8:
	xorps	xmm0, xmm0
	movsd	qword ptr [rbp + 656], xmm0
	jmp	.LBB25_23
.LBB25_9:
	movsd	xmm0, qword ptr [rbp + 1024]    # xmm0 = mem[0],zero
	call	"?cos@@YAOO@Z"
	movsd	qword ptr [rbp - 32], xmm0      # 8-byte Spill
	movsd	xmm0, qword ptr [rbp + 728]     # xmm0 = mem[0],zero
	call	"?cos@@YAOO@Z"
	movaps	xmm1, xmm0
	movsd	xmm0, qword ptr [rbp - 32]      # 8-byte Reload
                                        # xmm0 = mem[0],zero
	divsd	xmm0, xmm1
	movsd	qword ptr [rbp + 648], xmm0
	movsd	xmm0, qword ptr [rbp + 648]     # xmm0 = mem[0],zero
	movsd	xmm1, qword ptr [rip + __real@bff000000044b830] # xmm1 = [-1.0000000010000001E+0,0.0E+0]
	ucomisd	xmm0, xmm1
	jb	.LBB25_19
# %bb.10:
	movsd	xmm0, qword ptr [rip + __real@3ff000000044b830] # xmm0 = [1.0000000010000001E+0,0.0E+0]
	ucomisd	xmm0, qword ptr [rbp + 648]
	jb	.LBB25_19
# %bb.11:
	movsd	xmm0, qword ptr [rip + __real@3ff0000000000000] # xmm0 = [1.0E+0,0.0E+0]
	movsd	qword ptr [rbp + 640], xmm0
	lea	rcx, [rbp + 640]
	lea	rdx, [rbp + 648]
	call	"??$min@O@std@@YAAEBOAEBO0@Z"
	mov	rdx, rax
	movsd	xmm0, qword ptr [rip + __real@bff0000000000000] # xmm0 = [-1.0E+0,0.0E+0]
	movsd	qword ptr [rbp + 632], xmm0
	lea	rcx, [rbp + 632]
	call	"??$max@O@std@@YAAEBOAEBO0@Z"
	movsd	xmm0, qword ptr [rax]           # xmm0 = mem[0],zero
	call	"?acos@@YAOO@Z"
	movsd	qword ptr [rbp + 656], xmm0
	lea	rcx, [rbp + 584]
	lea	rdx, [rbp + 840]
	lea	r8, [rbp + 784]
	call	"?cross@@YA?AUPoint@@AEBU1@0@Z"
	lea	rcx, [rbp + 608]
	lea	rdx, [rbp + 584]
	call	"?normalize@@YA?AUPoint@@AEBU1@@Z"
	movsd	xmm0, qword ptr [rbp + 656]     # xmm0 = mem[0],zero
	call	"?sin@@YAOO@Z"
	movaps	xmm2, xmm0
	lea	rcx, [rbp + 536]
	lea	rdx, [rbp + 608]
	call	"??D@YA?AUPoint@@AEBU0@O@Z"
	movsd	xmm0, qword ptr [rbp + 656]     # xmm0 = mem[0],zero
	call	"?cos@@YAOO@Z"
	movaps	xmm2, xmm0
	lea	rcx, [rbp + 512]
	lea	rdx, [rbp + 784]
	call	"??D@YA?AUPoint@@AEBU0@O@Z"
	lea	rcx, [rbp + 560]
	lea	rdx, [rbp + 512]
	lea	r8, [rbp + 536]
	call	"??H@YA?AUPoint@@AEBU0@0@Z"
	movsd	xmm0, qword ptr [rbp + 656]     # xmm0 = mem[0],zero
	call	"?sin@@YAOO@Z"
	movaps	xmm2, xmm0
	lea	rcx, [rbp + 464]
	lea	rdx, [rbp + 608]
	call	"??D@YA?AUPoint@@AEBU0@O@Z"
	movsd	xmm0, qword ptr [rbp + 656]     # xmm0 = mem[0],zero
	call	"?cos@@YAOO@Z"
	movaps	xmm2, xmm0
	lea	rcx, [rbp + 440]
	lea	rdx, [rbp + 784]
	call	"??D@YA?AUPoint@@AEBU0@O@Z"
	lea	rcx, [rbp + 488]
	lea	rdx, [rbp + 440]
	lea	r8, [rbp + 464]
	call	"??G@YA?AUPoint@@AEBU0@0@Z"
	movsd	xmm0, qword ptr [rip + __real@40b8e20000000000] # xmm0 = [6.37E+3,0.0E+0]
	mulsd	xmm0, qword ptr [rbp + 560]
	movsd	qword ptr [rbp + 416], xmm0
	movsd	xmm0, qword ptr [rip + __real@40b8e20000000000] # xmm0 = [6.37E+3,0.0E+0]
	mulsd	xmm0, qword ptr [rbp + 568]
	movsd	qword ptr [rbp + 424], xmm0
	movsd	xmm0, qword ptr [rip + __real@40b8e20000000000] # xmm0 = [6.37E+3,0.0E+0]
	mulsd	xmm0, qword ptr [rbp + 576]
	movsd	qword ptr [rbp + 432], xmm0
	movsd	xmm0, qword ptr [rip + __real@40b8e20000000000] # xmm0 = [6.37E+3,0.0E+0]
	mulsd	xmm0, qword ptr [rbp + 488]
	movsd	qword ptr [rbp + 392], xmm0
	movsd	xmm0, qword ptr [rip + __real@40b8e20000000000] # xmm0 = [6.37E+3,0.0E+0]
	mulsd	xmm0, qword ptr [rbp + 496]
	movsd	qword ptr [rbp + 400], xmm0
	movsd	xmm0, qword ptr [rip + __real@40b8e20000000000] # xmm0 = [6.37E+3,0.0E+0]
	mulsd	xmm0, qword ptr [rbp + 504]
	movsd	qword ptr [rbp + 408], xmm0
	mov	rdx, qword ptr [rbp + 1040]
	mov	rcx, qword ptr [rbp + 1032]
	lea	r8, [rbp + 416]
	call	"?is_on_arc@@YA_NAEBUPoint@@00@Z"
	test	al, 1
	jne	.LBB25_12
	jmp	.LBB25_14
.LBB25_12:
	mov	rdx, qword ptr [rbp + 1040]
	mov	rcx, qword ptr [rbp + 1032]
	lea	r8, [rbp + 416]
	call	"?get_arc_parameter@@YAOAEBUPoint@@00@Z"
	movsd	qword ptr [rbp + 384], xmm0
.Ltmp12:
	lea	rcx, [rbp + 680]
	lea	rdx, [rbp + 384]
	call	"?push_back@?$vector@OV?$allocator@O@std@@@std@@QEAAX$$QEAO@Z"
.Ltmp13:
	jmp	.LBB25_13
.LBB25_13:
	jmp	.LBB25_14
.LBB25_14:
	movsd	xmm0, qword ptr [rbp + 656]     # xmm0 = mem[0],zero
	movsd	xmm1, qword ptr [rip + __real@3e112e0be826d695] # xmm1 = [1.0000000000000001E-9,0.0E+0]
	ucomisd	xmm0, xmm1
	jbe	.LBB25_18
# %bb.15:
	mov	rdx, qword ptr [rbp + 1040]
	mov	rcx, qword ptr [rbp + 1032]
	lea	r8, [rbp + 392]
	call	"?is_on_arc@@YA_NAEBUPoint@@00@Z"
	test	al, 1
	jne	.LBB25_16
	jmp	.LBB25_18
.LBB25_16:
	mov	rdx, qword ptr [rbp + 1040]
	mov	rcx, qword ptr [rbp + 1032]
	lea	r8, [rbp + 392]
	call	"?get_arc_parameter@@YAOAEBUPoint@@00@Z"
	movsd	qword ptr [rbp + 376], xmm0
.Ltmp14:
	lea	rcx, [rbp + 680]
	lea	rdx, [rbp + 376]
	call	"?push_back@?$vector@OV?$allocator@O@std@@@std@@QEAAX$$QEAO@Z"
.Ltmp15:
	jmp	.LBB25_17
.LBB25_17:
	jmp	.LBB25_18
.LBB25_18:
	jmp	.LBB25_23
.LBB25_19:
	movsd	xmm0, qword ptr [rbp + 944]     # xmm0 = mem[0],zero
	movsd	xmm1, qword ptr [rip + __real@4000000000000000] # xmm1 = [2.0E+0,0.0E+0]
	divsd	xmm0, xmm1
	movsd	qword ptr [rbp + 368], xmm0
	movsd	xmm3, qword ptr [rbp + 368]     # xmm3 = mem[0],zero
	mov	r8, qword ptr [rbp + 1040]
	mov	rdx, qword ptr [rbp + 1032]
	lea	rcx, [rbp + 344]
	call	"?point_at_angle_on_great_circle@@YA?AUPoint@@AEBU1@0O@Z"
	mov	rdx, qword ptr [rbp + 1048]
	lea	rcx, [rbp + 344]
	call	"?dist_xyz@@YAOAEBUPoint@@0@Z"
	movaps	xmm1, xmm0
	movsd	xmm0, qword ptr [rip + __real@3e112e0be826d695] # xmm0 = [1.0000000000000001E-9,0.0E+0]
	addsd	xmm0, qword ptr [rbp + 1120]
	ucomisd	xmm0, xmm1
	jb	.LBB25_22
# %bb.20:
	mov	qword ptr [rbp + 304], 0
	movabs	rax, 4607182418800017408
	mov	qword ptr [rbp + 296], rax
	lea	rcx, [rbp + 312]
	mov	qword ptr [rbp - 48], rcx       # 8-byte Spill
	lea	rdx, [rbp + 304]
	lea	r8, [rbp + 296]
	call	"??$?0NN$0A@@?$pair@OO@std@@QEAA@$$QEAN0@Z"
                                        # kill: def $rcx killed $rax
	mov	rax, qword ptr [rbp - 48]       # 8-byte Reload
	mov	qword ptr [rbp + 328], rax
	lea	rax, [rbp + 328]
	mov	qword ptr [rbp + 336], rax
	lea	rcx, [rbp + 295]
	mov	qword ptr [rbp - 40], rcx       # 8-byte Spill
	call	"??0?$allocator@U?$pair@OO@std@@@std@@QEAA@XZ"
	mov	rcx, qword ptr [rbp + 24]       # 8-byte Reload
	mov	r8, qword ptr [rbp - 40]        # 8-byte Reload
.Ltmp10:
	lea	rdx, [rbp + 328]
	call	"??0?$vector@U?$pair@OO@std@@V?$allocator@U?$pair@OO@std@@@2@@std@@QEAA@V?$initializer_list@U?$pair@OO@std@@@1@AEBV?$allocator@U?$pair@OO@std@@@1@@Z"
.Ltmp11:
	jmp	.LBB25_21
.LBB25_21:
	mov	dword ptr [rbp + 288], 1
	jmp	.LBB25_42
.LBB25_22:
	mov	rcx, qword ptr [rbp + 24]       # 8-byte Reload
	call	"??0?$vector@U?$pair@OO@std@@V?$allocator@U?$pair@OO@std@@@2@@std@@QEAA@XZ"
	mov	dword ptr [rbp + 288], 1
	jmp	.LBB25_42
.LBB25_23:
	lea	rcx, [rbp + 680]
	mov	qword ptr [rbp - 56], rcx       # 8-byte Spill
	lea	rdx, [rbp + 192]
	call	"?end@?$vector@OV?$allocator@O@std@@@std@@QEAA?AV?$_Vector_iterator@V?$_Vector_val@U?$_Simple_types@O@std@@@std@@@2@XZ"
	mov	rcx, qword ptr [rbp - 56]       # 8-byte Reload
	lea	rdx, [rbp + 184]
	call	"?begin@?$vector@OV?$allocator@O@std@@@std@@QEAA?AV?$_Vector_iterator@V?$_Vector_val@U?$_Simple_types@O@std@@@std@@@2@XZ"
	mov	rcx, qword ptr [rbp + 184]
	mov	rdx, qword ptr [rbp + 192]
.Ltmp16:
	call	"??$sort@V?$_Vector_iterator@V?$_Vector_val@U?$_Simple_types@O@std@@@std@@@std@@@std@@YAXV?$_Vector_iterator@V?$_Vector_val@U?$_Simple_types@O@std@@@std@@@0@0@Z"
.Ltmp17:
	jmp	.LBB25_28
.LBB25_24:
	movsd	xmm0, qword ptr [rbp + 944]     # xmm0 = mem[0],zero
	movsd	xmm1, qword ptr [rip + __real@4000000000000000] # xmm1 = [2.0E+0,0.0E+0]
	divsd	xmm0, xmm1
	movsd	qword ptr [rbp + 280], xmm0
	movsd	xmm3, qword ptr [rbp + 280]     # xmm3 = mem[0],zero
	mov	r8, qword ptr [rbp + 1040]
	mov	rdx, qword ptr [rbp + 1032]
	lea	rcx, [rbp + 256]
	call	"?point_at_angle_on_great_circle@@YA?AUPoint@@AEBU1@0O@Z"
	mov	rdx, qword ptr [rbp + 1048]
	lea	rcx, [rbp + 256]
	call	"?dist_xyz@@YAOAEBUPoint@@0@Z"
	movaps	xmm1, xmm0
	movsd	xmm0, qword ptr [rip + __real@3e112e0be826d695] # xmm0 = [1.0000000000000001E-9,0.0E+0]
	addsd	xmm0, qword ptr [rbp + 1120]
	ucomisd	xmm0, xmm1
	jb	.LBB25_27
# %bb.25:
	mov	qword ptr [rbp + 216], 0
	movabs	rax, 4607182418800017408
	mov	qword ptr [rbp + 208], rax
	lea	rcx, [rbp + 224]
	mov	qword ptr [rbp - 72], rcx       # 8-byte Spill
	lea	rdx, [rbp + 216]
	lea	r8, [rbp + 208]
	call	"??$?0NN$0A@@?$pair@OO@std@@QEAA@$$QEAN0@Z"
                                        # kill: def $rcx killed $rax
	mov	rax, qword ptr [rbp - 72]       # 8-byte Reload
	mov	qword ptr [rbp + 240], rax
	lea	rax, [rbp + 240]
	mov	qword ptr [rbp + 248], rax
	lea	rcx, [rbp + 207]
	mov	qword ptr [rbp - 64], rcx       # 8-byte Spill
	call	"??0?$allocator@U?$pair@OO@std@@@std@@QEAA@XZ"
	mov	rcx, qword ptr [rbp + 24]       # 8-byte Reload
	mov	r8, qword ptr [rbp - 64]        # 8-byte Reload
.Ltmp8:
	lea	rdx, [rbp + 240]
	call	"??0?$vector@U?$pair@OO@std@@V?$allocator@U?$pair@OO@std@@@2@@std@@QEAA@V?$initializer_list@U?$pair@OO@std@@@1@AEBV?$allocator@U?$pair@OO@std@@@1@@Z"
.Ltmp9:
	jmp	.LBB25_26
.LBB25_26:
	mov	dword ptr [rbp + 288], 1
	jmp	.LBB25_42
.LBB25_27:
	mov	rcx, qword ptr [rbp + 24]       # 8-byte Reload
	call	"??0?$vector@U?$pair@OO@std@@V?$allocator@U?$pair@OO@std@@@2@@std@@QEAA@XZ"
	mov	dword ptr [rbp + 288], 1
	jmp	.LBB25_42
.LBB25_28:
	lea	rcx, [rbp + 680]
	mov	qword ptr [rbp - 80], rcx       # 8-byte Spill
	lea	rdx, [rbp + 168]
	call	"?end@?$vector@OV?$allocator@O@std@@@std@@QEAA?AV?$_Vector_iterator@V?$_Vector_val@U?$_Simple_types@O@std@@@std@@@2@XZ"
	mov	rcx, qword ptr [rbp - 80]       # 8-byte Reload
	mov	rax, qword ptr [rbp + 168]
	mov	qword ptr [rbp + 176], rax
	lea	rdx, [rbp + 136]
	call	"?end@?$vector@OV?$allocator@O@std@@@std@@QEAA?AV?$_Vector_iterator@V?$_Vector_val@U?$_Simple_types@O@std@@@std@@@2@XZ"
	mov	rcx, qword ptr [rbp - 80]       # 8-byte Reload
	lea	rdx, [rbp + 128]
	call	"?begin@?$vector@OV?$allocator@O@std@@@std@@QEAA?AV?$_Vector_iterator@V?$_Vector_val@U?$_Simple_types@O@std@@@std@@@2@XZ"
	mov	rdx, qword ptr [rbp + 128]
	mov	r8, qword ptr [rbp + 136]
	mov	r9b, byte ptr [rbp + 151]
.Ltmp18:
	lea	rcx, [rbp + 152]
	call	"??$unique@V?$_Vector_iterator@V?$_Vector_val@U?$_Simple_types@O@std@@@std@@@std@@V<lambda_0>@?0??get_covered_intervals@@YA?AV?$vector@U?$pair@OO@std@@V?$allocator@U?$pair@OO@std@@@2@@2@AEBUPoint@@00O@Z@@std@@YA?AV?$_Vector_iterator@V?$_Vector_val@U?$_Simple_types@O@std@@@std@@@0@V10@0V<lambda_0>@?0??get_covered_intervals@@YA?AV?$vector@U?$pair@OO@std@@V?$allocator@U?$pair@OO@std@@@2@@0@AEBUPoint@@11O@Z@@Z"
.Ltmp19:
	jmp	.LBB25_29
.LBB25_29:
	mov	rax, qword ptr [rbp + 152]
	mov	qword ptr [rbp + 160], rax
	mov	r8, qword ptr [rbp + 160]
	mov	r9, qword ptr [rbp + 176]
	lea	rcx, [rbp + 680]
	lea	rdx, [rbp + 120]
	call	"?erase@?$vector@OV?$allocator@O@std@@@std@@QEAA?AV?$_Vector_iterator@V?$_Vector_val@U?$_Simple_types@O@std@@@std@@@2@V?$_Vector_const_iterator@V?$_Vector_val@U?$_Simple_types@O@std@@@std@@@2@0@Z"
	mov	rcx, qword ptr [rbp + 24]       # 8-byte Reload
	mov	byte ptr [rbp + 119], 0
	call	"??0?$vector@U?$pair@OO@std@@V?$allocator@U?$pair@OO@std@@@2@@std@@QEAA@XZ"
	mov	qword ptr [rbp + 104], 0
.LBB25_30:                              # =>This Inner Loop Header: Depth=1
	mov	rax, qword ptr [rbp + 104]
	add	rax, 1
	mov	qword ptr [rbp - 88], rax       # 8-byte Spill
	lea	rcx, [rbp + 680]
	call	"?size@?$vector@OV?$allocator@O@std@@@std@@QEBA_KXZ"
	mov	rcx, rax
	mov	rax, qword ptr [rbp - 88]       # 8-byte Reload
	cmp	rax, rcx
	jae	.LBB25_38
# %bb.31:                               #   in Loop: Header=BB25_30 Depth=1
	mov	rdx, qword ptr [rbp + 104]
	lea	rcx, [rbp + 680]
	call	"??A?$vector@OV?$allocator@O@std@@@std@@QEAAAEAO_K@Z"
	movsd	xmm0, qword ptr [rax]           # xmm0 = mem[0],zero
	movsd	qword ptr [rbp + 96], xmm0
	mov	rdx, qword ptr [rbp + 104]
	add	rdx, 1
	lea	rcx, [rbp + 680]
	call	"??A?$vector@OV?$allocator@O@std@@@std@@QEAAAEAO_K@Z"
	movsd	xmm0, qword ptr [rax]           # xmm0 = mem[0],zero
	movsd	qword ptr [rbp + 88], xmm0
	movsd	xmm1, qword ptr [rbp + 88]      # xmm1 = mem[0],zero
	subsd	xmm1, qword ptr [rbp + 96]
	movsd	xmm0, qword ptr [rip + __real@3e112e0be826d695] # xmm0 = [1.0000000000000001E-9,0.0E+0]
	ucomisd	xmm0, xmm1
	jbe	.LBB25_33
# %bb.32:                               #   in Loop: Header=BB25_30 Depth=1
	jmp	.LBB25_37
.LBB25_33:                              #   in Loop: Header=BB25_30 Depth=1
	movsd	xmm0, qword ptr [rbp + 96]      # xmm0 = mem[0],zero
	addsd	xmm0, qword ptr [rbp + 88]
	movsd	xmm1, qword ptr [rip + __real@4000000000000000] # xmm1 = [2.0E+0,0.0E+0]
	divsd	xmm0, xmm1
	movsd	qword ptr [rbp + 80], xmm0
	movsd	xmm3, qword ptr [rbp + 80]      # xmm3 = mem[0],zero
	mulsd	xmm3, qword ptr [rbp + 944]
	mov	r8, qword ptr [rbp + 1040]
	mov	rdx, qword ptr [rbp + 1032]
	lea	rcx, [rbp + 56]
	call	"?point_at_angle_on_great_circle@@YA?AUPoint@@AEBU1@0O@Z"
	mov	rdx, qword ptr [rbp + 1048]
	lea	rcx, [rbp + 56]
	call	"?dist_xyz@@YAOAEBUPoint@@0@Z"
	movaps	xmm1, xmm0
	movsd	xmm0, qword ptr [rip + __real@3e112e0be826d695] # xmm0 = [1.0000000000000001E-9,0.0E+0]
	addsd	xmm0, qword ptr [rbp + 1120]
	ucomisd	xmm0, xmm1
	jb	.LBB25_36
# %bb.34:                               #   in Loop: Header=BB25_30 Depth=1
	lea	rcx, [rbp + 40]
	mov	qword ptr [rbp - 96], rcx       # 8-byte Spill
	lea	rdx, [rbp + 96]
	lea	r8, [rbp + 88]
	call	"??$?0AEAOAEAO$0A@@?$pair@OO@std@@QEAA@AEAO0@Z"
	mov	rcx, qword ptr [rbp + 24]       # 8-byte Reload
	mov	rdx, qword ptr [rbp - 96]       # 8-byte Reload
.Ltmp20:
	call	"?push_back@?$vector@U?$pair@OO@std@@V?$allocator@U?$pair@OO@std@@@2@@std@@QEAAX$$QEAU?$pair@OO@2@@Z"
.Ltmp21:
	jmp	.LBB25_35
.LBB25_35:                              #   in Loop: Header=BB25_30 Depth=1
	jmp	.LBB25_36
.LBB25_36:                              #   in Loop: Header=BB25_30 Depth=1
	jmp	.LBB25_37
.LBB25_37:                              #   in Loop: Header=BB25_30 Depth=1
	mov	rax, qword ptr [rbp + 104]
	add	rax, 1
	mov	qword ptr [rbp + 104], rax
	jmp	.LBB25_30
.LBB25_38:
	mov	byte ptr [rbp + 119], 1
	mov	dword ptr [rbp + 288], 1
	test	byte ptr [rbp + 119], 1
	jne	.LBB25_40
# %bb.39:
	mov	rcx, qword ptr [rbp + 24]       # 8-byte Reload
	call	"??1?$vector@U?$pair@OO@std@@V?$allocator@U?$pair@OO@std@@@2@@std@@QEAA@XZ"
.LBB25_40:
	jmp	.LBB25_42
.LBB25_42:
	lea	rcx, [rbp + 680]
	call	"??1?$vector@OV?$allocator@O@std@@@std@@QEAA@XZ"
	jmp	.LBB25_44
.LBB25_44:
	mov	rax, qword ptr [rbp + 32]       # 8-byte Reload
	add	rsp, 1200
	pop	rbp
	ret
	.seh_handlerdata
	.long	("$cppxdata$?get_covered_intervals@@YA?AV?$vector@U?$pair@OO@std@@V?$allocator@U?$pair@OO@std@@@2@@std@@AEBUPoint@@00O@Z")@IMGREL
	.text
	.seh_endproc
	.def	"?dtor$41@?0??get_covered_intervals@@YA?AV?$vector@U?$pair@OO@std@@V?$allocator@U?$pair@OO@std@@@2@@std@@AEBUPoint@@00O@Z@4HA";
	.scl	3;
	.type	32;
	.endef
	.p2align	4, 0x90
"?dtor$41@?0??get_covered_intervals@@YA?AV?$vector@U?$pair@OO@std@@V?$allocator@U?$pair@OO@std@@@2@@std@@AEBUPoint@@00O@Z@4HA":
.seh_proc "?dtor$41@?0??get_covered_intervals@@YA?AV?$vector@U?$pair@OO@std@@V?$allocator@U?$pair@OO@std@@@2@@std@@AEBUPoint@@00O@Z@4HA"
.LBB25_41:
	mov	qword ptr [rsp + 16], rdx
	push	rbp
	.seh_pushreg rbp
	sub	rsp, 32
	.seh_stackalloc 32
	lea	rbp, [rdx + 128]
	.seh_endprologue
	mov	rcx, qword ptr [rbp + 24]       # 8-byte Reload
	call	"??1?$vector@U?$pair@OO@std@@V?$allocator@U?$pair@OO@std@@@2@@std@@QEAA@XZ"
	nop
	add	rsp, 32
	pop	rbp
	ret                                     # CLEANUPRET
	.seh_handlerdata
	.text
	.seh_endproc
	.def	"?dtor$43@?0??get_covered_intervals@@YA?AV?$vector@U?$pair@OO@std@@V?$allocator@U?$pair@OO@std@@@2@@std@@AEBUPoint@@00O@Z@4HA";
	.scl	3;
	.type	32;
	.endef
	.p2align	4, 0x90
"?dtor$43@?0??get_covered_intervals@@YA?AV?$vector@U?$pair@OO@std@@V?$allocator@U?$pair@OO@std@@@2@@std@@AEBUPoint@@00O@Z@4HA":
.seh_proc "?dtor$43@?0??get_covered_intervals@@YA?AV?$vector@U?$pair@OO@std@@V?$allocator@U?$pair@OO@std@@@2@@std@@AEBUPoint@@00O@Z@4HA"
.LBB25_43:
	mov	qword ptr [rsp + 16], rdx
	push	rbp
	.seh_pushreg rbp
	sub	rsp, 32
	.seh_stackalloc 32
	lea	rbp, [rdx + 128]
	.seh_endprologue
	lea	rcx, [rbp + 680]
	call	"??1?$vector@OV?$allocator@O@std@@@std@@QEAA@XZ"
	nop
	add	rsp, 32
	pop	rbp
	ret                                     # CLEANUPRET
.Lfunc_end1:
	.seh_handlerdata
	.text
	.seh_endproc
	.section	.xdata,"dr"
	.p2align	2, 0x0
"$cppxdata$?get_covered_intervals@@YA?AV?$vector@U?$pair@OO@std@@V?$allocator@U?$pair@OO@std@@@2@@std@@AEBUPoint@@00O@Z":
	.long	429065506                       # MagicNumber
	.long	2                               # MaxState
	.long	("$stateUnwindMap$?get_covered_intervals@@YA?AV?$vector@U?$pair@OO@std@@V?$allocator@U?$pair@OO@std@@@2@@std@@AEBUPoint@@00O@Z")@IMGREL # UnwindMap
	.long	0                               # NumTryBlocks
	.long	0                               # TryBlockMap
	.long	4                               # IPMapEntries
	.long	("$ip2state$?get_covered_intervals@@YA?AV?$vector@U?$pair@OO@std@@V?$allocator@U?$pair@OO@std@@@2@@std@@AEBUPoint@@00O@Z")@IMGREL # IPToStateXData
	.long	1192                            # UnwindHelp
	.long	0                               # ESTypeList
	.long	1                               # EHFlags
"$stateUnwindMap$?get_covered_intervals@@YA?AV?$vector@U?$pair@OO@std@@V?$allocator@U?$pair@OO@std@@@2@@std@@AEBUPoint@@00O@Z":
	.long	-1                              # ToState
	.long	"?dtor$43@?0??get_covered_intervals@@YA?AV?$vector@U?$pair@OO@std@@V?$allocator@U?$pair@OO@std@@@2@@std@@AEBUPoint@@00O@Z@4HA"@IMGREL # Action
	.long	0                               # ToState
	.long	"?dtor$41@?0??get_covered_intervals@@YA?AV?$vector@U?$pair@OO@std@@V?$allocator@U?$pair@OO@std@@@2@@std@@AEBUPoint@@00O@Z@4HA"@IMGREL # Action
"$ip2state$?get_covered_intervals@@YA?AV?$vector@U?$pair@OO@std@@V?$allocator@U?$pair@OO@std@@@2@@std@@AEBUPoint@@00O@Z":
	.long	.Lfunc_begin1@IMGREL            # IP
	.long	-1                              # ToState
	.long	.Ltmp4@IMGREL+1                 # IP
	.long	0                               # ToState
	.long	.Ltmp20@IMGREL+1                # IP
	.long	1                               # ToState
	.long	.Ltmp21@IMGREL+1                # IP
	.long	-1                              # ToState
	.text
                                        # -- End function
	.def	"??$?0NN$0A@@?$pair@OO@std@@QEAA@$$QEAN0@Z";
	.scl	2;
	.type	32;
	.endef
	.section	.text,"xr",discard,"??$?0NN$0A@@?$pair@OO@std@@QEAA@$$QEAN0@Z"
	.globl	"??$?0NN$0A@@?$pair@OO@std@@QEAA@$$QEAN0@Z" # -- Begin function ??$?0NN$0A@@?$pair@OO@std@@QEAA@$$QEAN0@Z
	.p2align	4, 0x90
"??$?0NN$0A@@?$pair@OO@std@@QEAA@$$QEAN0@Z": # @"??$?0NN$0A@@?$pair@OO@std@@QEAA@$$QEAN0@Z"
.seh_proc "??$?0NN$0A@@?$pair@OO@std@@QEAA@$$QEAN0@Z"
# %bb.0:
	sub	rsp, 24
	.seh_stackalloc 24
	.seh_endprologue
	mov	qword ptr [rsp + 16], r8
	mov	qword ptr [rsp + 8], rdx
	mov	qword ptr [rsp], rcx
	mov	rax, qword ptr [rsp]
	mov	rcx, qword ptr [rsp + 8]
	movsd	xmm0, qword ptr [rcx]           # xmm0 = mem[0],zero
	movsd	qword ptr [rax], xmm0
	mov	rcx, qword ptr [rsp + 16]
	movsd	xmm0, qword ptr [rcx]           # xmm0 = mem[0],zero
	movsd	qword ptr [rax + 8], xmm0
	add	rsp, 24
	ret
	.seh_endproc
                                        # -- End function
	.def	"??0?$allocator@U?$pair@OO@std@@@std@@QEAA@XZ";
	.scl	2;
	.type	32;
	.endef
	.section	.text,"xr",discard,"??0?$allocator@U?$pair@OO@std@@@std@@QEAA@XZ"
	.globl	"??0?$allocator@U?$pair@OO@std@@@std@@QEAA@XZ" # -- Begin function ??0?$allocator@U?$pair@OO@std@@@std@@QEAA@XZ
	.p2align	4, 0x90
"??0?$allocator@U?$pair@OO@std@@@std@@QEAA@XZ": # @"??0?$allocator@U?$pair@OO@std@@@std@@QEAA@XZ"
.seh_proc "??0?$allocator@U?$pair@OO@std@@@std@@QEAA@XZ"
# %bb.0:
	push	rax
	.seh_stackalloc 8
	.seh_endprologue
	mov	qword ptr [rsp], rcx
	mov	rax, qword ptr [rsp]
	pop	rcx
	ret
	.seh_endproc
                                        # -- End function
	.def	"??0?$vector@U?$pair@OO@std@@V?$allocator@U?$pair@OO@std@@@2@@std@@QEAA@V?$initializer_list@U?$pair@OO@std@@@1@AEBV?$allocator@U?$pair@OO@std@@@1@@Z";
	.scl	2;
	.type	32;
	.endef
	.section	.text,"xr",discard,"??0?$vector@U?$pair@OO@std@@V?$allocator@U?$pair@OO@std@@@2@@std@@QEAA@V?$initializer_list@U?$pair@OO@std@@@1@AEBV?$allocator@U?$pair@OO@std@@@1@@Z"
	.globl	"??0?$vector@U?$pair@OO@std@@V?$allocator@U?$pair@OO@std@@@2@@std@@QEAA@V?$initializer_list@U?$pair@OO@std@@@1@AEBV?$allocator@U?$pair@OO@std@@@1@@Z" # -- Begin function ??0?$vector@U?$pair@OO@std@@V?$allocator@U?$pair@OO@std@@@2@@std@@QEAA@V?$initializer_list@U?$pair@OO@std@@@1@AEBV?$allocator@U?$pair@OO@std@@@1@@Z
	.p2align	4, 0x90
"??0?$vector@U?$pair@OO@std@@V?$allocator@U?$pair@OO@std@@@2@@std@@QEAA@V?$initializer_list@U?$pair@OO@std@@@1@AEBV?$allocator@U?$pair@OO@std@@@1@@Z": # @"??0?$vector@U?$pair@OO@std@@V?$allocator@U?$pair@OO@std@@@2@@std@@QEAA@V?$initializer_list@U?$pair@OO@std@@@1@AEBV?$allocator@U?$pair@OO@std@@@1@@Z"
.seh_proc "??0?$vector@U?$pair@OO@std@@V?$allocator@U?$pair@OO@std@@@2@@std@@QEAA@V?$initializer_list@U?$pair@OO@std@@@1@AEBV?$allocator@U?$pair@OO@std@@@1@@Z"
# %bb.0:
	sub	rsp, 104
	.seh_stackalloc 104
	.seh_endprologue
	mov	qword ptr [rsp + 40], rdx       # 8-byte Spill
	mov	qword ptr [rsp + 96], r8
	mov	qword ptr [rsp + 88], rdx
	mov	qword ptr [rsp + 80], rcx
	mov	rcx, qword ptr [rsp + 80]
	mov	qword ptr [rsp + 48], rcx       # 8-byte Spill
	mov	r8, qword ptr [rsp + 96]
	mov	dl, byte ptr [rsp + 79]
	call	"??$?0AEBV?$allocator@U?$pair@OO@std@@@std@@$$V@?$_Compressed_pair@V?$allocator@U?$pair@OO@std@@@std@@V?$_Vector_val@U?$_Simple_types@U?$pair@OO@std@@@std@@@2@$00@std@@QEAA@U_One_then_variadic_args_t@1@AEBV?$allocator@U?$pair@OO@std@@@1@@Z"
	mov	rcx, qword ptr [rsp + 40]       # 8-byte Reload
	call	"?end@?$initializer_list@U?$pair@OO@std@@@std@@QEBAPEBU?$pair@OO@2@XZ"
	mov	rcx, qword ptr [rsp + 40]       # 8-byte Reload
	mov	qword ptr [rsp + 64], rax
	call	"?begin@?$initializer_list@U?$pair@OO@std@@@std@@QEBAPEBU?$pair@OO@2@XZ"
	mov	rcx, qword ptr [rsp + 40]       # 8-byte Reload
	mov	qword ptr [rsp + 56], rax
	call	"?size@?$initializer_list@U?$pair@OO@std@@@std@@QEBA_KXZ"
	mov	rcx, rax
	call	"??$_Convert_size@_K_K@std@@YA_K_K@Z"
	mov	rcx, qword ptr [rsp + 48]       # 8-byte Reload
	mov	rdx, rax
	lea	r8, [rsp + 56]
	lea	r9, [rsp + 64]
	call	"??$_Construct_n@PEBU?$pair@OO@std@@PEBU12@@?$vector@U?$pair@OO@std@@V?$allocator@U?$pair@OO@std@@@2@@std@@AEAAX_K$$QEAPEBU?$pair@OO@1@1@Z"
	mov	rax, qword ptr [rsp + 48]       # 8-byte Reload
	add	rsp, 104
	ret
	.seh_endproc
                                        # -- End function
	.def	"??0?$vector@U?$pair@OO@std@@V?$allocator@U?$pair@OO@std@@@2@@std@@QEAA@XZ";
	.scl	2;
	.type	32;
	.endef
	.section	.text,"xr",discard,"??0?$vector@U?$pair@OO@std@@V?$allocator@U?$pair@OO@std@@@2@@std@@QEAA@XZ"
	.globl	"??0?$vector@U?$pair@OO@std@@V?$allocator@U?$pair@OO@std@@@2@@std@@QEAA@XZ" # -- Begin function ??0?$vector@U?$pair@OO@std@@V?$allocator@U?$pair@OO@std@@@2@@std@@QEAA@XZ
	.p2align	4, 0x90
"??0?$vector@U?$pair@OO@std@@V?$allocator@U?$pair@OO@std@@@2@@std@@QEAA@XZ": # @"??0?$vector@U?$pair@OO@std@@V?$allocator@U?$pair@OO@std@@@2@@std@@QEAA@XZ"
.seh_proc "??0?$vector@U?$pair@OO@std@@V?$allocator@U?$pair@OO@std@@@2@@std@@QEAA@XZ"
# %bb.0:
	sub	rsp, 56
	.seh_stackalloc 56
	.seh_endprologue
	mov	qword ptr [rsp + 48], rcx
	mov	rcx, qword ptr [rsp + 48]
	mov	qword ptr [rsp + 32], rcx       # 8-byte Spill
	mov	dl, byte ptr [rsp + 47]
	call	"??$?0$$V@?$_Compressed_pair@V?$allocator@U?$pair@OO@std@@@std@@V?$_Vector_val@U?$_Simple_types@U?$pair@OO@std@@@std@@@2@$00@std@@QEAA@U_Zero_then_variadic_args_t@1@@Z"
	mov	rcx, qword ptr [rsp + 32]       # 8-byte Reload
	lea	rdx, [rip + "?_Fake_alloc@std@@3U_Fake_allocator@1@B"]
	call	"?_Alloc_proxy@_Container_base0@std@@QEAAXAEBU_Fake_allocator@2@@Z"
	mov	rax, qword ptr [rsp + 32]       # 8-byte Reload
	add	rsp, 56
	ret
	.seh_endproc
                                        # -- End function
	.def	"??0?$vector@OV?$allocator@O@std@@@std@@QEAA@XZ";
	.scl	2;
	.type	32;
	.endef
	.section	.text,"xr",discard,"??0?$vector@OV?$allocator@O@std@@@std@@QEAA@XZ"
	.globl	"??0?$vector@OV?$allocator@O@std@@@std@@QEAA@XZ" # -- Begin function ??0?$vector@OV?$allocator@O@std@@@std@@QEAA@XZ
	.p2align	4, 0x90
"??0?$vector@OV?$allocator@O@std@@@std@@QEAA@XZ": # @"??0?$vector@OV?$allocator@O@std@@@std@@QEAA@XZ"
.seh_proc "??0?$vector@OV?$allocator@O@std@@@std@@QEAA@XZ"
# %bb.0:
	sub	rsp, 56
	.seh_stackalloc 56
	.seh_endprologue
	mov	qword ptr [rsp + 48], rcx
	mov	rcx, qword ptr [rsp + 48]
	mov	qword ptr [rsp + 32], rcx       # 8-byte Spill
	mov	dl, byte ptr [rsp + 47]
	call	"??$?0$$V@?$_Compressed_pair@V?$allocator@O@std@@V?$_Vector_val@U?$_Simple_types@O@std@@@2@$00@std@@QEAA@U_Zero_then_variadic_args_t@1@@Z"
	mov	rcx, qword ptr [rsp + 32]       # 8-byte Reload
	lea	rdx, [rip + "?_Fake_alloc@std@@3U_Fake_allocator@1@B"]
	call	"?_Alloc_proxy@_Container_base0@std@@QEAAXAEBU_Fake_allocator@2@@Z"
	mov	rax, qword ptr [rsp + 32]       # 8-byte Reload
	add	rsp, 56
	ret
	.seh_endproc
                                        # -- End function
	.def	"?push_back@?$vector@OV?$allocator@O@std@@@std@@QEAAX$$QEAO@Z";
	.scl	2;
	.type	32;
	.endef
	.section	.text,"xr",discard,"?push_back@?$vector@OV?$allocator@O@std@@@std@@QEAAX$$QEAO@Z"
	.globl	"?push_back@?$vector@OV?$allocator@O@std@@@std@@QEAAX$$QEAO@Z" # -- Begin function ?push_back@?$vector@OV?$allocator@O@std@@@std@@QEAAX$$QEAO@Z
	.p2align	4, 0x90
"?push_back@?$vector@OV?$allocator@O@std@@@std@@QEAAX$$QEAO@Z": # @"?push_back@?$vector@OV?$allocator@O@std@@@std@@QEAAX$$QEAO@Z"
.seh_proc "?push_back@?$vector@OV?$allocator@O@std@@@std@@QEAAX$$QEAO@Z"
# %bb.0:
	sub	rsp, 56
	.seh_stackalloc 56
	.seh_endprologue
	mov	qword ptr [rsp + 48], rdx
	mov	qword ptr [rsp + 40], rcx
	mov	rcx, qword ptr [rsp + 40]
	mov	rdx, qword ptr [rsp + 48]
	call	"??$_Emplace_one_at_back@O@?$vector@OV?$allocator@O@std@@@std@@AEAAAEAO$$QEAO@Z"
	nop
	add	rsp, 56
	ret
	.seh_endproc
                                        # -- End function
	.def	"??$sort@V?$_Vector_iterator@V?$_Vector_val@U?$_Simple_types@O@std@@@std@@@std@@@std@@YAXV?$_Vector_iterator@V?$_Vector_val@U?$_Simple_types@O@std@@@std@@@0@0@Z";
	.scl	2;
	.type	32;
	.endef
	.section	.text,"xr",discard,"??$sort@V?$_Vector_iterator@V?$_Vector_val@U?$_Simple_types@O@std@@@std@@@std@@@std@@YAXV?$_Vector_iterator@V?$_Vector_val@U?$_Simple_types@O@std@@@std@@@0@0@Z"
	.globl	"??$sort@V?$_Vector_iterator@V?$_Vector_val@U?$_Simple_types@O@std@@@std@@@std@@@std@@YAXV?$_Vector_iterator@V?$_Vector_val@U?$_Simple_types@O@std@@@std@@@0@0@Z" # -- Begin function ??$sort@V?$_Vector_iterator@V?$_Vector_val@U?$_Simple_types@O@std@@@std@@@std@@@std@@YAXV?$_Vector_iterator@V?$_Vector_val@U?$_Simple_types@O@std@@@std@@@0@0@Z
	.p2align	4, 0x90
"??$sort@V?$_Vector_iterator@V?$_Vector_val@U?$_Simple_types@O@std@@@std@@@std@@@std@@YAXV?$_Vector_iterator@V?$_Vector_val@U?$_Simple_types@O@std@@@std@@@0@0@Z": # @"??$sort@V?$_Vector_iterator@V?$_Vector_val@U?$_Simple_types@O@std@@@std@@@std@@@std@@YAXV?$_Vector_iterator@V?$_Vector_val@U?$_Simple_types@O@std@@@std@@@0@0@Z"
.seh_proc "??$sort@V?$_Vector_iterator@V?$_Vector_val@U?$_Simple_types@O@std@@@std@@@std@@@std@@YAXV?$_Vector_iterator@V?$_Vector_val@U?$_Simple_types@O@std@@@std@@@0@0@Z"
# %bb.0:
	sub	rsp, 72
	.seh_stackalloc 72
	.seh_endprologue
	mov	qword ptr [rsp + 64], rcx
	mov	qword ptr [rsp + 56], rdx
	mov	rax, qword ptr [rsp + 56]
	mov	qword ptr [rsp + 40], rax
	mov	rax, qword ptr [rsp + 64]
	mov	qword ptr [rsp + 32], rax
	mov	rcx, qword ptr [rsp + 32]
	mov	rdx, qword ptr [rsp + 40]
	mov	r8b, byte ptr [rsp + 55]
	call	"??$sort@V?$_Vector_iterator@V?$_Vector_val@U?$_Simple_types@O@std@@@std@@@std@@U?$less@X@2@@std@@YAXV?$_Vector_iterator@V?$_Vector_val@U?$_Simple_types@O@std@@@std@@@0@0U?$less@X@0@@Z"
	nop
	add	rsp, 72
	ret
	.seh_endproc
                                        # -- End function
	.def	"?end@?$vector@OV?$allocator@O@std@@@std@@QEAA?AV?$_Vector_iterator@V?$_Vector_val@U?$_Simple_types@O@std@@@std@@@2@XZ";
	.scl	2;
	.type	32;
	.endef
	.section	.text,"xr",discard,"?end@?$vector@OV?$allocator@O@std@@@std@@QEAA?AV?$_Vector_iterator@V?$_Vector_val@U?$_Simple_types@O@std@@@std@@@2@XZ"
	.globl	"?end@?$vector@OV?$allocator@O@std@@@std@@QEAA?AV?$_Vector_iterator@V?$_Vector_val@U?$_Simple_types@O@std@@@std@@@2@XZ" # -- Begin function ?end@?$vector@OV?$allocator@O@std@@@std@@QEAA?AV?$_Vector_iterator@V?$_Vector_val@U?$_Simple_types@O@std@@@std@@@2@XZ
	.p2align	4, 0x90
"?end@?$vector@OV?$allocator@O@std@@@std@@QEAA?AV?$_Vector_iterator@V?$_Vector_val@U?$_Simple_types@O@std@@@std@@@2@XZ": # @"?end@?$vector@OV?$allocator@O@std@@@std@@QEAA?AV?$_Vector_iterator@V?$_Vector_val@U?$_Simple_types@O@std@@@std@@@2@XZ"
.seh_proc "?end@?$vector@OV?$allocator@O@std@@@std@@QEAA?AV?$_Vector_iterator@V?$_Vector_val@U?$_Simple_types@O@std@@@std@@@2@XZ"
# %bb.0:
	sub	rsp, 72
	.seh_stackalloc 72
	.seh_endprologue
	mov	qword ptr [rsp + 32], rdx       # 8-byte Spill
	mov	rax, rcx
	mov	rcx, qword ptr [rsp + 32]       # 8-byte Reload
	mov	rdx, rcx
	mov	qword ptr [rsp + 40], rdx       # 8-byte Spill
	mov	qword ptr [rsp + 64], rcx
	mov	qword ptr [rsp + 56], rax
	mov	rax, qword ptr [rsp + 56]
	mov	qword ptr [rsp + 48], rax
	mov	r8, qword ptr [rsp + 48]
	mov	rax, qword ptr [rsp + 48]
	mov	rdx, qword ptr [rax + 8]
	call	"??0?$_Vector_iterator@V?$_Vector_val@U?$_Simple_types@O@std@@@std@@@std@@QEAA@PEAOPEBU_Container_base0@1@@Z"
                                        # kill: def $rcx killed $rax
	mov	rax, qword ptr [rsp + 40]       # 8-byte Reload
	add	rsp, 72
	ret
	.seh_endproc
                                        # -- End function
	.def	"?begin@?$vector@OV?$allocator@O@std@@@std@@QEAA?AV?$_Vector_iterator@V?$_Vector_val@U?$_Simple_types@O@std@@@std@@@2@XZ";
	.scl	2;
	.type	32;
	.endef
	.section	.text,"xr",discard,"?begin@?$vector@OV?$allocator@O@std@@@std@@QEAA?AV?$_Vector_iterator@V?$_Vector_val@U?$_Simple_types@O@std@@@std@@@2@XZ"
	.globl	"?begin@?$vector@OV?$allocator@O@std@@@std@@QEAA?AV?$_Vector_iterator@V?$_Vector_val@U?$_Simple_types@O@std@@@std@@@2@XZ" # -- Begin function ?begin@?$vector@OV?$allocator@O@std@@@std@@QEAA?AV?$_Vector_iterator@V?$_Vector_val@U?$_Simple_types@O@std@@@std@@@2@XZ
	.p2align	4, 0x90
"?begin@?$vector@OV?$allocator@O@std@@@std@@QEAA?AV?$_Vector_iterator@V?$_Vector_val@U?$_Simple_types@O@std@@@std@@@2@XZ": # @"?begin@?$vector@OV?$allocator@O@std@@@std@@QEAA?AV?$_Vector_iterator@V?$_Vector_val@U?$_Simple_types@O@std@@@std@@@2@XZ"
.seh_proc "?begin@?$vector@OV?$allocator@O@std@@@std@@QEAA?AV?$_Vector_iterator@V?$_Vector_val@U?$_Simple_types@O@std@@@std@@@2@XZ"
# %bb.0:
	sub	rsp, 72
	.seh_stackalloc 72
	.seh_endprologue
	mov	qword ptr [rsp + 32], rdx       # 8-byte Spill
	mov	rax, rcx
	mov	rcx, qword ptr [rsp + 32]       # 8-byte Reload
	mov	rdx, rcx
	mov	qword ptr [rsp + 40], rdx       # 8-byte Spill
	mov	qword ptr [rsp + 64], rcx
	mov	qword ptr [rsp + 56], rax
	mov	rax, qword ptr [rsp + 56]
	mov	qword ptr [rsp + 48], rax
	mov	r8, qword ptr [rsp + 48]
	mov	rax, qword ptr [rsp + 48]
	mov	rdx, qword ptr [rax]
	call	"??0?$_Vector_iterator@V?$_Vector_val@U?$_Simple_types@O@std@@@std@@@std@@QEAA@PEAOPEBU_Container_base0@1@@Z"
                                        # kill: def $rcx killed $rax
	mov	rax, qword ptr [rsp + 40]       # 8-byte Reload
	add	rsp, 72
	ret
	.seh_endproc
                                        # -- End function
	.def	"?erase@?$vector@OV?$allocator@O@std@@@std@@QEAA?AV?$_Vector_iterator@V?$_Vector_val@U?$_Simple_types@O@std@@@std@@@2@V?$_Vector_const_iterator@V?$_Vector_val@U?$_Simple_types@O@std@@@std@@@2@0@Z";
	.scl	2;
	.type	32;
	.endef
	.section	.text,"xr",discard,"?erase@?$vector@OV?$allocator@O@std@@@std@@QEAA?AV?$_Vector_iterator@V?$_Vector_val@U?$_Simple_types@O@std@@@std@@@2@V?$_Vector_const_iterator@V?$_Vector_val@U?$_Simple_types@O@std@@@std@@@2@0@Z"
	.globl	"?erase@?$vector@OV?$allocator@O@std@@@std@@QEAA?AV?$_Vector_iterator@V?$_Vector_val@U?$_Simple_types@O@std@@@std@@@2@V?$_Vector_const_iterator@V?$_Vector_val@U?$_Simple_types@O@std@@@std@@@2@0@Z" # -- Begin function ?erase@?$vector@OV?$allocator@O@std@@@std@@QEAA?AV?$_Vector_iterator@V?$_Vector_val@U?$_Simple_types@O@std@@@std@@@2@V?$_Vector_const_iterator@V?$_Vector_val@U?$_Simple_types@O@std@@@std@@@2@0@Z
	.p2align	4, 0x90
"?erase@?$vector@OV?$allocator@O@std@@@std@@QEAA?AV?$_Vector_iterator@V?$_Vector_val@U?$_Simple_types@O@std@@@std@@@2@V?$_Vector_const_iterator@V?$_Vector_val@U?$_Simple_types@O@std@@@std@@@2@0@Z": # @"?erase@?$vector@OV?$allocator@O@std@@@std@@QEAA?AV?$_Vector_iterator@V?$_Vector_val@U?$_Simple_types@O@std@@@std@@@2@V?$_Vector_const_iterator@V?$_Vector_val@U?$_Simple_types@O@std@@@std@@@2@0@Z"
.seh_proc "?erase@?$vector@OV?$allocator@O@std@@@std@@QEAA?AV?$_Vector_iterator@V?$_Vector_val@U?$_Simple_types@O@std@@@std@@@2@V?$_Vector_const_iterator@V?$_Vector_val@U?$_Simple_types@O@std@@@std@@@2@0@Z"
# %bb.0:
	sub	rsp, 136
	.seh_stackalloc 136
	.seh_endprologue
	mov	qword ptr [rsp + 40], rdx       # 8-byte Spill
	mov	rax, rdx
	mov	qword ptr [rsp + 48], rax       # 8-byte Spill
	mov	qword ptr [rsp + 128], rdx
	mov	qword ptr [rsp + 120], r8
	mov	qword ptr [rsp + 112], r9
	mov	qword ptr [rsp + 104], rcx
	mov	rax, qword ptr [rsp + 104]
	mov	qword ptr [rsp + 56], rax       # 8-byte Spill
	mov	rcx, qword ptr [rsp + 120]
	mov	qword ptr [rsp + 96], rcx
	mov	rcx, qword ptr [rsp + 112]
	mov	qword ptr [rsp + 88], rcx
	mov	qword ptr [rsp + 80], rax
	mov	rax, qword ptr [rsp + 80]
	add	rax, 8
	mov	qword ptr [rsp + 72], rax
	mov	rax, qword ptr [rsp + 96]
	cmp	rax, qword ptr [rsp + 88]
	je	.LBB35_2
# %bb.1:
	mov	rcx, qword ptr [rsp + 56]       # 8-byte Reload
	mov	rax, qword ptr [rsp + 72]
	mov	r8, qword ptr [rax]
	mov	rdx, qword ptr [rsp + 96]
	call	"?_Orphan_range@?$vector@OV?$allocator@O@std@@@std@@AEBAXPEAO0@Z"
	mov	r8, qword ptr [rsp + 96]
	mov	rax, qword ptr [rsp + 72]
	mov	rdx, qword ptr [rax]
	mov	rcx, qword ptr [rsp + 88]
	call	"??$_Move_unchecked@PEAOPEAO@std@@YAPEAOPEAO00@Z"
	mov	rcx, qword ptr [rsp + 56]       # 8-byte Reload
	mov	qword ptr [rsp + 64], rax
	call	"?_Getal@?$vector@OV?$allocator@O@std@@@std@@AEAAAEAV?$allocator@O@2@XZ"
	mov	r8, rax
	mov	rax, qword ptr [rsp + 72]
	mov	rdx, qword ptr [rax]
	mov	rcx, qword ptr [rsp + 64]
	call	"??$_Destroy_range@V?$allocator@O@std@@@std@@YAXPEAOQEAOAEAV?$allocator@O@0@@Z"
	mov	rcx, qword ptr [rsp + 64]
	mov	rax, qword ptr [rsp + 72]
	mov	qword ptr [rax], rcx
.LBB35_2:
	mov	rcx, qword ptr [rsp + 40]       # 8-byte Reload
	mov	r8, qword ptr [rsp + 80]
	mov	rdx, qword ptr [rsp + 96]
	call	"??0?$_Vector_iterator@V?$_Vector_val@U?$_Simple_types@O@std@@@std@@@std@@QEAA@PEAOPEBU_Container_base0@1@@Z"
                                        # kill: def $rcx killed $rax
	mov	rax, qword ptr [rsp + 48]       # 8-byte Reload
	add	rsp, 136
	ret
	.seh_endproc
                                        # -- End function
	.def	"??$unique@V?$_Vector_iterator@V?$_Vector_val@U?$_Simple_types@O@std@@@std@@@std@@V<lambda_0>@?0??get_covered_intervals@@YA?AV?$vector@U?$pair@OO@std@@V?$allocator@U?$pair@OO@std@@@2@@2@AEBUPoint@@00O@Z@@std@@YA?AV?$_Vector_iterator@V?$_Vector_val@U?$_Simple_types@O@std@@@std@@@0@V10@0V<lambda_0>@?0??get_covered_intervals@@YA?AV?$vector@U?$pair@OO@std@@V?$allocator@U?$pair@OO@std@@@2@@0@AEBUPoint@@11O@Z@@Z";
	.scl	3;
	.type	32;
	.endef
	.text
	.p2align	4, 0x90                         # -- Begin function ??$unique@V?$_Vector_iterator@V?$_Vector_val@U?$_Simple_types@O@std@@@std@@@std@@V<lambda_0>@?0??get_covered_intervals@@YA?AV?$vector@U?$pair@OO@std@@V?$allocator@U?$pair@OO@std@@@2@@2@AEBUPoint@@00O@Z@@std@@YA?AV?$_Vector_iterator@V?$_Vector_val@U?$_Simple_types@O@std@@@std@@@0@V10@0V<lambda_0>@?0??get_covered_intervals@@YA?AV?$vector@U?$pair@OO@std@@V?$allocator@U?$pair@OO@std@@@2@@0@AEBUPoint@@11O@Z@@Z
"??$unique@V?$_Vector_iterator@V?$_Vector_val@U?$_Simple_types@O@std@@@std@@@std@@V<lambda_0>@?0??get_covered_intervals@@YA?AV?$vector@U?$pair@OO@std@@V?$allocator@U?$pair@OO@std@@@2@@2@AEBUPoint@@00O@Z@@std@@YA?AV?$_Vector_iterator@V?$_Vector_val@U?$_Simple_types@O@std@@@std@@@0@V10@0V<lambda_0>@?0??get_covered_intervals@@YA?AV?$vector@U?$pair@OO@std@@V?$allocator@U?$pair@OO@std@@@2@@0@AEBUPoint@@11O@Z@@Z": # @"??$unique@V?$_Vector_iterator@V?$_Vector_val@U?$_Simple_types@O@std@@@std@@@std@@V<lambda_0>@?0??get_covered_intervals@@YA?AV?$vector@U?$pair@OO@std@@V?$allocator@U?$pair@OO@std@@@2@@2@AEBUPoint@@00O@Z@@std@@YA?AV?$_Vector_iterator@V?$_Vector_val@U?$_Simple_types@O@std@@@std@@@0@V10@0V<lambda_0>@?0??get_covered_intervals@@YA?AV?$vector@U?$pair@OO@std@@V?$allocator@U?$pair@OO@std@@@2@@0@AEBUPoint@@11O@Z@@Z"
.seh_proc "??$unique@V?$_Vector_iterator@V?$_Vector_val@U?$_Simple_types@O@std@@@std@@@std@@V<lambda_0>@?0??get_covered_intervals@@YA?AV?$vector@U?$pair@OO@std@@V?$allocator@U?$pair@OO@std@@@2@@2@AEBUPoint@@00O@Z@@std@@YA?AV?$_Vector_iterator@V?$_Vector_val@U?$_Simple_types@O@std@@@std@@@0@V10@0V<lambda_0>@?0??get_covered_intervals@@YA?AV?$vector@U?$pair@OO@std@@V?$allocator@U?$pair@OO@std@@@2@@0@AEBUPoint@@11O@Z@@Z"
# %bb.0:
	sub	rsp, 104
	.seh_stackalloc 104
	.seh_endprologue
	mov	qword ptr [rsp + 32], rcx       # 8-byte Spill
	mov	rax, rcx
	mov	qword ptr [rsp + 40], rax       # 8-byte Spill
	mov	qword ptr [rsp + 96], rcx
	mov	qword ptr [rsp + 88], rdx
	mov	qword ptr [rsp + 80], r8
	mov	byte ptr [rsp + 79], r9b
	lea	rcx, [rsp + 88]
	lea	rdx, [rsp + 80]
	call	"??$_Adl_verify_range@V?$_Vector_iterator@V?$_Vector_val@U?$_Simple_types@O@std@@@std@@@std@@V12@@std@@YAXAEBV?$_Vector_iterator@V?$_Vector_val@U?$_Simple_types@O@std@@@std@@@0@0@Z"
	lea	rcx, [rsp + 88]
	call	"??$_Get_unwrapped@AEAV?$_Vector_iterator@V?$_Vector_val@U?$_Simple_types@O@std@@@std@@@std@@@std@@YA?A?<decltype-auto>@@AEAV?$_Vector_iterator@V?$_Vector_val@U?$_Simple_types@O@std@@@std@@@0@@Z"
	mov	qword ptr [rsp + 64], rax
	lea	rcx, [rsp + 80]
	call	"??$_Get_unwrapped@AEAV?$_Vector_iterator@V?$_Vector_val@U?$_Simple_types@O@std@@@std@@@std@@@std@@YA?A?<decltype-auto>@@AEAV?$_Vector_iterator@V?$_Vector_val@U?$_Simple_types@O@std@@@std@@@0@@Z"
	mov	qword ptr [rsp + 56], rax
	mov	rax, qword ptr [rsp + 64]
	cmp	rax, qword ptr [rsp + 56]
	je	.LBB36_13
# %bb.1:
	mov	rax, qword ptr [rsp + 64]
	mov	qword ptr [rsp + 48], rax
.LBB36_2:                               # =>This Inner Loop Header: Depth=1
	mov	rax, qword ptr [rsp + 64]
	add	rax, 8
	mov	qword ptr [rsp + 64], rax
	cmp	rax, qword ptr [rsp + 56]
	je	.LBB36_12
# %bb.3:                                #   in Loop: Header=BB36_2 Depth=1
	mov	rax, qword ptr [rsp + 64]
	movsd	xmm2, qword ptr [rax]           # xmm2 = mem[0],zero
	mov	rax, qword ptr [rsp + 48]
	movsd	xmm1, qword ptr [rax]           # xmm1 = mem[0],zero
	lea	rcx, [rsp + 79]
	call	"??R<lambda_0>@?0??get_covered_intervals@@YA?AV?$vector@U?$pair@OO@std@@V?$allocator@U?$pair@OO@std@@@2@@std@@AEBUPoint@@00O@Z@QEBA?A?<auto>@@OO@Z"
	test	al, 1
	jne	.LBB36_4
	jmp	.LBB36_10
.LBB36_4:
	jmp	.LBB36_5
.LBB36_5:                               # =>This Inner Loop Header: Depth=1
	mov	rax, qword ptr [rsp + 64]
	add	rax, 8
	mov	qword ptr [rsp + 64], rax
	cmp	rax, qword ptr [rsp + 56]
	je	.LBB36_9
# %bb.6:                                #   in Loop: Header=BB36_5 Depth=1
	mov	rax, qword ptr [rsp + 64]
	movsd	xmm2, qword ptr [rax]           # xmm2 = mem[0],zero
	mov	rax, qword ptr [rsp + 48]
	movsd	xmm1, qword ptr [rax]           # xmm1 = mem[0],zero
	lea	rcx, [rsp + 79]
	call	"??R<lambda_0>@?0??get_covered_intervals@@YA?AV?$vector@U?$pair@OO@std@@V?$allocator@U?$pair@OO@std@@@2@@std@@AEBUPoint@@00O@Z@QEBA?A?<auto>@@OO@Z"
	test	al, 1
	jne	.LBB36_8
# %bb.7:                                #   in Loop: Header=BB36_5 Depth=1
	mov	rax, qword ptr [rsp + 64]
	movsd	xmm0, qword ptr [rax]           # xmm0 = mem[0],zero
	mov	rax, qword ptr [rsp + 48]
	mov	rcx, rax
	add	rcx, 8
	mov	qword ptr [rsp + 48], rcx
	movsd	qword ptr [rax + 8], xmm0
.LBB36_8:                               #   in Loop: Header=BB36_5 Depth=1
	jmp	.LBB36_5
.LBB36_9:
	mov	rax, qword ptr [rsp + 48]
	add	rax, 8
	mov	qword ptr [rsp + 48], rax
	lea	rcx, [rsp + 80]
	lea	rdx, [rsp + 48]
	call	"??$_Seek_wrapped@V?$_Vector_iterator@V?$_Vector_val@U?$_Simple_types@O@std@@@std@@@std@@AEAPEAO@std@@YAXAEAV?$_Vector_iterator@V?$_Vector_val@U?$_Simple_types@O@std@@@std@@@0@AEAPEAO@Z"
	mov	rax, qword ptr [rsp + 32]       # 8-byte Reload
	mov	rcx, qword ptr [rsp + 80]
	mov	qword ptr [rax], rcx
	jmp	.LBB36_14
.LBB36_10:                              #   in Loop: Header=BB36_2 Depth=1
	jmp	.LBB36_11
.LBB36_11:                              #   in Loop: Header=BB36_2 Depth=1
	mov	rax, qword ptr [rsp + 64]
	mov	qword ptr [rsp + 48], rax
	jmp	.LBB36_2
.LBB36_12:
	jmp	.LBB36_13
.LBB36_13:
	lea	rcx, [rsp + 80]
	lea	rdx, [rsp + 56]
	call	"??$_Seek_wrapped@V?$_Vector_iterator@V?$_Vector_val@U?$_Simple_types@O@std@@@std@@@std@@AEBQEAO@std@@YAXAEAV?$_Vector_iterator@V?$_Vector_val@U?$_Simple_types@O@std@@@std@@@0@AEBQEAO@Z"
	mov	rax, qword ptr [rsp + 32]       # 8-byte Reload
	mov	rcx, qword ptr [rsp + 80]
	mov	qword ptr [rax], rcx
.LBB36_14:
	mov	rax, qword ptr [rsp + 40]       # 8-byte Reload
	add	rsp, 104
	ret
	.seh_endproc
                                        # -- End function
	.def	"?size@?$vector@OV?$allocator@O@std@@@std@@QEBA_KXZ";
	.scl	2;
	.type	32;
	.endef
	.section	.text,"xr",discard,"?size@?$vector@OV?$allocator@O@std@@@std@@QEBA_KXZ"
	.globl	"?size@?$vector@OV?$allocator@O@std@@@std@@QEBA_KXZ" # -- Begin function ?size@?$vector@OV?$allocator@O@std@@@std@@QEBA_KXZ
	.p2align	4, 0x90
"?size@?$vector@OV?$allocator@O@std@@@std@@QEBA_KXZ": # @"?size@?$vector@OV?$allocator@O@std@@@std@@QEBA_KXZ"
.seh_proc "?size@?$vector@OV?$allocator@O@std@@@std@@QEBA_KXZ"
# %bb.0:
	sub	rsp, 16
	.seh_stackalloc 16
	.seh_endprologue
	mov	qword ptr [rsp + 8], rcx
	mov	rax, qword ptr [rsp + 8]
	mov	qword ptr [rsp], rax
	mov	rax, qword ptr [rsp]
	mov	rax, qword ptr [rax + 8]
	mov	rcx, qword ptr [rsp]
	mov	rcx, qword ptr [rcx]
	sub	rax, rcx
	sar	rax, 3
	add	rsp, 16
	ret
	.seh_endproc
                                        # -- End function
	.def	"??A?$vector@OV?$allocator@O@std@@@std@@QEAAAEAO_K@Z";
	.scl	2;
	.type	32;
	.endef
	.section	.text,"xr",discard,"??A?$vector@OV?$allocator@O@std@@@std@@QEAAAEAO_K@Z"
	.globl	"??A?$vector@OV?$allocator@O@std@@@std@@QEAAAEAO_K@Z" # -- Begin function ??A?$vector@OV?$allocator@O@std@@@std@@QEAAAEAO_K@Z
	.p2align	4, 0x90
"??A?$vector@OV?$allocator@O@std@@@std@@QEAAAEAO_K@Z": # @"??A?$vector@OV?$allocator@O@std@@@std@@QEAAAEAO_K@Z"
.seh_proc "??A?$vector@OV?$allocator@O@std@@@std@@QEAAAEAO_K@Z"
# %bb.0:
	sub	rsp, 24
	.seh_stackalloc 24
	.seh_endprologue
	mov	qword ptr [rsp + 16], rdx
	mov	qword ptr [rsp + 8], rcx
	mov	rax, qword ptr [rsp + 8]
	mov	qword ptr [rsp], rax
	mov	rax, qword ptr [rsp]
	mov	rax, qword ptr [rax]
	mov	rcx, qword ptr [rsp + 16]
	shl	rcx, 3
	add	rax, rcx
	add	rsp, 24
	ret
	.seh_endproc
                                        # -- End function
	.def	"?push_back@?$vector@U?$pair@OO@std@@V?$allocator@U?$pair@OO@std@@@2@@std@@QEAAX$$QEAU?$pair@OO@2@@Z";
	.scl	2;
	.type	32;
	.endef
	.section	.text,"xr",discard,"?push_back@?$vector@U?$pair@OO@std@@V?$allocator@U?$pair@OO@std@@@2@@std@@QEAAX$$QEAU?$pair@OO@2@@Z"
	.globl	"?push_back@?$vector@U?$pair@OO@std@@V?$allocator@U?$pair@OO@std@@@2@@std@@QEAAX$$QEAU?$pair@OO@2@@Z" # -- Begin function ?push_back@?$vector@U?$pair@OO@std@@V?$allocator@U?$pair@OO@std@@@2@@std@@QEAAX$$QEAU?$pair@OO@2@@Z
	.p2align	4, 0x90
"?push_back@?$vector@U?$pair@OO@std@@V?$allocator@U?$pair@OO@std@@@2@@std@@QEAAX$$QEAU?$pair@OO@2@@Z": # @"?push_back@?$vector@U?$pair@OO@std@@V?$allocator@U?$pair@OO@std@@@2@@std@@QEAAX$$QEAU?$pair@OO@2@@Z"
.seh_proc "?push_back@?$vector@U?$pair@OO@std@@V?$allocator@U?$pair@OO@std@@@2@@std@@QEAAX$$QEAU?$pair@OO@2@@Z"
# %bb.0:
	sub	rsp, 56
	.seh_stackalloc 56
	.seh_endprologue
	mov	qword ptr [rsp + 48], rdx
	mov	qword ptr [rsp + 40], rcx
	mov	rcx, qword ptr [rsp + 40]
	mov	rdx, qword ptr [rsp + 48]
	call	"??$_Emplace_one_at_back@U?$pair@OO@std@@@?$vector@U?$pair@OO@std@@V?$allocator@U?$pair@OO@std@@@2@@std@@AEAAAEAU?$pair@OO@1@$$QEAU21@@Z"
	nop
	add	rsp, 56
	ret
	.seh_endproc
                                        # -- End function
	.def	"??$?0AEAOAEAO$0A@@?$pair@OO@std@@QEAA@AEAO0@Z";
	.scl	2;
	.type	32;
	.endef
	.section	.text,"xr",discard,"??$?0AEAOAEAO$0A@@?$pair@OO@std@@QEAA@AEAO0@Z"
	.globl	"??$?0AEAOAEAO$0A@@?$pair@OO@std@@QEAA@AEAO0@Z" # -- Begin function ??$?0AEAOAEAO$0A@@?$pair@OO@std@@QEAA@AEAO0@Z
	.p2align	4, 0x90
"??$?0AEAOAEAO$0A@@?$pair@OO@std@@QEAA@AEAO0@Z": # @"??$?0AEAOAEAO$0A@@?$pair@OO@std@@QEAA@AEAO0@Z"
.seh_proc "??$?0AEAOAEAO$0A@@?$pair@OO@std@@QEAA@AEAO0@Z"
# %bb.0:
	sub	rsp, 24
	.seh_stackalloc 24
	.seh_endprologue
	mov	qword ptr [rsp + 16], r8
	mov	qword ptr [rsp + 8], rdx
	mov	qword ptr [rsp], rcx
	mov	rax, qword ptr [rsp]
	mov	rcx, qword ptr [rsp + 8]
	movsd	xmm0, qword ptr [rcx]           # xmm0 = mem[0],zero
	movsd	qword ptr [rax], xmm0
	mov	rcx, qword ptr [rsp + 16]
	movsd	xmm0, qword ptr [rcx]           # xmm0 = mem[0],zero
	movsd	qword ptr [rax + 8], xmm0
	add	rsp, 24
	ret
	.seh_endproc
                                        # -- End function
	.def	"??1?$vector@U?$pair@OO@std@@V?$allocator@U?$pair@OO@std@@@2@@std@@QEAA@XZ";
	.scl	2;
	.type	32;
	.endef
	.section	.text,"xr",discard,"??1?$vector@U?$pair@OO@std@@V?$allocator@U?$pair@OO@std@@@2@@std@@QEAA@XZ"
	.globl	"??1?$vector@U?$pair@OO@std@@V?$allocator@U?$pair@OO@std@@@2@@std@@QEAA@XZ" # -- Begin function ??1?$vector@U?$pair@OO@std@@V?$allocator@U?$pair@OO@std@@@2@@std@@QEAA@XZ
	.p2align	4, 0x90
"??1?$vector@U?$pair@OO@std@@V?$allocator@U?$pair@OO@std@@@2@@std@@QEAA@XZ": # @"??1?$vector@U?$pair@OO@std@@V?$allocator@U?$pair@OO@std@@@2@@std@@QEAA@XZ"
.seh_proc "??1?$vector@U?$pair@OO@std@@V?$allocator@U?$pair@OO@std@@@2@@std@@QEAA@XZ"
# %bb.0:
	sub	rsp, 40
	.seh_stackalloc 40
	.seh_endprologue
	mov	qword ptr [rsp + 32], rcx
	mov	rcx, qword ptr [rsp + 32]
	call	"?_Tidy@?$vector@U?$pair@OO@std@@V?$allocator@U?$pair@OO@std@@@2@@std@@AEAAXXZ"
	nop
	add	rsp, 40
	ret
	.seh_endproc
                                        # -- End function
	.def	"??1?$vector@OV?$allocator@O@std@@@std@@QEAA@XZ";
	.scl	2;
	.type	32;
	.endef
	.section	.text,"xr",discard,"??1?$vector@OV?$allocator@O@std@@@std@@QEAA@XZ"
	.globl	"??1?$vector@OV?$allocator@O@std@@@std@@QEAA@XZ" # -- Begin function ??1?$vector@OV?$allocator@O@std@@@std@@QEAA@XZ
	.p2align	4, 0x90
"??1?$vector@OV?$allocator@O@std@@@std@@QEAA@XZ": # @"??1?$vector@OV?$allocator@O@std@@@std@@QEAA@XZ"
.seh_proc "??1?$vector@OV?$allocator@O@std@@@std@@QEAA@XZ"
# %bb.0:
	sub	rsp, 40
	.seh_stackalloc 40
	.seh_endprologue
	mov	qword ptr [rsp + 32], rcx
	mov	rcx, qword ptr [rsp + 32]
	call	"?_Tidy@?$vector@OV?$allocator@O@std@@@std@@AEAAXXZ"
	nop
	add	rsp, 40
	ret
	.seh_endproc
                                        # -- End function
	.def	"?merge_intervals@@YA?AV?$vector@U?$pair@OO@std@@V?$allocator@U?$pair@OO@std@@@2@@std@@AEAV12@@Z";
	.scl	2;
	.type	32;
	.endef
	.text
	.globl	"?merge_intervals@@YA?AV?$vector@U?$pair@OO@std@@V?$allocator@U?$pair@OO@std@@@2@@std@@AEAV12@@Z" # -- Begin function ?merge_intervals@@YA?AV?$vector@U?$pair@OO@std@@V?$allocator@U?$pair@OO@std@@@2@@std@@AEAV12@@Z
	.p2align	4, 0x90
"?merge_intervals@@YA?AV?$vector@U?$pair@OO@std@@V?$allocator@U?$pair@OO@std@@@2@@std@@AEAV12@@Z": # @"?merge_intervals@@YA?AV?$vector@U?$pair@OO@std@@V?$allocator@U?$pair@OO@std@@@2@@std@@AEAV12@@Z"
.Lfunc_begin2:
.seh_proc "?merge_intervals@@YA?AV?$vector@U?$pair@OO@std@@V?$allocator@U?$pair@OO@std@@@2@@std@@AEAV12@@Z"
	.seh_handler __CxxFrameHandler3, @unwind, @except
# %bb.0:
	push	rbp
	.seh_pushreg rbp
	sub	rsp, 144
	.seh_stackalloc 144
	lea	rbp, [rsp + 128]
	.seh_setframe rbp, 128
	.seh_endprologue
	mov	qword ptr [rbp + 8], -2
	mov	qword ptr [rbp - 56], rcx       # 8-byte Spill
	mov	rax, rcx
	mov	qword ptr [rbp - 48], rax       # 8-byte Spill
	mov	qword ptr [rbp], rcx
	mov	qword ptr [rbp - 8], rdx
	mov	rcx, qword ptr [rbp - 8]
	call	"?empty@?$vector@U?$pair@OO@std@@V?$allocator@U?$pair@OO@std@@@2@@std@@QEBA_NXZ"
	test	al, 1
	jne	.LBB43_1
	jmp	.LBB43_2
.LBB43_1:
	mov	rcx, qword ptr [rbp - 56]       # 8-byte Reload
	call	"??0?$vector@U?$pair@OO@std@@V?$allocator@U?$pair@OO@std@@@2@@std@@QEAA@XZ"
	jmp	.LBB43_16
.LBB43_2:
	mov	rcx, qword ptr [rbp - 8]
	lea	rdx, [rbp - 16]
	call	"?end@?$vector@U?$pair@OO@std@@V?$allocator@U?$pair@OO@std@@@2@@std@@QEAA?AV?$_Vector_iterator@V?$_Vector_val@U?$_Simple_types@U?$pair@OO@std@@@std@@@std@@@2@XZ"
	mov	rcx, qword ptr [rbp - 8]
	lea	rdx, [rbp - 24]
	call	"?begin@?$vector@U?$pair@OO@std@@V?$allocator@U?$pair@OO@std@@@2@@std@@QEAA?AV?$_Vector_iterator@V?$_Vector_val@U?$_Simple_types@U?$pair@OO@std@@@std@@@std@@@2@XZ"
	mov	rcx, qword ptr [rbp - 24]
	mov	rdx, qword ptr [rbp - 16]
	call	"??$sort@V?$_Vector_iterator@V?$_Vector_val@U?$_Simple_types@U?$pair@OO@std@@@std@@@std@@@std@@@std@@YAXV?$_Vector_iterator@V?$_Vector_val@U?$_Simple_types@U?$pair@OO@std@@@std@@@std@@@0@0@Z"
	mov	rcx, qword ptr [rbp - 56]       # 8-byte Reload
	mov	byte ptr [rbp - 25], 0
	call	"??0?$vector@U?$pair@OO@std@@V?$allocator@U?$pair@OO@std@@@2@@std@@QEAA@XZ"
	mov	rcx, qword ptr [rbp - 8]
	call	"?empty@?$vector@U?$pair@OO@std@@V?$allocator@U?$pair@OO@std@@@2@@std@@QEBA_NXZ"
	test	al, 1
	jne	.LBB43_12
# %bb.3:
	mov	rcx, qword ptr [rbp - 8]
	xor	eax, eax
	mov	edx, eax
	call	"??A?$vector@U?$pair@OO@std@@V?$allocator@U?$pair@OO@std@@@2@@std@@QEAAAEAU?$pair@OO@1@_K@Z"
	mov	rcx, qword ptr [rbp - 56]       # 8-byte Reload
	mov	rdx, rax
.Ltmp22:
	call	"?push_back@?$vector@U?$pair@OO@std@@V?$allocator@U?$pair@OO@std@@@2@@std@@QEAAXAEBU?$pair@OO@2@@Z"
.Ltmp23:
	jmp	.LBB43_4
.LBB43_4:
	mov	qword ptr [rbp - 40], 1
.LBB43_5:                               # =>This Inner Loop Header: Depth=1
	mov	rax, qword ptr [rbp - 40]
	mov	qword ptr [rbp - 64], rax       # 8-byte Spill
	mov	rcx, qword ptr [rbp - 8]
	call	"?size@?$vector@U?$pair@OO@std@@V?$allocator@U?$pair@OO@std@@@2@@std@@QEBA_KXZ"
	mov	rcx, rax
	mov	rax, qword ptr [rbp - 64]       # 8-byte Reload
	cmp	rax, rcx
	jae	.LBB43_11
# %bb.6:                                #   in Loop: Header=BB43_5 Depth=1
	mov	rcx, qword ptr [rbp - 8]
	mov	rdx, qword ptr [rbp - 40]
	call	"??A?$vector@U?$pair@OO@std@@V?$allocator@U?$pair@OO@std@@@2@@std@@QEAAAEAU?$pair@OO@1@_K@Z"
	mov	rcx, qword ptr [rbp - 56]       # 8-byte Reload
	movsd	xmm0, qword ptr [rax]           # xmm0 = mem[0],zero
	movsd	qword ptr [rbp - 72], xmm0      # 8-byte Spill
	call	"?back@?$vector@U?$pair@OO@std@@V?$allocator@U?$pair@OO@std@@@2@@std@@QEAAAEAU?$pair@OO@2@XZ"
	movsd	xmm1, qword ptr [rbp - 72]      # 8-byte Reload
                                        # xmm1 = mem[0],zero
	movsd	xmm0, qword ptr [rip + __real@3e112e0be826d695] # xmm0 = [1.0000000000000001E-9,0.0E+0]
	addsd	xmm0, qword ptr [rax + 8]
	ucomisd	xmm0, xmm1
	jb	.LBB43_8
# %bb.7:                                #   in Loop: Header=BB43_5 Depth=1
	mov	rcx, qword ptr [rbp - 8]
	mov	rdx, qword ptr [rbp - 40]
	call	"??A?$vector@U?$pair@OO@std@@V?$allocator@U?$pair@OO@std@@@2@@std@@QEAAAEAU?$pair@OO@1@_K@Z"
	mov	rcx, qword ptr [rbp - 56]       # 8-byte Reload
	add	rax, 8
	mov	qword ptr [rbp - 88], rax       # 8-byte Spill
	call	"?back@?$vector@U?$pair@OO@std@@V?$allocator@U?$pair@OO@std@@@2@@std@@QEAAAEAU?$pair@OO@2@XZ"
	mov	rdx, qword ptr [rbp - 88]       # 8-byte Reload
	mov	rcx, rax
	add	rcx, 8
	call	"??$max@O@std@@YAAEBOAEBO0@Z"
	mov	rcx, qword ptr [rbp - 56]       # 8-byte Reload
	movsd	xmm0, qword ptr [rax]           # xmm0 = mem[0],zero
	movsd	qword ptr [rbp - 80], xmm0      # 8-byte Spill
	call	"?back@?$vector@U?$pair@OO@std@@V?$allocator@U?$pair@OO@std@@@2@@std@@QEAAAEAU?$pair@OO@2@XZ"
	movsd	xmm0, qword ptr [rbp - 80]      # 8-byte Reload
                                        # xmm0 = mem[0],zero
	movsd	qword ptr [rax + 8], xmm0
	jmp	.LBB43_10
.LBB43_8:                               #   in Loop: Header=BB43_5 Depth=1
	mov	rcx, qword ptr [rbp - 8]
	mov	rdx, qword ptr [rbp - 40]
	call	"??A?$vector@U?$pair@OO@std@@V?$allocator@U?$pair@OO@std@@@2@@std@@QEAAAEAU?$pair@OO@1@_K@Z"
	mov	rcx, qword ptr [rbp - 56]       # 8-byte Reload
	mov	rdx, rax
.Ltmp24:
	call	"?push_back@?$vector@U?$pair@OO@std@@V?$allocator@U?$pair@OO@std@@@2@@std@@QEAAXAEBU?$pair@OO@2@@Z"
.Ltmp25:
	jmp	.LBB43_9
.LBB43_9:                               #   in Loop: Header=BB43_5 Depth=1
	jmp	.LBB43_10
.LBB43_10:                              #   in Loop: Header=BB43_5 Depth=1
	mov	rax, qword ptr [rbp - 40]
	add	rax, 1
	mov	qword ptr [rbp - 40], rax
	jmp	.LBB43_5
.LBB43_11:
	jmp	.LBB43_12
.LBB43_12:
	mov	byte ptr [rbp - 25], 1
	test	byte ptr [rbp - 25], 1
	jne	.LBB43_14
# %bb.13:
	mov	rcx, qword ptr [rbp - 56]       # 8-byte Reload
	call	"??1?$vector@U?$pair@OO@std@@V?$allocator@U?$pair@OO@std@@@2@@std@@QEAA@XZ"
.LBB43_14:
	jmp	.LBB43_16
.LBB43_16:
	mov	rax, qword ptr [rbp - 48]       # 8-byte Reload
	add	rsp, 144
	pop	rbp
	ret
	.seh_handlerdata
	.long	("$cppxdata$?merge_intervals@@YA?AV?$vector@U?$pair@OO@std@@V?$allocator@U?$pair@OO@std@@@2@@std@@AEAV12@@Z")@IMGREL
	.text
	.seh_endproc
	.def	"?dtor$15@?0??merge_intervals@@YA?AV?$vector@U?$pair@OO@std@@V?$allocator@U?$pair@OO@std@@@2@@std@@AEAV12@@Z@4HA";
	.scl	3;
	.type	32;
	.endef
	.p2align	4, 0x90
"?dtor$15@?0??merge_intervals@@YA?AV?$vector@U?$pair@OO@std@@V?$allocator@U?$pair@OO@std@@@2@@std@@AEAV12@@Z@4HA":
.seh_proc "?dtor$15@?0??merge_intervals@@YA?AV?$vector@U?$pair@OO@std@@V?$allocator@U?$pair@OO@std@@@2@@std@@AEAV12@@Z@4HA"
.LBB43_15:
	mov	qword ptr [rsp + 16], rdx
	push	rbp
	.seh_pushreg rbp
	sub	rsp, 32
	.seh_stackalloc 32
	lea	rbp, [rdx + 128]
	.seh_endprologue
	mov	rcx, qword ptr [rbp - 56]       # 8-byte Reload
	call	"??1?$vector@U?$pair@OO@std@@V?$allocator@U?$pair@OO@std@@@2@@std@@QEAA@XZ"
	nop
	add	rsp, 32
	pop	rbp
	ret                                     # CLEANUPRET
.Lfunc_end2:
	.seh_handlerdata
	.text
	.seh_endproc
	.section	.xdata,"dr"
	.p2align	2, 0x0
"$cppxdata$?merge_intervals@@YA?AV?$vector@U?$pair@OO@std@@V?$allocator@U?$pair@OO@std@@@2@@std@@AEAV12@@Z":
	.long	429065506                       # MagicNumber
	.long	1                               # MaxState
	.long	("$stateUnwindMap$?merge_intervals@@YA?AV?$vector@U?$pair@OO@std@@V?$allocator@U?$pair@OO@std@@@2@@std@@AEAV12@@Z")@IMGREL # UnwindMap
	.long	0                               # NumTryBlocks
	.long	0                               # TryBlockMap
	.long	3                               # IPMapEntries
	.long	("$ip2state$?merge_intervals@@YA?AV?$vector@U?$pair@OO@std@@V?$allocator@U?$pair@OO@std@@@2@@std@@AEAV12@@Z")@IMGREL # IPToStateXData
	.long	136                             # UnwindHelp
	.long	0                               # ESTypeList
	.long	1                               # EHFlags
"$stateUnwindMap$?merge_intervals@@YA?AV?$vector@U?$pair@OO@std@@V?$allocator@U?$pair@OO@std@@@2@@std@@AEAV12@@Z":
	.long	-1                              # ToState
	.long	"?dtor$15@?0??merge_intervals@@YA?AV?$vector@U?$pair@OO@std@@V?$allocator@U?$pair@OO@std@@@2@@std@@AEAV12@@Z@4HA"@IMGREL # Action
"$ip2state$?merge_intervals@@YA?AV?$vector@U?$pair@OO@std@@V?$allocator@U?$pair@OO@std@@@2@@std@@AEAV12@@Z":
	.long	.Lfunc_begin2@IMGREL            # IP
	.long	-1                              # ToState
	.long	.Ltmp22@IMGREL+1                # IP
	.long	0                               # ToState
	.long	.Ltmp25@IMGREL+1                # IP
	.long	-1                              # ToState
	.text
                                        # -- End function
	.def	"?empty@?$vector@U?$pair@OO@std@@V?$allocator@U?$pair@OO@std@@@2@@std@@QEBA_NXZ";
	.scl	2;
	.type	32;
	.endef
	.section	.text,"xr",discard,"?empty@?$vector@U?$pair@OO@std@@V?$allocator@U?$pair@OO@std@@@2@@std@@QEBA_NXZ"
	.globl	"?empty@?$vector@U?$pair@OO@std@@V?$allocator@U?$pair@OO@std@@@2@@std@@QEBA_NXZ" # -- Begin function ?empty@?$vector@U?$pair@OO@std@@V?$allocator@U?$pair@OO@std@@@2@@std@@QEBA_NXZ
	.p2align	4, 0x90
"?empty@?$vector@U?$pair@OO@std@@V?$allocator@U?$pair@OO@std@@@2@@std@@QEBA_NXZ": # @"?empty@?$vector@U?$pair@OO@std@@V?$allocator@U?$pair@OO@std@@@2@@std@@QEBA_NXZ"
.seh_proc "?empty@?$vector@U?$pair@OO@std@@V?$allocator@U?$pair@OO@std@@@2@@std@@QEBA_NXZ"
# %bb.0:
	sub	rsp, 16
	.seh_stackalloc 16
	.seh_endprologue
	mov	qword ptr [rsp + 8], rcx
	mov	rax, qword ptr [rsp + 8]
	mov	qword ptr [rsp], rax
	mov	rax, qword ptr [rsp]
	mov	rax, qword ptr [rax]
	mov	rcx, qword ptr [rsp]
	cmp	rax, qword ptr [rcx + 8]
	sete	al
	and	al, 1
	add	rsp, 16
	ret
	.seh_endproc
                                        # -- End function
	.def	"??$sort@V?$_Vector_iterator@V?$_Vector_val@U?$_Simple_types@U?$pair@OO@std@@@std@@@std@@@std@@@std@@YAXV?$_Vector_iterator@V?$_Vector_val@U?$_Simple_types@U?$pair@OO@std@@@std@@@std@@@0@0@Z";
	.scl	2;
	.type	32;
	.endef
	.section	.text,"xr",discard,"??$sort@V?$_Vector_iterator@V?$_Vector_val@U?$_Simple_types@U?$pair@OO@std@@@std@@@std@@@std@@@std@@YAXV?$_Vector_iterator@V?$_Vector_val@U?$_Simple_types@U?$pair@OO@std@@@std@@@std@@@0@0@Z"
	.globl	"??$sort@V?$_Vector_iterator@V?$_Vector_val@U?$_Simple_types@U?$pair@OO@std@@@std@@@std@@@std@@@std@@YAXV?$_Vector_iterator@V?$_Vector_val@U?$_Simple_types@U?$pair@OO@std@@@std@@@std@@@0@0@Z" # -- Begin function ??$sort@V?$_Vector_iterator@V?$_Vector_val@U?$_Simple_types@U?$pair@OO@std@@@std@@@std@@@std@@@std@@YAXV?$_Vector_iterator@V?$_Vector_val@U?$_Simple_types@U?$pair@OO@std@@@std@@@std@@@0@0@Z
	.p2align	4, 0x90
"??$sort@V?$_Vector_iterator@V?$_Vector_val@U?$_Simple_types@U?$pair@OO@std@@@std@@@std@@@std@@@std@@YAXV?$_Vector_iterator@V?$_Vector_val@U?$_Simple_types@U?$pair@OO@std@@@std@@@std@@@0@0@Z": # @"??$sort@V?$_Vector_iterator@V?$_Vector_val@U?$_Simple_types@U?$pair@OO@std@@@std@@@std@@@std@@@std@@YAXV?$_Vector_iterator@V?$_Vector_val@U?$_Simple_types@U?$pair@OO@std@@@std@@@std@@@0@0@Z"
.seh_proc "??$sort@V?$_Vector_iterator@V?$_Vector_val@U?$_Simple_types@U?$pair@OO@std@@@std@@@std@@@std@@@std@@YAXV?$_Vector_iterator@V?$_Vector_val@U?$_Simple_types@U?$pair@OO@std@@@std@@@std@@@0@0@Z"
# %bb.0:
	sub	rsp, 72
	.seh_stackalloc 72
	.seh_endprologue
	mov	qword ptr [rsp + 64], rcx
	mov	qword ptr [rsp + 56], rdx
	mov	rax, qword ptr [rsp + 56]
	mov	qword ptr [rsp + 40], rax
	mov	rax, qword ptr [rsp + 64]
	mov	qword ptr [rsp + 32], rax
	mov	rcx, qword ptr [rsp + 32]
	mov	rdx, qword ptr [rsp + 40]
	mov	r8b, byte ptr [rsp + 55]
	call	"??$sort@V?$_Vector_iterator@V?$_Vector_val@U?$_Simple_types@U?$pair@OO@std@@@std@@@std@@@std@@U?$less@X@2@@std@@YAXV?$_Vector_iterator@V?$_Vector_val@U?$_Simple_types@U?$pair@OO@std@@@std@@@std@@@0@0U?$less@X@0@@Z"
	nop
	add	rsp, 72
	ret
	.seh_endproc
                                        # -- End function
	.def	"?end@?$vector@U?$pair@OO@std@@V?$allocator@U?$pair@OO@std@@@2@@std@@QEAA?AV?$_Vector_iterator@V?$_Vector_val@U?$_Simple_types@U?$pair@OO@std@@@std@@@std@@@2@XZ";
	.scl	2;
	.type	32;
	.endef
	.section	.text,"xr",discard,"?end@?$vector@U?$pair@OO@std@@V?$allocator@U?$pair@OO@std@@@2@@std@@QEAA?AV?$_Vector_iterator@V?$_Vector_val@U?$_Simple_types@U?$pair@OO@std@@@std@@@std@@@2@XZ"
	.globl	"?end@?$vector@U?$pair@OO@std@@V?$allocator@U?$pair@OO@std@@@2@@std@@QEAA?AV?$_Vector_iterator@V?$_Vector_val@U?$_Simple_types@U?$pair@OO@std@@@std@@@std@@@2@XZ" # -- Begin function ?end@?$vector@U?$pair@OO@std@@V?$allocator@U?$pair@OO@std@@@2@@std@@QEAA?AV?$_Vector_iterator@V?$_Vector_val@U?$_Simple_types@U?$pair@OO@std@@@std@@@std@@@2@XZ
	.p2align	4, 0x90
"?end@?$vector@U?$pair@OO@std@@V?$allocator@U?$pair@OO@std@@@2@@std@@QEAA?AV?$_Vector_iterator@V?$_Vector_val@U?$_Simple_types@U?$pair@OO@std@@@std@@@std@@@2@XZ": # @"?end@?$vector@U?$pair@OO@std@@V?$allocator@U?$pair@OO@std@@@2@@std@@QEAA?AV?$_Vector_iterator@V?$_Vector_val@U?$_Simple_types@U?$pair@OO@std@@@std@@@std@@@2@XZ"
.seh_proc "?end@?$vector@U?$pair@OO@std@@V?$allocator@U?$pair@OO@std@@@2@@std@@QEAA?AV?$_Vector_iterator@V?$_Vector_val@U?$_Simple_types@U?$pair@OO@std@@@std@@@std@@@2@XZ"
# %bb.0:
	sub	rsp, 72
	.seh_stackalloc 72
	.seh_endprologue
	mov	qword ptr [rsp + 32], rdx       # 8-byte Spill
	mov	rax, rcx
	mov	rcx, qword ptr [rsp + 32]       # 8-byte Reload
	mov	rdx, rcx
	mov	qword ptr [rsp + 40], rdx       # 8-byte Spill
	mov	qword ptr [rsp + 64], rcx
	mov	qword ptr [rsp + 56], rax
	mov	rax, qword ptr [rsp + 56]
	mov	qword ptr [rsp + 48], rax
	mov	r8, qword ptr [rsp + 48]
	mov	rax, qword ptr [rsp + 48]
	mov	rdx, qword ptr [rax + 8]
	call	"??0?$_Vector_iterator@V?$_Vector_val@U?$_Simple_types@U?$pair@OO@std@@@std@@@std@@@std@@QEAA@PEAU?$pair@OO@1@PEBU_Container_base0@1@@Z"
                                        # kill: def $rcx killed $rax
	mov	rax, qword ptr [rsp + 40]       # 8-byte Reload
	add	rsp, 72
	ret
	.seh_endproc
                                        # -- End function
	.def	"?begin@?$vector@U?$pair@OO@std@@V?$allocator@U?$pair@OO@std@@@2@@std@@QEAA?AV?$_Vector_iterator@V?$_Vector_val@U?$_Simple_types@U?$pair@OO@std@@@std@@@std@@@2@XZ";
	.scl	2;
	.type	32;
	.endef
	.section	.text,"xr",discard,"?begin@?$vector@U?$pair@OO@std@@V?$allocator@U?$pair@OO@std@@@2@@std@@QEAA?AV?$_Vector_iterator@V?$_Vector_val@U?$_Simple_types@U?$pair@OO@std@@@std@@@std@@@2@XZ"
	.globl	"?begin@?$vector@U?$pair@OO@std@@V?$allocator@U?$pair@OO@std@@@2@@std@@QEAA?AV?$_Vector_iterator@V?$_Vector_val@U?$_Simple_types@U?$pair@OO@std@@@std@@@std@@@2@XZ" # -- Begin function ?begin@?$vector@U?$pair@OO@std@@V?$allocator@U?$pair@OO@std@@@2@@std@@QEAA?AV?$_Vector_iterator@V?$_Vector_val@U?$_Simple_types@U?$pair@OO@std@@@std@@@std@@@2@XZ
	.p2align	4, 0x90
"?begin@?$vector@U?$pair@OO@std@@V?$allocator@U?$pair@OO@std@@@2@@std@@QEAA?AV?$_Vector_iterator@V?$_Vector_val@U?$_Simple_types@U?$pair@OO@std@@@std@@@std@@@2@XZ": # @"?begin@?$vector@U?$pair@OO@std@@V?$allocator@U?$pair@OO@std@@@2@@std@@QEAA?AV?$_Vector_iterator@V?$_Vector_val@U?$_Simple_types@U?$pair@OO@std@@@std@@@std@@@2@XZ"
.seh_proc "?begin@?$vector@U?$pair@OO@std@@V?$allocator@U?$pair@OO@std@@@2@@std@@QEAA?AV?$_Vector_iterator@V?$_Vector_val@U?$_Simple_types@U?$pair@OO@std@@@std@@@std@@@2@XZ"
# %bb.0:
	sub	rsp, 72
	.seh_stackalloc 72
	.seh_endprologue
	mov	qword ptr [rsp + 32], rdx       # 8-byte Spill
	mov	rax, rcx
	mov	rcx, qword ptr [rsp + 32]       # 8-byte Reload
	mov	rdx, rcx
	mov	qword ptr [rsp + 40], rdx       # 8-byte Spill
	mov	qword ptr [rsp + 64], rcx
	mov	qword ptr [rsp + 56], rax
	mov	rax, qword ptr [rsp + 56]
	mov	qword ptr [rsp + 48], rax
	mov	r8, qword ptr [rsp + 48]
	mov	rax, qword ptr [rsp + 48]
	mov	rdx, qword ptr [rax]
	call	"??0?$_Vector_iterator@V?$_Vector_val@U?$_Simple_types@U?$pair@OO@std@@@std@@@std@@@std@@QEAA@PEAU?$pair@OO@1@PEBU_Container_base0@1@@Z"
                                        # kill: def $rcx killed $rax
	mov	rax, qword ptr [rsp + 40]       # 8-byte Reload
	add	rsp, 72
	ret
	.seh_endproc
                                        # -- End function
	.def	"?push_back@?$vector@U?$pair@OO@std@@V?$allocator@U?$pair@OO@std@@@2@@std@@QEAAXAEBU?$pair@OO@2@@Z";
	.scl	2;
	.type	32;
	.endef
	.section	.text,"xr",discard,"?push_back@?$vector@U?$pair@OO@std@@V?$allocator@U?$pair@OO@std@@@2@@std@@QEAAXAEBU?$pair@OO@2@@Z"
	.globl	"?push_back@?$vector@U?$pair@OO@std@@V?$allocator@U?$pair@OO@std@@@2@@std@@QEAAXAEBU?$pair@OO@2@@Z" # -- Begin function ?push_back@?$vector@U?$pair@OO@std@@V?$allocator@U?$pair@OO@std@@@2@@std@@QEAAXAEBU?$pair@OO@2@@Z
	.p2align	4, 0x90
"?push_back@?$vector@U?$pair@OO@std@@V?$allocator@U?$pair@OO@std@@@2@@std@@QEAAXAEBU?$pair@OO@2@@Z": # @"?push_back@?$vector@U?$pair@OO@std@@V?$allocator@U?$pair@OO@std@@@2@@std@@QEAAXAEBU?$pair@OO@2@@Z"
.seh_proc "?push_back@?$vector@U?$pair@OO@std@@V?$allocator@U?$pair@OO@std@@@2@@std@@QEAAXAEBU?$pair@OO@2@@Z"
# %bb.0:
	sub	rsp, 56
	.seh_stackalloc 56
	.seh_endprologue
	mov	qword ptr [rsp + 48], rdx
	mov	qword ptr [rsp + 40], rcx
	mov	rcx, qword ptr [rsp + 40]
	mov	rdx, qword ptr [rsp + 48]
	call	"??$_Emplace_one_at_back@AEBU?$pair@OO@std@@@?$vector@U?$pair@OO@std@@V?$allocator@U?$pair@OO@std@@@2@@std@@AEAAAEAU?$pair@OO@1@AEBU21@@Z"
	nop
	add	rsp, 56
	ret
	.seh_endproc
                                        # -- End function
	.def	"??A?$vector@U?$pair@OO@std@@V?$allocator@U?$pair@OO@std@@@2@@std@@QEAAAEAU?$pair@OO@1@_K@Z";
	.scl	2;
	.type	32;
	.endef
	.section	.text,"xr",discard,"??A?$vector@U?$pair@OO@std@@V?$allocator@U?$pair@OO@std@@@2@@std@@QEAAAEAU?$pair@OO@1@_K@Z"
	.globl	"??A?$vector@U?$pair@OO@std@@V?$allocator@U?$pair@OO@std@@@2@@std@@QEAAAEAU?$pair@OO@1@_K@Z" # -- Begin function ??A?$vector@U?$pair@OO@std@@V?$allocator@U?$pair@OO@std@@@2@@std@@QEAAAEAU?$pair@OO@1@_K@Z
	.p2align	4, 0x90
"??A?$vector@U?$pair@OO@std@@V?$allocator@U?$pair@OO@std@@@2@@std@@QEAAAEAU?$pair@OO@1@_K@Z": # @"??A?$vector@U?$pair@OO@std@@V?$allocator@U?$pair@OO@std@@@2@@std@@QEAAAEAU?$pair@OO@1@_K@Z"
.seh_proc "??A?$vector@U?$pair@OO@std@@V?$allocator@U?$pair@OO@std@@@2@@std@@QEAAAEAU?$pair@OO@1@_K@Z"
# %bb.0:
	sub	rsp, 24
	.seh_stackalloc 24
	.seh_endprologue
	mov	qword ptr [rsp + 16], rdx
	mov	qword ptr [rsp + 8], rcx
	mov	rax, qword ptr [rsp + 8]
	mov	qword ptr [rsp], rax
	mov	rax, qword ptr [rsp]
	mov	rax, qword ptr [rax]
	mov	rcx, qword ptr [rsp + 16]
	shl	rcx, 4
	add	rax, rcx
	add	rsp, 24
	ret
	.seh_endproc
                                        # -- End function
	.def	"?size@?$vector@U?$pair@OO@std@@V?$allocator@U?$pair@OO@std@@@2@@std@@QEBA_KXZ";
	.scl	2;
	.type	32;
	.endef
	.section	.text,"xr",discard,"?size@?$vector@U?$pair@OO@std@@V?$allocator@U?$pair@OO@std@@@2@@std@@QEBA_KXZ"
	.globl	"?size@?$vector@U?$pair@OO@std@@V?$allocator@U?$pair@OO@std@@@2@@std@@QEBA_KXZ" # -- Begin function ?size@?$vector@U?$pair@OO@std@@V?$allocator@U?$pair@OO@std@@@2@@std@@QEBA_KXZ
	.p2align	4, 0x90
"?size@?$vector@U?$pair@OO@std@@V?$allocator@U?$pair@OO@std@@@2@@std@@QEBA_KXZ": # @"?size@?$vector@U?$pair@OO@std@@V?$allocator@U?$pair@OO@std@@@2@@std@@QEBA_KXZ"
.seh_proc "?size@?$vector@U?$pair@OO@std@@V?$allocator@U?$pair@OO@std@@@2@@std@@QEBA_KXZ"
# %bb.0:
	sub	rsp, 16
	.seh_stackalloc 16
	.seh_endprologue
	mov	qword ptr [rsp + 8], rcx
	mov	rax, qword ptr [rsp + 8]
	mov	qword ptr [rsp], rax
	mov	rax, qword ptr [rsp]
	mov	rax, qword ptr [rax + 8]
	mov	rcx, qword ptr [rsp]
	mov	rcx, qword ptr [rcx]
	sub	rax, rcx
	sar	rax, 4
	add	rsp, 16
	ret
	.seh_endproc
                                        # -- End function
	.def	"?back@?$vector@U?$pair@OO@std@@V?$allocator@U?$pair@OO@std@@@2@@std@@QEAAAEAU?$pair@OO@2@XZ";
	.scl	2;
	.type	32;
	.endef
	.section	.text,"xr",discard,"?back@?$vector@U?$pair@OO@std@@V?$allocator@U?$pair@OO@std@@@2@@std@@QEAAAEAU?$pair@OO@2@XZ"
	.globl	"?back@?$vector@U?$pair@OO@std@@V?$allocator@U?$pair@OO@std@@@2@@std@@QEAAAEAU?$pair@OO@2@XZ" # -- Begin function ?back@?$vector@U?$pair@OO@std@@V?$allocator@U?$pair@OO@std@@@2@@std@@QEAAAEAU?$pair@OO@2@XZ
	.p2align	4, 0x90
"?back@?$vector@U?$pair@OO@std@@V?$allocator@U?$pair@OO@std@@@2@@std@@QEAAAEAU?$pair@OO@2@XZ": # @"?back@?$vector@U?$pair@OO@std@@V?$allocator@U?$pair@OO@std@@@2@@std@@QEAAAEAU?$pair@OO@2@XZ"
.seh_proc "?back@?$vector@U?$pair@OO@std@@V?$allocator@U?$pair@OO@std@@@2@@std@@QEAAAEAU?$pair@OO@2@XZ"
# %bb.0:
	sub	rsp, 16
	.seh_stackalloc 16
	.seh_endprologue
	mov	qword ptr [rsp + 8], rcx
	mov	rax, qword ptr [rsp + 8]
	mov	qword ptr [rsp], rax
	mov	rax, qword ptr [rsp]
	mov	rax, qword ptr [rax + 8]
	add	rax, -16
	add	rsp, 16
	ret
	.seh_endproc
                                        # -- End function
	.def	"?is_arc_safe@@YA_NAEBUPoint@@0AEBV?$vector@UPoint@@V?$allocator@UPoint@@@std@@@std@@O@Z";
	.scl	2;
	.type	32;
	.endef
	.globl	__real@3fefffffff768fa1         # -- Begin function ?is_arc_safe@@YA_NAEBUPoint@@0AEBV?$vector@UPoint@@V?$allocator@UPoint@@@std@@@std@@O@Z
	.section	.rdata,"dr",discard,__real@3fefffffff768fa1
	.p2align	3, 0x0
__real@3fefffffff768fa1:
	.quad	0x3fefffffff768fa1              # double 0.99999999900000002
	.text
	.globl	"?is_arc_safe@@YA_NAEBUPoint@@0AEBV?$vector@UPoint@@V?$allocator@UPoint@@@std@@@std@@O@Z"
	.p2align	4, 0x90
"?is_arc_safe@@YA_NAEBUPoint@@0AEBV?$vector@UPoint@@V?$allocator@UPoint@@@std@@@std@@O@Z": # @"?is_arc_safe@@YA_NAEBUPoint@@0AEBV?$vector@UPoint@@V?$allocator@UPoint@@@std@@@std@@O@Z"
.Lfunc_begin3:
.seh_proc "?is_arc_safe@@YA_NAEBUPoint@@0AEBV?$vector@UPoint@@V?$allocator@UPoint@@@std@@@std@@O@Z"
	.seh_handler __CxxFrameHandler3, @unwind, @except
# %bb.0:
	push	rbp
	.seh_pushreg rbp
	sub	rsp, 304
	.seh_stackalloc 304
	lea	rbp, [rsp + 128]
	.seh_setframe rbp, 128
	.seh_endprologue
	mov	qword ptr [rbp + 168], -2
	movsd	qword ptr [rbp + 152], xmm3
	mov	qword ptr [rbp + 144], r8
	mov	qword ptr [rbp + 136], rdx
	mov	qword ptr [rbp + 128], rcx
	mov	rdx, qword ptr [rbp + 136]
	mov	rcx, qword ptr [rbp + 128]
	call	"?dist_xyz@@YAOAEBUPoint@@0@Z"
	movsd	qword ptr [rbp + 120], xmm0
	movsd	xmm0, qword ptr [rip + __real@3e112e0be826d695] # xmm0 = [1.0000000000000001E-9,0.0E+0]
	ucomisd	xmm0, qword ptr [rbp + 120]
	jbe	.LBB52_2
# %bb.1:
	mov	byte ptr [rbp + 167], 1
	jmp	.LBB52_21
.LBB52_2:
	lea	rcx, [rbp + 96]
	call	"??0?$vector@U?$pair@OO@std@@V?$allocator@U?$pair@OO@std@@@2@@std@@QEAA@XZ"
	mov	rax, qword ptr [rbp + 144]
	mov	qword ptr [rbp + 88], rax
	mov	rcx, qword ptr [rbp + 88]
	lea	rdx, [rbp + 80]
	call	"?begin@?$vector@UPoint@@V?$allocator@UPoint@@@std@@@std@@QEBA?AV?$_Vector_const_iterator@V?$_Vector_val@U?$_Simple_types@UPoint@@@std@@@std@@@2@XZ"
	mov	rcx, qword ptr [rbp + 88]
	lea	rdx, [rbp + 72]
	call	"?end@?$vector@UPoint@@V?$allocator@UPoint@@@std@@@std@@QEBA?AV?$_Vector_const_iterator@V?$_Vector_val@U?$_Simple_types@UPoint@@@std@@@std@@@2@XZ"
.LBB52_3:                               # =>This Inner Loop Header: Depth=1
	lea	rcx, [rbp + 80]
	lea	rdx, [rbp + 72]
	call	"??9?$_Vector_const_iterator@V?$_Vector_val@U?$_Simple_types@UPoint@@@std@@@std@@@std@@QEBA_NAEBV01@@Z"
	test	al, 1
	jne	.LBB52_4
	jmp	.LBB52_8
.LBB52_4:                               #   in Loop: Header=BB52_3 Depth=1
	lea	rcx, [rbp + 80]
	call	"??D?$_Vector_const_iterator@V?$_Vector_val@U?$_Simple_types@UPoint@@@std@@@std@@@std@@QEBAAEBUPoint@@XZ"
	mov	qword ptr [rbp + 64], rax
	movsd	xmm0, qword ptr [rbp + 152]     # xmm0 = mem[0],zero
	mov	r9, qword ptr [rbp + 64]
	mov	r8, qword ptr [rbp + 136]
	mov	rdx, qword ptr [rbp + 128]
.Ltmp28:
	mov	rax, rsp
	movsd	qword ptr [rax + 32], xmm0
	lea	rcx, [rbp + 40]
	call	"?get_covered_intervals@@YA?AV?$vector@U?$pair@OO@std@@V?$allocator@U?$pair@OO@std@@@2@@std@@AEBUPoint@@00O@Z"
.Ltmp29:
	jmp	.LBB52_5
.LBB52_5:                               #   in Loop: Header=BB52_3 Depth=1
	lea	rcx, [rbp + 40]
	mov	qword ptr [rbp - 88], rcx       # 8-byte Spill
	lea	rdx, [rbp + 32]
	call	"?end@?$vector@U?$pair@OO@std@@V?$allocator@U?$pair@OO@std@@@2@@std@@QEAA?AV?$_Vector_iterator@V?$_Vector_val@U?$_Simple_types@U?$pair@OO@std@@@std@@@std@@@2@XZ"
	mov	rcx, qword ptr [rbp - 88]       # 8-byte Reload
	lea	rdx, [rbp + 24]
	call	"?begin@?$vector@U?$pair@OO@std@@V?$allocator@U?$pair@OO@std@@@2@@std@@QEAA?AV?$_Vector_iterator@V?$_Vector_val@U?$_Simple_types@U?$pair@OO@std@@@std@@@std@@@2@XZ"
	lea	rcx, [rbp + 96]
	mov	qword ptr [rbp - 80], rcx       # 8-byte Spill
	lea	rdx, [rbp + 8]
	call	"?end@?$vector@U?$pair@OO@std@@V?$allocator@U?$pair@OO@std@@@2@@std@@QEAA?AV?$_Vector_iterator@V?$_Vector_val@U?$_Simple_types@U?$pair@OO@std@@@std@@@std@@@2@XZ"
	mov	rcx, qword ptr [rbp - 80]       # 8-byte Reload
	mov	rax, qword ptr [rbp + 8]
	mov	qword ptr [rbp + 16], rax
	mov	r8, qword ptr [rbp + 16]
	mov	r9, qword ptr [rbp + 24]
	mov	rdx, qword ptr [rbp + 32]
.Ltmp30:
	mov	rax, rsp
	mov	qword ptr [rax + 32], rdx
	mov	rdx, rbp
	call	"??$insert@V?$_Vector_iterator@V?$_Vector_val@U?$_Simple_types@U?$pair@OO@std@@@std@@@std@@@std@@$0A@@?$vector@U?$pair@OO@std@@V?$allocator@U?$pair@OO@std@@@2@@std@@QEAA?AV?$_Vector_iterator@V?$_Vector_val@U?$_Simple_types@U?$pair@OO@std@@@std@@@std@@@1@V?$_Vector_const_iterator@V?$_Vector_val@U?$_Simple_types@U?$pair@OO@std@@@std@@@std@@@1@V21@1@Z"
.Ltmp31:
	jmp	.LBB52_6
.LBB52_6:                               #   in Loop: Header=BB52_3 Depth=1
	lea	rcx, [rbp + 40]
	call	"??1?$vector@U?$pair@OO@std@@V?$allocator@U?$pair@OO@std@@@2@@std@@QEAA@XZ"
	lea	rcx, [rbp + 80]
	call	"??E?$_Vector_const_iterator@V?$_Vector_val@U?$_Simple_types@UPoint@@@std@@@std@@@std@@QEAAAEAV01@XZ"
	jmp	.LBB52_3
.LBB52_8:
.Ltmp26:
	lea	rcx, [rbp - 24]
	lea	rdx, [rbp + 96]
	call	"?merge_intervals@@YA?AV?$vector@U?$pair@OO@std@@V?$allocator@U?$pair@OO@std@@@2@@std@@AEAV12@@Z"
.Ltmp27:
	jmp	.LBB52_9
.LBB52_9:
	lea	rcx, [rbp - 24]
	call	"?empty@?$vector@U?$pair@OO@std@@V?$allocator@U?$pair@OO@std@@@2@@std@@QEBA_NXZ"
	test	al, 1
	jne	.LBB52_10
	jmp	.LBB52_11
.LBB52_10:
	mov	byte ptr [rbp + 167], 0
	mov	dword ptr [rbp - 28], 1
	jmp	.LBB52_19
.LBB52_11:
	xorps	xmm0, xmm0
	movsd	qword ptr [rbp - 40], xmm0
	lea	rax, [rbp - 24]
	mov	qword ptr [rbp - 48], rax
	mov	rcx, qword ptr [rbp - 48]
	lea	rdx, [rbp - 56]
	call	"?begin@?$vector@U?$pair@OO@std@@V?$allocator@U?$pair@OO@std@@@2@@std@@QEAA?AV?$_Vector_iterator@V?$_Vector_val@U?$_Simple_types@U?$pair@OO@std@@@std@@@std@@@2@XZ"
	mov	rcx, qword ptr [rbp - 48]
	lea	rdx, [rbp - 64]
	call	"?end@?$vector@U?$pair@OO@std@@V?$allocator@U?$pair@OO@std@@@2@@std@@QEAA?AV?$_Vector_iterator@V?$_Vector_val@U?$_Simple_types@U?$pair@OO@std@@@std@@@std@@@2@XZ"
.LBB52_12:                              # =>This Inner Loop Header: Depth=1
	lea	rcx, [rbp - 56]
	lea	rdx, [rbp - 64]
	call	"??9?$_Vector_const_iterator@V?$_Vector_val@U?$_Simple_types@U?$pair@OO@std@@@std@@@std@@@std@@QEBA_NAEBV01@@Z"
	test	al, 1
	jne	.LBB52_13
	jmp	.LBB52_16
.LBB52_13:                              #   in Loop: Header=BB52_12 Depth=1
	lea	rcx, [rbp - 56]
	call	"??D?$_Vector_iterator@V?$_Vector_val@U?$_Simple_types@U?$pair@OO@std@@@std@@@std@@@std@@QEBAAEAU?$pair@OO@1@XZ"
	mov	qword ptr [rbp - 72], rax
	mov	rax, qword ptr [rbp - 72]
	movsd	xmm0, qword ptr [rax]           # xmm0 = mem[0],zero
	movsd	xmm1, qword ptr [rip + __real@3e112e0be826d695] # xmm1 = [1.0000000000000001E-9,0.0E+0]
	addsd	xmm1, qword ptr [rbp - 40]
	ucomisd	xmm0, xmm1
	jbe	.LBB52_15
# %bb.14:
	mov	byte ptr [rbp + 167], 0
	mov	dword ptr [rbp - 28], 1
	jmp	.LBB52_19
.LBB52_15:                              #   in Loop: Header=BB52_12 Depth=1
	mov	rdx, qword ptr [rbp - 72]
	add	rdx, 8
	lea	rcx, [rbp - 40]
	call	"??$max@O@std@@YAAEBOAEBO0@Z"
	movsd	xmm0, qword ptr [rax]           # xmm0 = mem[0],zero
	movsd	qword ptr [rbp - 40], xmm0
	lea	rcx, [rbp - 56]
	call	"??E?$_Vector_iterator@V?$_Vector_val@U?$_Simple_types@U?$pair@OO@std@@@std@@@std@@@std@@QEAAAEAV01@XZ"
	jmp	.LBB52_12
.LBB52_16:
	movsd	xmm0, qword ptr [rip + __real@3fefffffff768fa1] # xmm0 = [9.9999999900000002E-1,0.0E+0]
	ucomisd	xmm0, qword ptr [rbp - 40]
	jbe	.LBB52_18
# %bb.17:
	mov	byte ptr [rbp + 167], 0
	mov	dword ptr [rbp - 28], 1
	jmp	.LBB52_19
.LBB52_18:
	mov	byte ptr [rbp + 167], 1
	mov	dword ptr [rbp - 28], 1
.LBB52_19:
	lea	rcx, [rbp - 24]
	call	"??1?$vector@U?$pair@OO@std@@V?$allocator@U?$pair@OO@std@@@2@@std@@QEAA@XZ"
	lea	rcx, [rbp + 96]
	call	"??1?$vector@U?$pair@OO@std@@V?$allocator@U?$pair@OO@std@@@2@@std@@QEAA@XZ"
	jmp	.LBB52_21
.LBB52_21:
	mov	al, byte ptr [rbp + 167]
	and	al, 1
	add	rsp, 304
	pop	rbp
	ret
	.seh_handlerdata
	.long	("$cppxdata$?is_arc_safe@@YA_NAEBUPoint@@0AEBV?$vector@UPoint@@V?$allocator@UPoint@@@std@@@std@@O@Z")@IMGREL
	.text
	.seh_endproc
	.def	"?dtor$7@?0??is_arc_safe@@YA_NAEBUPoint@@0AEBV?$vector@UPoint@@V?$allocator@UPoint@@@std@@@std@@O@Z@4HA";
	.scl	3;
	.type	32;
	.endef
	.p2align	4, 0x90
"?dtor$7@?0??is_arc_safe@@YA_NAEBUPoint@@0AEBV?$vector@UPoint@@V?$allocator@UPoint@@@std@@@std@@O@Z@4HA":
.seh_proc "?dtor$7@?0??is_arc_safe@@YA_NAEBUPoint@@0AEBV?$vector@UPoint@@V?$allocator@UPoint@@@std@@@std@@O@Z@4HA"
.LBB52_7:
	mov	qword ptr [rsp + 16], rdx
	push	rbp
	.seh_pushreg rbp
	sub	rsp, 48
	.seh_stackalloc 48
	lea	rbp, [rdx + 128]
	.seh_endprologue
	lea	rcx, [rbp + 40]
	call	"??1?$vector@U?$pair@OO@std@@V?$allocator@U?$pair@OO@std@@@2@@std@@QEAA@XZ"
	nop
	add	rsp, 48
	pop	rbp
	ret                                     # CLEANUPRET
	.seh_handlerdata
	.text
	.seh_endproc
	.def	"?dtor$20@?0??is_arc_safe@@YA_NAEBUPoint@@0AEBV?$vector@UPoint@@V?$allocator@UPoint@@@std@@@std@@O@Z@4HA";
	.scl	3;
	.type	32;
	.endef
	.p2align	4, 0x90
"?dtor$20@?0??is_arc_safe@@YA_NAEBUPoint@@0AEBV?$vector@UPoint@@V?$allocator@UPoint@@@std@@@std@@O@Z@4HA":
.seh_proc "?dtor$20@?0??is_arc_safe@@YA_NAEBUPoint@@0AEBV?$vector@UPoint@@V?$allocator@UPoint@@@std@@@std@@O@Z@4HA"
.LBB52_20:
	mov	qword ptr [rsp + 16], rdx
	push	rbp
	.seh_pushreg rbp
	sub	rsp, 48
	.seh_stackalloc 48
	lea	rbp, [rdx + 128]
	.seh_endprologue
	lea	rcx, [rbp + 96]
	call	"??1?$vector@U?$pair@OO@std@@V?$allocator@U?$pair@OO@std@@@2@@std@@QEAA@XZ"
	nop
	add	rsp, 48
	pop	rbp
	ret                                     # CLEANUPRET
.Lfunc_end3:
	.seh_handlerdata
	.text
	.seh_endproc
	.section	.xdata,"dr"
	.p2align	2, 0x0
"$cppxdata$?is_arc_safe@@YA_NAEBUPoint@@0AEBV?$vector@UPoint@@V?$allocator@UPoint@@@std@@@std@@O@Z":
	.long	429065506                       # MagicNumber
	.long	2                               # MaxState
	.long	("$stateUnwindMap$?is_arc_safe@@YA_NAEBUPoint@@0AEBV?$vector@UPoint@@V?$allocator@UPoint@@@std@@@std@@O@Z")@IMGREL # UnwindMap
	.long	0                               # NumTryBlocks
	.long	0                               # TryBlockMap
	.long	5                               # IPMapEntries
	.long	("$ip2state$?is_arc_safe@@YA_NAEBUPoint@@0AEBV?$vector@UPoint@@V?$allocator@UPoint@@@std@@@std@@O@Z")@IMGREL # IPToStateXData
	.long	296                             # UnwindHelp
	.long	0                               # ESTypeList
	.long	1                               # EHFlags
"$stateUnwindMap$?is_arc_safe@@YA_NAEBUPoint@@0AEBV?$vector@UPoint@@V?$allocator@UPoint@@@std@@@std@@O@Z":
	.long	-1                              # ToState
	.long	"?dtor$20@?0??is_arc_safe@@YA_NAEBUPoint@@0AEBV?$vector@UPoint@@V?$allocator@UPoint@@@std@@@std@@O@Z@4HA"@IMGREL # Action
	.long	0                               # ToState
	.long	"?dtor$7@?0??is_arc_safe@@YA_NAEBUPoint@@0AEBV?$vector@UPoint@@V?$allocator@UPoint@@@std@@@std@@O@Z@4HA"@IMGREL # Action
"$ip2state$?is_arc_safe@@YA_NAEBUPoint@@0AEBV?$vector@UPoint@@V?$allocator@UPoint@@@std@@@std@@O@Z":
	.long	.Lfunc_begin3@IMGREL            # IP
	.long	-1                              # ToState
	.long	.Ltmp28@IMGREL+1                # IP
	.long	0                               # ToState
	.long	.Ltmp30@IMGREL+1                # IP
	.long	1                               # ToState
	.long	.Ltmp26@IMGREL+1                # IP
	.long	0                               # ToState
	.long	.Ltmp27@IMGREL+1                # IP
	.long	-1                              # ToState
	.text
                                        # -- End function
	.def	"?begin@?$vector@UPoint@@V?$allocator@UPoint@@@std@@@std@@QEBA?AV?$_Vector_const_iterator@V?$_Vector_val@U?$_Simple_types@UPoint@@@std@@@std@@@2@XZ";
	.scl	2;
	.type	32;
	.endef
	.section	.text,"xr",discard,"?begin@?$vector@UPoint@@V?$allocator@UPoint@@@std@@@std@@QEBA?AV?$_Vector_const_iterator@V?$_Vector_val@U?$_Simple_types@UPoint@@@std@@@std@@@2@XZ"
	.globl	"?begin@?$vector@UPoint@@V?$allocator@UPoint@@@std@@@std@@QEBA?AV?$_Vector_const_iterator@V?$_Vector_val@U?$_Simple_types@UPoint@@@std@@@std@@@2@XZ" # -- Begin function ?begin@?$vector@UPoint@@V?$allocator@UPoint@@@std@@@std@@QEBA?AV?$_Vector_const_iterator@V?$_Vector_val@U?$_Simple_types@UPoint@@@std@@@std@@@2@XZ
	.p2align	4, 0x90
"?begin@?$vector@UPoint@@V?$allocator@UPoint@@@std@@@std@@QEBA?AV?$_Vector_const_iterator@V?$_Vector_val@U?$_Simple_types@UPoint@@@std@@@std@@@2@XZ": # @"?begin@?$vector@UPoint@@V?$allocator@UPoint@@@std@@@std@@QEBA?AV?$_Vector_const_iterator@V?$_Vector_val@U?$_Simple_types@UPoint@@@std@@@std@@@2@XZ"
.seh_proc "?begin@?$vector@UPoint@@V?$allocator@UPoint@@@std@@@std@@QEBA?AV?$_Vector_const_iterator@V?$_Vector_val@U?$_Simple_types@UPoint@@@std@@@std@@@2@XZ"
# %bb.0:
	sub	rsp, 72
	.seh_stackalloc 72
	.seh_endprologue
	mov	qword ptr [rsp + 32], rdx       # 8-byte Spill
	mov	rax, rcx
	mov	rcx, qword ptr [rsp + 32]       # 8-byte Reload
	mov	rdx, rcx
	mov	qword ptr [rsp + 40], rdx       # 8-byte Spill
	mov	qword ptr [rsp + 64], rcx
	mov	qword ptr [rsp + 56], rax
	mov	rax, qword ptr [rsp + 56]
	mov	qword ptr [rsp + 48], rax
	mov	r8, qword ptr [rsp + 48]
	mov	rax, qword ptr [rsp + 48]
	mov	rdx, qword ptr [rax]
	call	"??0?$_Vector_const_iterator@V?$_Vector_val@U?$_Simple_types@UPoint@@@std@@@std@@@std@@QEAA@PEAUPoint@@PEBU_Container_base0@1@@Z"
                                        # kill: def $rcx killed $rax
	mov	rax, qword ptr [rsp + 40]       # 8-byte Reload
	add	rsp, 72
	ret
	.seh_endproc
                                        # -- End function
	.def	"?end@?$vector@UPoint@@V?$allocator@UPoint@@@std@@@std@@QEBA?AV?$_Vector_const_iterator@V?$_Vector_val@U?$_Simple_types@UPoint@@@std@@@std@@@2@XZ";
	.scl	2;
	.type	32;
	.endef
	.section	.text,"xr",discard,"?end@?$vector@UPoint@@V?$allocator@UPoint@@@std@@@std@@QEBA?AV?$_Vector_const_iterator@V?$_Vector_val@U?$_Simple_types@UPoint@@@std@@@std@@@2@XZ"
	.globl	"?end@?$vector@UPoint@@V?$allocator@UPoint@@@std@@@std@@QEBA?AV?$_Vector_const_iterator@V?$_Vector_val@U?$_Simple_types@UPoint@@@std@@@std@@@2@XZ" # -- Begin function ?end@?$vector@UPoint@@V?$allocator@UPoint@@@std@@@std@@QEBA?AV?$_Vector_const_iterator@V?$_Vector_val@U?$_Simple_types@UPoint@@@std@@@std@@@2@XZ
	.p2align	4, 0x90
"?end@?$vector@UPoint@@V?$allocator@UPoint@@@std@@@std@@QEBA?AV?$_Vector_const_iterator@V?$_Vector_val@U?$_Simple_types@UPoint@@@std@@@std@@@2@XZ": # @"?end@?$vector@UPoint@@V?$allocator@UPoint@@@std@@@std@@QEBA?AV?$_Vector_const_iterator@V?$_Vector_val@U?$_Simple_types@UPoint@@@std@@@std@@@2@XZ"
.seh_proc "?end@?$vector@UPoint@@V?$allocator@UPoint@@@std@@@std@@QEBA?AV?$_Vector_const_iterator@V?$_Vector_val@U?$_Simple_types@UPoint@@@std@@@std@@@2@XZ"
# %bb.0:
	sub	rsp, 72
	.seh_stackalloc 72
	.seh_endprologue
	mov	qword ptr [rsp + 32], rdx       # 8-byte Spill
	mov	rax, rcx
	mov	rcx, qword ptr [rsp + 32]       # 8-byte Reload
	mov	rdx, rcx
	mov	qword ptr [rsp + 40], rdx       # 8-byte Spill
	mov	qword ptr [rsp + 64], rcx
	mov	qword ptr [rsp + 56], rax
	mov	rax, qword ptr [rsp + 56]
	mov	qword ptr [rsp + 48], rax
	mov	r8, qword ptr [rsp + 48]
	mov	rax, qword ptr [rsp + 48]
	mov	rdx, qword ptr [rax + 8]
	call	"??0?$_Vector_const_iterator@V?$_Vector_val@U?$_Simple_types@UPoint@@@std@@@std@@@std@@QEAA@PEAUPoint@@PEBU_Container_base0@1@@Z"
                                        # kill: def $rcx killed $rax
	mov	rax, qword ptr [rsp + 40]       # 8-byte Reload
	add	rsp, 72
	ret
	.seh_endproc
                                        # -- End function
	.def	"??9?$_Vector_const_iterator@V?$_Vector_val@U?$_Simple_types@UPoint@@@std@@@std@@@std@@QEBA_NAEBV01@@Z";
	.scl	2;
	.type	32;
	.endef
	.section	.text,"xr",discard,"??9?$_Vector_const_iterator@V?$_Vector_val@U?$_Simple_types@UPoint@@@std@@@std@@@std@@QEBA_NAEBV01@@Z"
	.globl	"??9?$_Vector_const_iterator@V?$_Vector_val@U?$_Simple_types@UPoint@@@std@@@std@@@std@@QEBA_NAEBV01@@Z" # -- Begin function ??9?$_Vector_const_iterator@V?$_Vector_val@U?$_Simple_types@UPoint@@@std@@@std@@@std@@QEBA_NAEBV01@@Z
	.p2align	4, 0x90
"??9?$_Vector_const_iterator@V?$_Vector_val@U?$_Simple_types@UPoint@@@std@@@std@@@std@@QEBA_NAEBV01@@Z": # @"??9?$_Vector_const_iterator@V?$_Vector_val@U?$_Simple_types@UPoint@@@std@@@std@@@std@@QEBA_NAEBV01@@Z"
.seh_proc "??9?$_Vector_const_iterator@V?$_Vector_val@U?$_Simple_types@UPoint@@@std@@@std@@@std@@QEBA_NAEBV01@@Z"
# %bb.0:
	sub	rsp, 56
	.seh_stackalloc 56
	.seh_endprologue
	mov	qword ptr [rsp + 48], rdx
	mov	qword ptr [rsp + 40], rcx
	mov	rcx, qword ptr [rsp + 40]
	mov	rdx, qword ptr [rsp + 48]
	call	"??8?$_Vector_const_iterator@V?$_Vector_val@U?$_Simple_types@UPoint@@@std@@@std@@@std@@QEBA_NAEBV01@@Z"
	xor	al, -1
	and	al, 1
	add	rsp, 56
	ret
	.seh_endproc
                                        # -- End function
	.def	"??D?$_Vector_const_iterator@V?$_Vector_val@U?$_Simple_types@UPoint@@@std@@@std@@@std@@QEBAAEBUPoint@@XZ";
	.scl	2;
	.type	32;
	.endef
	.section	.text,"xr",discard,"??D?$_Vector_const_iterator@V?$_Vector_val@U?$_Simple_types@UPoint@@@std@@@std@@@std@@QEBAAEBUPoint@@XZ"
	.globl	"??D?$_Vector_const_iterator@V?$_Vector_val@U?$_Simple_types@UPoint@@@std@@@std@@@std@@QEBAAEBUPoint@@XZ" # -- Begin function ??D?$_Vector_const_iterator@V?$_Vector_val@U?$_Simple_types@UPoint@@@std@@@std@@@std@@QEBAAEBUPoint@@XZ
	.p2align	4, 0x90
"??D?$_Vector_const_iterator@V?$_Vector_val@U?$_Simple_types@UPoint@@@std@@@std@@@std@@QEBAAEBUPoint@@XZ": # @"??D?$_Vector_const_iterator@V?$_Vector_val@U?$_Simple_types@UPoint@@@std@@@std@@@std@@QEBAAEBUPoint@@XZ"
.seh_proc "??D?$_Vector_const_iterator@V?$_Vector_val@U?$_Simple_types@UPoint@@@std@@@std@@@std@@QEBAAEBUPoint@@XZ"
# %bb.0:
	push	rax
	.seh_stackalloc 8
	.seh_endprologue
	mov	qword ptr [rsp], rcx
	mov	rax, qword ptr [rsp]
	mov	rax, qword ptr [rax]
	pop	rcx
	ret
	.seh_endproc
                                        # -- End function
	.def	"??$insert@V?$_Vector_iterator@V?$_Vector_val@U?$_Simple_types@U?$pair@OO@std@@@std@@@std@@@std@@$0A@@?$vector@U?$pair@OO@std@@V?$allocator@U?$pair@OO@std@@@2@@std@@QEAA?AV?$_Vector_iterator@V?$_Vector_val@U?$_Simple_types@U?$pair@OO@std@@@std@@@std@@@1@V?$_Vector_const_iterator@V?$_Vector_val@U?$_Simple_types@U?$pair@OO@std@@@std@@@std@@@1@V21@1@Z";
	.scl	2;
	.type	32;
	.endef
	.section	.text,"xr",discard,"??$insert@V?$_Vector_iterator@V?$_Vector_val@U?$_Simple_types@U?$pair@OO@std@@@std@@@std@@@std@@$0A@@?$vector@U?$pair@OO@std@@V?$allocator@U?$pair@OO@std@@@2@@std@@QEAA?AV?$_Vector_iterator@V?$_Vector_val@U?$_Simple_types@U?$pair@OO@std@@@std@@@std@@@1@V?$_Vector_const_iterator@V?$_Vector_val@U?$_Simple_types@U?$pair@OO@std@@@std@@@std@@@1@V21@1@Z"
	.globl	"??$insert@V?$_Vector_iterator@V?$_Vector_val@U?$_Simple_types@U?$pair@OO@std@@@std@@@std@@@std@@$0A@@?$vector@U?$pair@OO@std@@V?$allocator@U?$pair@OO@std@@@2@@std@@QEAA?AV?$_Vector_iterator@V?$_Vector_val@U?$_Simple_types@U?$pair@OO@std@@@std@@@std@@@1@V?$_Vector_const_iterator@V?$_Vector_val@U?$_Simple_types@U?$pair@OO@std@@@std@@@std@@@1@V21@1@Z" # -- Begin function ??$insert@V?$_Vector_iterator@V?$_Vector_val@U?$_Simple_types@U?$pair@OO@std@@@std@@@std@@@std@@$0A@@?$vector@U?$pair@OO@std@@V?$allocator@U?$pair@OO@std@@@2@@std@@QEAA?AV?$_Vector_iterator@V?$_Vector_val@U?$_Simple_types@U?$pair@OO@std@@@std@@@std@@@1@V?$_Vector_const_iterator@V?$_Vector_val@U?$_Simple_types@U?$pair@OO@std@@@std@@@std@@@1@V21@1@Z
	.p2align	4, 0x90
"??$insert@V?$_Vector_iterator@V?$_Vector_val@U?$_Simple_types@U?$pair@OO@std@@@std@@@std@@@std@@$0A@@?$vector@U?$pair@OO@std@@V?$allocator@U?$pair@OO@std@@@2@@std@@QEAA?AV?$_Vector_iterator@V?$_Vector_val@U?$_Simple_types@U?$pair@OO@std@@@std@@@std@@@1@V?$_Vector_const_iterator@V?$_Vector_val@U?$_Simple_types@U?$pair@OO@std@@@std@@@std@@@1@V21@1@Z": # @"??$insert@V?$_Vector_iterator@V?$_Vector_val@U?$_Simple_types@U?$pair@OO@std@@@std@@@std@@@std@@$0A@@?$vector@U?$pair@OO@std@@V?$allocator@U?$pair@OO@std@@@2@@std@@QEAA?AV?$_Vector_iterator@V?$_Vector_val@U?$_Simple_types@U?$pair@OO@std@@@std@@@std@@@1@V?$_Vector_const_iterator@V?$_Vector_val@U?$_Simple_types@U?$pair@OO@std@@@std@@@std@@@1@V21@1@Z"
.seh_proc "??$insert@V?$_Vector_iterator@V?$_Vector_val@U?$_Simple_types@U?$pair@OO@std@@@std@@@std@@@std@@$0A@@?$vector@U?$pair@OO@std@@V?$allocator@U?$pair@OO@std@@@2@@std@@QEAA?AV?$_Vector_iterator@V?$_Vector_val@U?$_Simple_types@U?$pair@OO@std@@@std@@@std@@@1@V?$_Vector_const_iterator@V?$_Vector_val@U?$_Simple_types@U?$pair@OO@std@@@std@@@std@@@1@V21@1@Z"
# %bb.0:
	sub	rsp, 168
	.seh_stackalloc 168
	.seh_endprologue
	mov	qword ptr [rsp + 40], rdx       # 8-byte Spill
	mov	rax, rdx
	mov	qword ptr [rsp + 48], rax       # 8-byte Spill
	mov	rax, qword ptr [rsp + 208]
	mov	qword ptr [rsp + 160], rdx
	mov	qword ptr [rsp + 152], r8
	mov	qword ptr [rsp + 144], r9
	mov	qword ptr [rsp + 136], rax
	mov	qword ptr [rsp + 128], rcx
	mov	rax, qword ptr [rsp + 128]
	mov	qword ptr [rsp + 32], rax       # 8-byte Spill
	mov	rcx, qword ptr [rsp + 152]
	mov	qword ptr [rsp + 120], rcx
	mov	qword ptr [rsp + 112], rax
	mov	rax, qword ptr [rsp + 112]
	mov	rax, qword ptr [rax]
	mov	qword ptr [rsp + 104], rax
	lea	rcx, [rsp + 144]
	lea	rdx, [rsp + 136]
	call	"??$_Adl_verify_range@V?$_Vector_iterator@V?$_Vector_val@U?$_Simple_types@U?$pair@OO@std@@@std@@@std@@@std@@V12@@std@@YAXAEBV?$_Vector_iterator@V?$_Vector_val@U?$_Simple_types@U?$pair@OO@std@@@std@@@std@@@0@0@Z"
	lea	rcx, [rsp + 144]
	call	"??$_Get_unwrapped@AEAV?$_Vector_iterator@V?$_Vector_val@U?$_Simple_types@U?$pair@OO@std@@@std@@@std@@@std@@@std@@YA?A?<decltype-auto>@@AEAV?$_Vector_iterator@V?$_Vector_val@U?$_Simple_types@U?$pair@OO@std@@@std@@@std@@@0@@Z"
	mov	qword ptr [rsp + 96], rax
	lea	rcx, [rsp + 136]
	call	"??$_Get_unwrapped@AEAV?$_Vector_iterator@V?$_Vector_val@U?$_Simple_types@U?$pair@OO@std@@@std@@@std@@@std@@@std@@YA?A?<decltype-auto>@@AEAV?$_Vector_iterator@V?$_Vector_val@U?$_Simple_types@U?$pair@OO@std@@@std@@@std@@@0@@Z"
	mov	qword ptr [rsp + 88], rax
	mov	rax, qword ptr [rsp + 120]
	mov	rcx, qword ptr [rsp + 104]
	sub	rax, rcx
	sar	rax, 4
	mov	qword ptr [rsp + 80], rax
	mov	rdx, qword ptr [rsp + 88]
	mov	rcx, qword ptr [rsp + 96]
	call	"??$distance@PEAU?$pair@OO@std@@@std@@YA_JPEAU?$pair@OO@0@0@Z"
	mov	qword ptr [rsp + 72], rax
	mov	rcx, qword ptr [rsp + 72]
	call	"??$_Convert_size@_K_K@std@@YA_K_K@Z"
	mov	rcx, qword ptr [rsp + 32]       # 8-byte Reload
	mov	qword ptr [rsp + 64], rax
	mov	r9, qword ptr [rsp + 64]
	mov	r8, qword ptr [rsp + 96]
	mov	rax, qword ptr [rsp + 152]
	mov	qword ptr [rsp + 56], rax
	mov	rdx, qword ptr [rsp + 56]
	call	"??$_Insert_counted_range@PEAU?$pair@OO@std@@@?$vector@U?$pair@OO@std@@V?$allocator@U?$pair@OO@std@@@2@@std@@AEAAXV?$_Vector_const_iterator@V?$_Vector_val@U?$_Simple_types@U?$pair@OO@std@@@std@@@std@@@1@PEAU?$pair@OO@1@_K@Z"
	mov	rcx, qword ptr [rsp + 32]       # 8-byte Reload
	mov	rdx, qword ptr [rsp + 40]       # 8-byte Reload
	mov	r8, qword ptr [rsp + 80]
	call	"?_Make_iterator_offset@?$vector@U?$pair@OO@std@@V?$allocator@U?$pair@OO@std@@@2@@std@@AEAA?AV?$_Vector_iterator@V?$_Vector_val@U?$_Simple_types@U?$pair@OO@std@@@std@@@std@@@2@_K@Z"
	mov	rax, qword ptr [rsp + 48]       # 8-byte Reload
	add	rsp, 168
	ret
	.seh_endproc
                                        # -- End function
	.def	"??E?$_Vector_const_iterator@V?$_Vector_val@U?$_Simple_types@UPoint@@@std@@@std@@@std@@QEAAAEAV01@XZ";
	.scl	2;
	.type	32;
	.endef
	.section	.text,"xr",discard,"??E?$_Vector_const_iterator@V?$_Vector_val@U?$_Simple_types@UPoint@@@std@@@std@@@std@@QEAAAEAV01@XZ"
	.globl	"??E?$_Vector_const_iterator@V?$_Vector_val@U?$_Simple_types@UPoint@@@std@@@std@@@std@@QEAAAEAV01@XZ" # -- Begin function ??E?$_Vector_const_iterator@V?$_Vector_val@U?$_Simple_types@UPoint@@@std@@@std@@@std@@QEAAAEAV01@XZ
	.p2align	4, 0x90
"??E?$_Vector_const_iterator@V?$_Vector_val@U?$_Simple_types@UPoint@@@std@@@std@@@std@@QEAAAEAV01@XZ": # @"??E?$_Vector_const_iterator@V?$_Vector_val@U?$_Simple_types@UPoint@@@std@@@std@@@std@@QEAAAEAV01@XZ"
.seh_proc "??E?$_Vector_const_iterator@V?$_Vector_val@U?$_Simple_types@UPoint@@@std@@@std@@@std@@QEAAAEAV01@XZ"
# %bb.0:
	push	rax
	.seh_stackalloc 8
	.seh_endprologue
	mov	qword ptr [rsp], rcx
	mov	rax, qword ptr [rsp]
	mov	rcx, qword ptr [rax]
	add	rcx, 24
	mov	qword ptr [rax], rcx
	pop	rcx
	ret
	.seh_endproc
                                        # -- End function
	.def	"??9?$_Vector_const_iterator@V?$_Vector_val@U?$_Simple_types@U?$pair@OO@std@@@std@@@std@@@std@@QEBA_NAEBV01@@Z";
	.scl	2;
	.type	32;
	.endef
	.section	.text,"xr",discard,"??9?$_Vector_const_iterator@V?$_Vector_val@U?$_Simple_types@U?$pair@OO@std@@@std@@@std@@@std@@QEBA_NAEBV01@@Z"
	.globl	"??9?$_Vector_const_iterator@V?$_Vector_val@U?$_Simple_types@U?$pair@OO@std@@@std@@@std@@@std@@QEBA_NAEBV01@@Z" # -- Begin function ??9?$_Vector_const_iterator@V?$_Vector_val@U?$_Simple_types@U?$pair@OO@std@@@std@@@std@@@std@@QEBA_NAEBV01@@Z
	.p2align	4, 0x90
"??9?$_Vector_const_iterator@V?$_Vector_val@U?$_Simple_types@U?$pair@OO@std@@@std@@@std@@@std@@QEBA_NAEBV01@@Z": # @"??9?$_Vector_const_iterator@V?$_Vector_val@U?$_Simple_types@U?$pair@OO@std@@@std@@@std@@@std@@QEBA_NAEBV01@@Z"
.seh_proc "??9?$_Vector_const_iterator@V?$_Vector_val@U?$_Simple_types@U?$pair@OO@std@@@std@@@std@@@std@@QEBA_NAEBV01@@Z"
# %bb.0:
	sub	rsp, 56
	.seh_stackalloc 56
	.seh_endprologue
	mov	qword ptr [rsp + 48], rdx
	mov	qword ptr [rsp + 40], rcx
	mov	rcx, qword ptr [rsp + 40]
	mov	rdx, qword ptr [rsp + 48]
	call	"??8?$_Vector_const_iterator@V?$_Vector_val@U?$_Simple_types@U?$pair@OO@std@@@std@@@std@@@std@@QEBA_NAEBV01@@Z"
	xor	al, -1
	and	al, 1
	add	rsp, 56
	ret
	.seh_endproc
                                        # -- End function
	.def	"??D?$_Vector_iterator@V?$_Vector_val@U?$_Simple_types@U?$pair@OO@std@@@std@@@std@@@std@@QEBAAEAU?$pair@OO@1@XZ";
	.scl	2;
	.type	32;
	.endef
	.section	.text,"xr",discard,"??D?$_Vector_iterator@V?$_Vector_val@U?$_Simple_types@U?$pair@OO@std@@@std@@@std@@@std@@QEBAAEAU?$pair@OO@1@XZ"
	.globl	"??D?$_Vector_iterator@V?$_Vector_val@U?$_Simple_types@U?$pair@OO@std@@@std@@@std@@@std@@QEBAAEAU?$pair@OO@1@XZ" # -- Begin function ??D?$_Vector_iterator@V?$_Vector_val@U?$_Simple_types@U?$pair@OO@std@@@std@@@std@@@std@@QEBAAEAU?$pair@OO@1@XZ
	.p2align	4, 0x90
"??D?$_Vector_iterator@V?$_Vector_val@U?$_Simple_types@U?$pair@OO@std@@@std@@@std@@@std@@QEBAAEAU?$pair@OO@1@XZ": # @"??D?$_Vector_iterator@V?$_Vector_val@U?$_Simple_types@U?$pair@OO@std@@@std@@@std@@@std@@QEBAAEAU?$pair@OO@1@XZ"
.seh_proc "??D?$_Vector_iterator@V?$_Vector_val@U?$_Simple_types@U?$pair@OO@std@@@std@@@std@@@std@@QEBAAEAU?$pair@OO@1@XZ"
# %bb.0:
	sub	rsp, 40
	.seh_stackalloc 40
	.seh_endprologue
	mov	qword ptr [rsp + 32], rcx
	mov	rcx, qword ptr [rsp + 32]
	call	"??D?$_Vector_const_iterator@V?$_Vector_val@U?$_Simple_types@U?$pair@OO@std@@@std@@@std@@@std@@QEBAAEBU?$pair@OO@1@XZ"
	nop
	add	rsp, 40
	ret
	.seh_endproc
                                        # -- End function
	.def	"??E?$_Vector_iterator@V?$_Vector_val@U?$_Simple_types@U?$pair@OO@std@@@std@@@std@@@std@@QEAAAEAV01@XZ";
	.scl	2;
	.type	32;
	.endef
	.section	.text,"xr",discard,"??E?$_Vector_iterator@V?$_Vector_val@U?$_Simple_types@U?$pair@OO@std@@@std@@@std@@@std@@QEAAAEAV01@XZ"
	.globl	"??E?$_Vector_iterator@V?$_Vector_val@U?$_Simple_types@U?$pair@OO@std@@@std@@@std@@@std@@QEAAAEAV01@XZ" # -- Begin function ??E?$_Vector_iterator@V?$_Vector_val@U?$_Simple_types@U?$pair@OO@std@@@std@@@std@@@std@@QEAAAEAV01@XZ
	.p2align	4, 0x90
"??E?$_Vector_iterator@V?$_Vector_val@U?$_Simple_types@U?$pair@OO@std@@@std@@@std@@@std@@QEAAAEAV01@XZ": # @"??E?$_Vector_iterator@V?$_Vector_val@U?$_Simple_types@U?$pair@OO@std@@@std@@@std@@@std@@QEAAAEAV01@XZ"
.seh_proc "??E?$_Vector_iterator@V?$_Vector_val@U?$_Simple_types@U?$pair@OO@std@@@std@@@std@@@std@@QEAAAEAV01@XZ"
# %bb.0:
	sub	rsp, 56
	.seh_stackalloc 56
	.seh_endprologue
	mov	qword ptr [rsp + 48], rcx
	mov	rcx, qword ptr [rsp + 48]
	mov	qword ptr [rsp + 40], rcx       # 8-byte Spill
	call	"??E?$_Vector_const_iterator@V?$_Vector_val@U?$_Simple_types@U?$pair@OO@std@@@std@@@std@@@std@@QEAAAEAV01@XZ"
                                        # kill: def $rcx killed $rax
	mov	rax, qword ptr [rsp + 40]       # 8-byte Reload
	add	rsp, 56
	ret
	.seh_endproc
                                        # -- End function
	.def	main;
	.scl	2;
	.type	32;
	.endef
	.globl	__real@7ff0000000000000         # -- Begin function main
	.section	.rdata,"dr",discard,__real@7ff0000000000000
	.p2align	3, 0x0
__real@7ff0000000000000:
	.quad	0x7ff0000000000000              # double +Inf
	.globl	__real@40d38afc7e364350
	.section	.rdata,"dr",discard,__real@40d38afc7e364350
	.p2align	3, 0x0
__real@40d38afc7e364350:
	.quad	0x40d38afc7e364350              # double 20011.94520336698
	.text
	.globl	main
	.p2align	4, 0x90
main:                                   # @main
.Lfunc_begin4:
.seh_proc main
	.seh_handler __CxxFrameHandler3, @unwind, @except
# %bb.0:
	push	rbp
	.seh_pushreg rbp
	sub	rsp, 944
	.seh_stackalloc 944
	lea	rbp, [rsp + 128]
	.seh_setframe rbp, 128
	.seh_endprologue
	mov	qword ptr [rbp + 808], -2
	mov	dword ptr [rbp + 804], 0
	xor	ecx, ecx
	call	"?sync_with_stdio@ios_base@std@@SA_N_N@Z"
	mov	rax, qword ptr [rip + "?cin@std@@3V?$basic_istream@DU?$char_traits@D@std@@@1@A"]
	movsxd	rax, dword ptr [rax + 4]
	lea	rcx, [rip + "?cin@std@@3V?$basic_istream@DU?$char_traits@D@std@@@1@A"]
	add	rcx, rax
	xor	eax, eax
	mov	edx, eax
	call	"?tie@?$basic_ios@DU?$char_traits@D@std@@@std@@QEAAPEAV?$basic_ostream@DU?$char_traits@D@std@@@2@PEAV32@@Z"
	lea	rcx, [rip + "?cout@std@@3V?$basic_ostream@DU?$char_traits@D@std@@@1@A"]
	lea	rdx, [rip + "?fixed@std@@YAAEAVios_base@1@AEAV21@@Z"]
	call	"??6?$basic_ostream@DU?$char_traits@D@std@@@std@@QEAAAEAV01@P6AAEAVios_base@1@AEAV21@@Z@Z"
	mov	qword ptr [rbp + 200], rax      # 8-byte Spill
	lea	rcx, [rbp + 784]
	mov	edx, 3
	call	"?setprecision@std@@YA?AU?$_Smanip@_J@1@_J@Z"
	mov	rcx, qword ptr [rbp + 200]      # 8-byte Reload
	lea	rdx, [rbp + 784]
	call	"??$?6DU?$char_traits@D@std@@@std@@YAAEAV?$basic_ostream@DU?$char_traits@D@std@@@0@AEAV10@AEBU?$_Smanip@_J@0@@Z"
	mov	dword ptr [rbp + 772], 1
.LBB62_1:                               # =>This Loop Header: Depth=1
                                        #     Child Loop BB62_3 Depth 2
                                        #     Child Loop BB62_9 Depth 2
                                        #     Child Loop BB62_13 Depth 2
                                        #       Child Loop BB62_15 Depth 3
                                        #         Child Loop BB62_18 Depth 4
                                        #     Child Loop BB62_28 Depth 2
                                        #     Child Loop BB62_32 Depth 2
                                        #     Child Loop BB62_38 Depth 2
                                        #     Child Loop BB62_42 Depth 2
                                        #       Child Loop BB62_44 Depth 3
                                        #     Child Loop BB62_58 Depth 2
                                        #       Child Loop BB62_60 Depth 3
                                        #         Child Loop BB62_62 Depth 4
                                        #     Child Loop BB62_75 Depth 2
                                        #       Child Loop BB62_82 Depth 3
                                        #       Child Loop BB62_86 Depth 3
                                        #         Child Loop BB62_88 Depth 4
                                        #       Child Loop BB62_97 Depth 3
                                        #         Child Loop BB62_99 Depth 4
                                        #           Child Loop BB62_101 Depth 5
	lea	rcx, [rip + "?cin@std@@3V?$basic_istream@DU?$char_traits@D@std@@@1@A"]
	lea	rdx, [rbp + 780]
	call	"??5?$basic_istream@DU?$char_traits@D@std@@@std@@QEAAAEAV01@AEAH@Z"
	mov	rcx, rax
	lea	rdx, [rbp + 760]
	call	"??5?$basic_istream@DU?$char_traits@D@std@@@std@@QEAAAEAV01@AEAO@Z"
	mov	rcx, rax
	mov	rax, qword ptr [rcx]
	movsxd	rax, dword ptr [rax + 4]
	add	rcx, rax
	call	"??Bios_base@std@@QEBA_NXZ"
	test	al, 1
	jne	.LBB62_2
	jmp	.LBB62_124
.LBB62_2:                               #   in Loop: Header=BB62_1 Depth=1
	lea	rcx, [rbp + 735]
	call	"??0?$allocator@UPoint@@@std@@QEAA@XZ"
	movsxd	rdx, dword ptr [rbp + 780]
	lea	rcx, [rbp + 736]
	lea	r8, [rbp + 735]
	call	"??0?$vector@UPoint@@V?$allocator@UPoint@@@std@@@std@@QEAA@_KAEBV?$allocator@UPoint@@@1@@Z"
	mov	dword ptr [rbp + 728], 0
.LBB62_3:                               #   Parent Loop BB62_1 Depth=1
                                        # =>  This Inner Loop Header: Depth=2
	mov	eax, dword ptr [rbp + 728]
	cmp	eax, dword ptr [rbp + 780]
	jge	.LBB62_7
# %bb.4:                                #   in Loop: Header=BB62_3 Depth=2
.Ltmp86:
	lea	rcx, [rip + "?cin@std@@3V?$basic_istream@DU?$char_traits@D@std@@@1@A"]
	lea	rdx, [rbp + 712]
	call	"??5?$basic_istream@DU?$char_traits@D@std@@@std@@QEAAAEAV01@AEAO@Z"
.Ltmp87:
	mov	qword ptr [rbp + 192], rax      # 8-byte Spill
	jmp	.LBB62_5
.LBB62_5:                               #   in Loop: Header=BB62_3 Depth=2
.Ltmp88:
	mov	rcx, qword ptr [rbp + 192]      # 8-byte Reload
	lea	rdx, [rbp + 720]
	call	"??5?$basic_istream@DU?$char_traits@D@std@@@std@@QEAAAEAV01@AEAO@Z"
.Ltmp89:
	jmp	.LBB62_6
.LBB62_6:                               #   in Loop: Header=BB62_3 Depth=2
	movsd	xmm2, qword ptr [rbp + 712]     # xmm2 = mem[0],zero
	movsd	xmm1, qword ptr [rbp + 720]     # xmm1 = mem[0],zero
	lea	rcx, [rbp + 688]
	call	"?lat_lon_to_xyz@@YA?AUPoint@@OO@Z"
	movsxd	rdx, dword ptr [rbp + 728]
	lea	rcx, [rbp + 736]
	call	"??A?$vector@UPoint@@V?$allocator@UPoint@@@std@@@std@@QEAAAEAUPoint@@_K@Z"
	mov	rcx, qword ptr [rbp + 688]
	mov	qword ptr [rax], rcx
	mov	rcx, qword ptr [rbp + 696]
	mov	qword ptr [rax + 8], rcx
	mov	rcx, qword ptr [rbp + 704]
	mov	qword ptr [rax + 16], rcx
	mov	eax, dword ptr [rbp + 728]
	add	eax, 1
	mov	dword ptr [rbp + 728], eax
	jmp	.LBB62_3
.LBB62_7:                               #   in Loop: Header=BB62_1 Depth=1
.Ltmp32:
	lea	rcx, [rbp + 672]
	call	"??0?$set@UPoint@@UCompare@1@V?$allocator@UPoint@@@std@@@std@@QEAA@XZ"
.Ltmp33:
	jmp	.LBB62_8
.LBB62_8:                               #   in Loop: Header=BB62_1 Depth=1
	lea	rax, [rbp + 736]
	mov	qword ptr [rbp + 664], rax
	mov	rcx, qword ptr [rbp + 664]
	lea	rdx, [rbp + 656]
	call	"?begin@?$vector@UPoint@@V?$allocator@UPoint@@@std@@@std@@QEAA?AV?$_Vector_iterator@V?$_Vector_val@U?$_Simple_types@UPoint@@@std@@@std@@@2@XZ"
	mov	rcx, qword ptr [rbp + 664]
	lea	rdx, [rbp + 648]
	call	"?end@?$vector@UPoint@@V?$allocator@UPoint@@@std@@@std@@QEAA?AV?$_Vector_iterator@V?$_Vector_val@U?$_Simple_types@UPoint@@@std@@@std@@@2@XZ"
.LBB62_9:                               #   Parent Loop BB62_1 Depth=1
                                        # =>  This Inner Loop Header: Depth=2
	lea	rcx, [rbp + 656]
	lea	rdx, [rbp + 648]
	call	"??9?$_Vector_const_iterator@V?$_Vector_val@U?$_Simple_types@UPoint@@@std@@@std@@@std@@QEBA_NAEBV01@@Z"
	test	al, 1
	jne	.LBB62_10
	jmp	.LBB62_12
.LBB62_10:                              #   in Loop: Header=BB62_9 Depth=2
	lea	rcx, [rbp + 656]
	call	"??D?$_Vector_iterator@V?$_Vector_val@U?$_Simple_types@UPoint@@@std@@@std@@@std@@QEBAAEAUPoint@@XZ"
	mov	qword ptr [rbp + 640], rax
	mov	r8, qword ptr [rbp + 640]
.Ltmp84:
	lea	rcx, [rbp + 672]
	lea	rdx, [rbp + 624]
	call	"??$insert@$0A@$0A@@?$_Tree@V?$_Tset_traits@UPoint@@UCompare@1@V?$allocator@UPoint@@@std@@$0A@@std@@@std@@QEAA?AU?$pair@V?$_Tree_const_iterator@V?$_Tree_val@U?$_Tree_simple_types@UPoint@@@std@@@std@@@std@@_N@1@AEBUPoint@@@Z"
.Ltmp85:
	jmp	.LBB62_11
.LBB62_11:                              #   in Loop: Header=BB62_9 Depth=2
	lea	rcx, [rbp + 656]
	call	"??E?$_Vector_iterator@V?$_Vector_val@U?$_Simple_types@UPoint@@@std@@@std@@@std@@QEAAAEAV01@XZ"
	jmp	.LBB62_9
.LBB62_12:                              #   in Loop: Header=BB62_1 Depth=1
	mov	dword ptr [rbp + 620], 0
.LBB62_13:                              #   Parent Loop BB62_1 Depth=1
                                        # =>  This Loop Header: Depth=2
                                        #       Child Loop BB62_15 Depth 3
                                        #         Child Loop BB62_18 Depth 4
	mov	eax, dword ptr [rbp + 620]
	cmp	eax, dword ptr [rbp + 780]
	jge	.LBB62_24
# %bb.14:                               #   in Loop: Header=BB62_13 Depth=2
	mov	eax, dword ptr [rbp + 620]
	add	eax, 1
	mov	dword ptr [rbp + 616], eax
.LBB62_15:                              #   Parent Loop BB62_1 Depth=1
                                        #     Parent Loop BB62_13 Depth=2
                                        # =>    This Loop Header: Depth=3
                                        #         Child Loop BB62_18 Depth 4
	mov	eax, dword ptr [rbp + 616]
	cmp	eax, dword ptr [rbp + 780]
	jge	.LBB62_23
# %bb.16:                               #   in Loop: Header=BB62_15 Depth=3
	movsd	xmm0, qword ptr [rbp + 760]     # xmm0 = mem[0],zero
	movsd	qword ptr [rbp + 184], xmm0     # 8-byte Spill
	movsxd	rdx, dword ptr [rbp + 616]
	lea	rcx, [rbp + 736]
	mov	qword ptr [rbp + 168], rcx      # 8-byte Spill
	call	"??A?$vector@UPoint@@V?$allocator@UPoint@@@std@@@std@@QEAAAEAUPoint@@_K@Z"
	mov	rcx, qword ptr [rbp + 168]      # 8-byte Reload
	mov	qword ptr [rbp + 176], rax      # 8-byte Spill
	movsxd	rdx, dword ptr [rbp + 620]
	call	"??A?$vector@UPoint@@V?$allocator@UPoint@@@std@@@std@@QEAAAEAUPoint@@_K@Z"
	mov	r8, qword ptr [rbp + 176]       # 8-byte Reload
	movsd	xmm3, qword ptr [rbp + 184]     # 8-byte Reload
                                        # xmm3 = mem[0],zero
	mov	rdx, rax
.Ltmp80:
	lea	rcx, [rbp + 592]
	call	"?get_small_circle_intersections@@YA?AV?$vector@UPoint@@V?$allocator@UPoint@@@std@@@std@@AEBUPoint@@0O@Z"
.Ltmp81:
	jmp	.LBB62_17
.LBB62_17:                              #   in Loop: Header=BB62_15 Depth=3
	lea	rax, [rbp + 592]
	mov	qword ptr [rbp + 584], rax
	mov	rcx, qword ptr [rbp + 584]
	lea	rdx, [rbp + 576]
	call	"?begin@?$vector@UPoint@@V?$allocator@UPoint@@@std@@@std@@QEAA?AV?$_Vector_iterator@V?$_Vector_val@U?$_Simple_types@UPoint@@@std@@@std@@@2@XZ"
	mov	rcx, qword ptr [rbp + 584]
	lea	rdx, [rbp + 568]
	call	"?end@?$vector@UPoint@@V?$allocator@UPoint@@@std@@@std@@QEAA?AV?$_Vector_iterator@V?$_Vector_val@U?$_Simple_types@UPoint@@@std@@@std@@@2@XZ"
.LBB62_18:                              #   Parent Loop BB62_1 Depth=1
                                        #     Parent Loop BB62_13 Depth=2
                                        #       Parent Loop BB62_15 Depth=3
                                        # =>      This Inner Loop Header: Depth=4
	lea	rcx, [rbp + 576]
	lea	rdx, [rbp + 568]
	call	"??9?$_Vector_const_iterator@V?$_Vector_val@U?$_Simple_types@UPoint@@@std@@@std@@@std@@QEBA_NAEBV01@@Z"
	test	al, 1
	jne	.LBB62_19
	jmp	.LBB62_21
.LBB62_19:                              #   in Loop: Header=BB62_18 Depth=4
	lea	rcx, [rbp + 576]
	call	"??D?$_Vector_iterator@V?$_Vector_val@U?$_Simple_types@UPoint@@@std@@@std@@@std@@QEBAAEAUPoint@@XZ"
	mov	qword ptr [rbp + 560], rax
	mov	r8, qword ptr [rbp + 560]
.Ltmp82:
	lea	rcx, [rbp + 672]
	lea	rdx, [rbp + 544]
	call	"??$insert@$0A@$0A@@?$_Tree@V?$_Tset_traits@UPoint@@UCompare@1@V?$allocator@UPoint@@@std@@$0A@@std@@@std@@QEAA?AU?$pair@V?$_Tree_const_iterator@V?$_Tree_val@U?$_Tree_simple_types@UPoint@@@std@@@std@@@std@@_N@1@AEBUPoint@@@Z"
.Ltmp83:
	jmp	.LBB62_20
.LBB62_20:                              #   in Loop: Header=BB62_18 Depth=4
	lea	rcx, [rbp + 576]
	call	"??E?$_Vector_iterator@V?$_Vector_val@U?$_Simple_types@UPoint@@@std@@@std@@@std@@QEAAAEAV01@XZ"
	jmp	.LBB62_18
.LBB62_21:                              #   in Loop: Header=BB62_15 Depth=3
	lea	rcx, [rbp + 592]
	call	"??1?$vector@UPoint@@V?$allocator@UPoint@@@std@@@std@@QEAA@XZ"
	mov	eax, dword ptr [rbp + 616]
	add	eax, 1
	mov	dword ptr [rbp + 616], eax
	jmp	.LBB62_15
.LBB62_23:                              #   in Loop: Header=BB62_13 Depth=2
	mov	eax, dword ptr [rbp + 620]
	add	eax, 1
	mov	dword ptr [rbp + 620], eax
	jmp	.LBB62_13
.LBB62_24:                              #   in Loop: Header=BB62_1 Depth=1
	lea	rcx, [rbp + 519]
	mov	qword ptr [rbp + 160], rcx      # 8-byte Spill
	call	"??0?$allocator@UPoint@@@std@@QEAA@XZ"
	lea	rcx, [rbp + 672]
	mov	qword ptr [rbp + 152], rcx      # 8-byte Spill
	lea	rdx, [rbp + 504]
	call	"?end@?$_Tree@V?$_Tset_traits@UPoint@@UCompare@1@V?$allocator@UPoint@@@std@@$0A@@std@@@std@@QEAA?AV?$_Tree_const_iterator@V?$_Tree_val@U?$_Tree_simple_types@UPoint@@@std@@@std@@@2@XZ"
	mov	rcx, qword ptr [rbp + 152]      # 8-byte Reload
	lea	rdx, [rbp + 496]
	call	"?begin@?$_Tree@V?$_Tset_traits@UPoint@@UCompare@1@V?$allocator@UPoint@@@std@@$0A@@std@@@std@@QEAA?AV?$_Tree_const_iterator@V?$_Tree_val@U?$_Tree_simple_types@UPoint@@@std@@@std@@@2@XZ"
	mov	r9, qword ptr [rbp + 160]       # 8-byte Reload
	mov	rdx, qword ptr [rbp + 496]
	mov	r8, qword ptr [rbp + 504]
.Ltmp34:
	lea	rcx, [rbp + 520]
	call	"??$?0V?$_Tree_const_iterator@V?$_Tree_val@U?$_Tree_simple_types@UPoint@@@std@@@std@@@std@@$0A@@?$vector@UPoint@@V?$allocator@UPoint@@@std@@@std@@QEAA@V?$_Tree_const_iterator@V?$_Tree_val@U?$_Tree_simple_types@UPoint@@@std@@@std@@@1@0AEBV?$allocator@UPoint@@@1@@Z"
.Ltmp35:
	jmp	.LBB62_25
.LBB62_25:                              #   in Loop: Header=BB62_1 Depth=1
.Ltmp36:
	lea	rcx, [rbp + 480]
	call	"??0?$map@UPoint@@HUCompare@1@V?$allocator@U?$pair@$$CBUPoint@@H@std@@@std@@@std@@QEAA@XZ"
.Ltmp37:
	jmp	.LBB62_26
.LBB62_26:                              #   in Loop: Header=BB62_1 Depth=1
	lea	rcx, [rbp + 455]
	mov	qword ptr [rbp + 144], rcx      # 8-byte Spill
	call	"??0?$allocator@H@std@@QEAA@XZ"
	mov	r8, qword ptr [rbp + 144]       # 8-byte Reload
	movsxd	rdx, dword ptr [rbp + 780]
.Ltmp38:
	lea	rcx, [rbp + 456]
	call	"??0?$vector@HV?$allocator@H@std@@@std@@QEAA@_KAEBV?$allocator@H@1@@Z"
.Ltmp39:
	jmp	.LBB62_27
.LBB62_27:                              #   in Loop: Header=BB62_1 Depth=1
	mov	dword ptr [rbp + 448], 0
.LBB62_28:                              #   Parent Loop BB62_1 Depth=1
                                        # =>  This Inner Loop Header: Depth=2
	movsxd	rax, dword ptr [rbp + 448]
	mov	qword ptr [rbp + 136], rax      # 8-byte Spill
	lea	rcx, [rbp + 520]
	call	"?size@?$vector@UPoint@@V?$allocator@UPoint@@@std@@@std@@QEBA_KXZ"
	mov	rcx, rax
	mov	rax, qword ptr [rbp + 136]      # 8-byte Reload
	cmp	rax, rcx
	jae	.LBB62_31
# %bb.29:                               #   in Loop: Header=BB62_28 Depth=2
	mov	eax, dword ptr [rbp + 448]
	mov	dword ptr [rbp + 124], eax      # 4-byte Spill
	movsxd	rdx, eax
	lea	rcx, [rbp + 520]
	call	"??A?$vector@UPoint@@V?$allocator@UPoint@@@std@@@std@@QEAAAEAUPoint@@_K@Z"
	mov	rdx, rax
.Ltmp78:
	lea	rcx, [rbp + 480]
	call	"??A?$map@UPoint@@HUCompare@1@V?$allocator@U?$pair@$$CBUPoint@@H@std@@@std@@@std@@QEAAAEAHAEBUPoint@@@Z"
.Ltmp79:
	mov	qword ptr [rbp + 128], rax      # 8-byte Spill
	jmp	.LBB62_30
.LBB62_30:                              #   in Loop: Header=BB62_28 Depth=2
	mov	rax, qword ptr [rbp + 128]      # 8-byte Reload
	mov	ecx, dword ptr [rbp + 124]      # 4-byte Reload
	mov	dword ptr [rax], ecx
	mov	eax, dword ptr [rbp + 448]
	add	eax, 1
	mov	dword ptr [rbp + 448], eax
	jmp	.LBB62_28
.LBB62_31:                              #   in Loop: Header=BB62_1 Depth=1
	mov	dword ptr [rbp + 444], 0
.LBB62_32:                              #   Parent Loop BB62_1 Depth=1
                                        # =>  This Inner Loop Header: Depth=2
	mov	eax, dword ptr [rbp + 444]
	cmp	eax, dword ptr [rbp + 780]
	jge	.LBB62_35
# %bb.33:                               #   in Loop: Header=BB62_32 Depth=2
	movsxd	rdx, dword ptr [rbp + 444]
	lea	rcx, [rbp + 736]
	call	"??A?$vector@UPoint@@V?$allocator@UPoint@@@std@@@std@@QEAAAEAUPoint@@_K@Z"
	mov	rdx, rax
.Ltmp76:
	lea	rcx, [rbp + 480]
	call	"??A?$map@UPoint@@HUCompare@1@V?$allocator@U?$pair@$$CBUPoint@@H@std@@@std@@@std@@QEAAAEAHAEBUPoint@@@Z"
.Ltmp77:
	mov	qword ptr [rbp + 112], rax      # 8-byte Spill
	jmp	.LBB62_34
.LBB62_34:                              #   in Loop: Header=BB62_32 Depth=2
	mov	rax, qword ptr [rbp + 112]      # 8-byte Reload
	mov	eax, dword ptr [rax]
	mov	dword ptr [rbp + 108], eax      # 4-byte Spill
	movsxd	rdx, dword ptr [rbp + 444]
	lea	rcx, [rbp + 456]
	call	"??A?$vector@HV?$allocator@H@std@@@std@@QEAAAEAH_K@Z"
	mov	ecx, dword ptr [rbp + 108]      # 4-byte Reload
	mov	dword ptr [rax], ecx
	mov	eax, dword ptr [rbp + 444]
	add	eax, 1
	mov	dword ptr [rbp + 444], eax
	jmp	.LBB62_32
.LBB62_35:                              #   in Loop: Header=BB62_1 Depth=1
	lea	rcx, [rbp + 520]
	call	"?size@?$vector@UPoint@@V?$allocator@UPoint@@@std@@@std@@QEBA_KXZ"
                                        # kill: def $eax killed $eax killed $rax
	mov	dword ptr [rbp + 440], eax
	lea	rcx, [rbp + 415]
	call	"??0?$allocator@V?$vector@OV?$allocator@O@std@@@std@@@std@@QEAA@XZ"
	lea	rcx, [rbp + 383]
	mov	qword ptr [rbp + 96], rcx       # 8-byte Spill
	call	"??0?$allocator@O@std@@QEAA@XZ"
	mov	r9, qword ptr [rbp + 96]        # 8-byte Reload
	movsxd	rdx, dword ptr [rbp + 440]
.Ltmp40:
	lea	r8, [rip + INF]
	lea	rcx, [rbp + 384]
	call	"??0?$vector@OV?$allocator@O@std@@@std@@QEAA@_KAEBOAEBV?$allocator@O@1@@Z"
.Ltmp41:
	jmp	.LBB62_36
.LBB62_36:                              #   in Loop: Header=BB62_1 Depth=1
	movsxd	rdx, dword ptr [rbp + 440]
.Ltmp42:
	lea	rcx, [rbp + 416]
	lea	r8, [rbp + 384]
	lea	r9, [rbp + 415]
	call	"??0?$vector@V?$vector@OV?$allocator@O@std@@@std@@V?$allocator@V?$vector@OV?$allocator@O@std@@@std@@@2@@std@@QEAA@_KAEBV?$vector@OV?$allocator@O@std@@@1@AEBV?$allocator@V?$vector@OV?$allocator@O@std@@@std@@@1@@Z"
.Ltmp43:
	jmp	.LBB62_37
.LBB62_37:                              #   in Loop: Header=BB62_1 Depth=1
	lea	rcx, [rbp + 384]
	call	"??1?$vector@OV?$allocator@O@std@@@std@@QEAA@XZ"
	mov	dword ptr [rbp + 376], 0
.LBB62_38:                              #   Parent Loop BB62_1 Depth=1
                                        # =>  This Inner Loop Header: Depth=2
	mov	eax, dword ptr [rbp + 376]
	cmp	eax, dword ptr [rbp + 440]
	jge	.LBB62_41
# %bb.39:                               #   in Loop: Header=BB62_38 Depth=2
	movsxd	rdx, dword ptr [rbp + 376]
	lea	rcx, [rbp + 416]
	call	"??A?$vector@V?$vector@OV?$allocator@O@std@@@std@@V?$allocator@V?$vector@OV?$allocator@O@std@@@std@@@2@@std@@QEAAAEAV?$vector@OV?$allocator@O@std@@@1@_K@Z"
	mov	rcx, rax
	movsxd	rdx, dword ptr [rbp + 376]
	call	"??A?$vector@OV?$allocator@O@std@@@std@@QEAAAEAO_K@Z"
	xorps	xmm0, xmm0
	movsd	qword ptr [rax], xmm0
	mov	eax, dword ptr [rbp + 376]
	add	eax, 1
	mov	dword ptr [rbp + 376], eax
	jmp	.LBB62_38
.LBB62_41:                              #   in Loop: Header=BB62_1 Depth=1
	mov	dword ptr [rbp + 372], 0
.LBB62_42:                              #   Parent Loop BB62_1 Depth=1
                                        # =>  This Loop Header: Depth=2
                                        #       Child Loop BB62_44 Depth 3
	mov	eax, dword ptr [rbp + 372]
	cmp	eax, dword ptr [rbp + 440]
	jge	.LBB62_57
# %bb.43:                               #   in Loop: Header=BB62_42 Depth=2
	mov	eax, dword ptr [rbp + 372]
	add	eax, 1
	mov	dword ptr [rbp + 368], eax
.LBB62_44:                              #   Parent Loop BB62_1 Depth=1
                                        #     Parent Loop BB62_42 Depth=2
                                        # =>    This Inner Loop Header: Depth=3
	mov	eax, dword ptr [rbp + 368]
	cmp	eax, dword ptr [rbp + 440]
	jge	.LBB62_56
# %bb.45:                               #   in Loop: Header=BB62_44 Depth=3
	movsxd	rdx, dword ptr [rbp + 368]
	lea	rcx, [rbp + 520]
	call	"??A?$vector@UPoint@@V?$allocator@UPoint@@@std@@@std@@QEAAAEAUPoint@@_K@Z"
	mov	qword ptr [rbp + 88], rax       # 8-byte Spill
	movsxd	rdx, dword ptr [rbp + 372]
	lea	rcx, [rbp + 520]
	call	"??A?$vector@UPoint@@V?$allocator@UPoint@@@std@@@std@@QEAAAEAUPoint@@_K@Z"
	mov	rdx, qword ptr [rbp + 88]       # 8-byte Reload
	mov	rcx, rax
	call	"?dist_xyz@@YAOAEBUPoint@@0@Z"
	movsd	qword ptr [rbp + 360], xmm0
	mov	byte ptr [rbp + 359], 0
	movsd	xmm0, qword ptr [rip + __real@3e112e0be826d695] # xmm0 = [1.0000000000000001E-9,0.0E+0]
	ucomisd	xmm0, qword ptr [rbp + 360]
	jbe	.LBB62_47
# %bb.46:                               #   in Loop: Header=BB62_44 Depth=3
	mov	byte ptr [rbp + 359], 1
	jmp	.LBB62_53
.LBB62_47:                              #   in Loop: Header=BB62_44 Depth=3
	movsd	xmm0, qword ptr [rbp + 360]     # xmm0 = mem[0],zero
	movsd	xmm1, qword ptr [rip + __real@40d38afc7e364350] # xmm1 = [2.001194520336698E+4,0.0E+0]
	subsd	xmm0, xmm1
	call	"?abs@@YAOO@Z"
	movaps	xmm1, xmm0
	movsd	xmm0, qword ptr [rip + __real@3e112e0be826d695] # xmm0 = [1.0000000000000001E-9,0.0E+0]
	ucomisd	xmm0, xmm1
	jbe	.LBB62_50
# %bb.48:                               #   in Loop: Header=BB62_44 Depth=3
	movsd	xmm0, qword ptr [rbp + 760]     # xmm0 = mem[0],zero
	movsd	qword ptr [rbp + 72], xmm0      # 8-byte Spill
	movsxd	rdx, dword ptr [rbp + 368]
	lea	rcx, [rbp + 520]
	mov	qword ptr [rbp + 56], rcx       # 8-byte Spill
	call	"??A?$vector@UPoint@@V?$allocator@UPoint@@@std@@@std@@QEAAAEAUPoint@@_K@Z"
	mov	rcx, qword ptr [rbp + 56]       # 8-byte Reload
	mov	qword ptr [rbp + 64], rax       # 8-byte Spill
	movsxd	rdx, dword ptr [rbp + 372]
	call	"??A?$vector@UPoint@@V?$allocator@UPoint@@@std@@@std@@QEAAAEAUPoint@@_K@Z"
	mov	rdx, qword ptr [rbp + 64]       # 8-byte Reload
	movsd	xmm3, qword ptr [rbp + 72]      # 8-byte Reload
                                        # xmm3 = mem[0],zero
	mov	rcx, rax
.Ltmp74:
	lea	r8, [rbp + 736]
	call	"?is_arc_safe@@YA_NAEBUPoint@@0AEBV?$vector@UPoint@@V?$allocator@UPoint@@@std@@@std@@O@Z"
.Ltmp75:
	mov	byte ptr [rbp + 87], al         # 1-byte Spill
	jmp	.LBB62_49
.LBB62_49:                              #   in Loop: Header=BB62_44 Depth=3
	mov	al, byte ptr [rbp + 87]         # 1-byte Reload
	and	al, 1
	mov	byte ptr [rbp + 359], al
	jmp	.LBB62_52
.LBB62_50:                              #   in Loop: Header=BB62_44 Depth=3
	movsd	xmm0, qword ptr [rbp + 760]     # xmm0 = mem[0],zero
	movsd	qword ptr [rbp + 40], xmm0      # 8-byte Spill
	movsxd	rdx, dword ptr [rbp + 368]
	lea	rcx, [rbp + 520]
	mov	qword ptr [rbp + 24], rcx       # 8-byte Spill
	call	"??A?$vector@UPoint@@V?$allocator@UPoint@@@std@@@std@@QEAAAEAUPoint@@_K@Z"
	mov	rcx, qword ptr [rbp + 24]       # 8-byte Reload
	mov	qword ptr [rbp + 32], rax       # 8-byte Spill
	movsxd	rdx, dword ptr [rbp + 372]
	call	"??A?$vector@UPoint@@V?$allocator@UPoint@@@std@@@std@@QEAAAEAUPoint@@_K@Z"
	mov	rdx, qword ptr [rbp + 32]       # 8-byte Reload
	movsd	xmm3, qword ptr [rbp + 40]      # 8-byte Reload
                                        # xmm3 = mem[0],zero
	mov	rcx, rax
.Ltmp72:
	lea	r8, [rbp + 736]
	call	"?is_arc_safe@@YA_NAEBUPoint@@0AEBV?$vector@UPoint@@V?$allocator@UPoint@@@std@@@std@@O@Z"
.Ltmp73:
	mov	byte ptr [rbp + 55], al         # 1-byte Spill
	jmp	.LBB62_51
.LBB62_51:                              #   in Loop: Header=BB62_44 Depth=3
	mov	al, byte ptr [rbp + 55]         # 1-byte Reload
	and	al, 1
	mov	byte ptr [rbp + 359], al
.LBB62_52:                              #   in Loop: Header=BB62_44 Depth=3
	jmp	.LBB62_53
.LBB62_53:                              #   in Loop: Header=BB62_44 Depth=3
	test	byte ptr [rbp + 359], 1
	je	.LBB62_55
# %bb.54:                               #   in Loop: Header=BB62_44 Depth=3
	movsd	xmm0, qword ptr [rbp + 360]     # xmm0 = mem[0],zero
	movsd	qword ptr [rbp + 16], xmm0      # 8-byte Spill
	movsxd	rdx, dword ptr [rbp + 368]
	lea	rcx, [rbp + 416]
	call	"??A?$vector@V?$vector@OV?$allocator@O@std@@@std@@V?$allocator@V?$vector@OV?$allocator@O@std@@@std@@@2@@std@@QEAAAEAV?$vector@OV?$allocator@O@std@@@1@_K@Z"
	mov	rcx, rax
	movsxd	rdx, dword ptr [rbp + 372]
	call	"??A?$vector@OV?$allocator@O@std@@@std@@QEAAAEAO_K@Z"
	movsd	xmm0, qword ptr [rbp + 16]      # 8-byte Reload
                                        # xmm0 = mem[0],zero
	movsd	qword ptr [rax], xmm0
	movsxd	rdx, dword ptr [rbp + 372]
	lea	rcx, [rbp + 416]
	call	"??A?$vector@V?$vector@OV?$allocator@O@std@@@std@@V?$allocator@V?$vector@OV?$allocator@O@std@@@std@@@2@@std@@QEAAAEAV?$vector@OV?$allocator@O@std@@@1@_K@Z"
	mov	rcx, rax
	movsxd	rdx, dword ptr [rbp + 368]
	call	"??A?$vector@OV?$allocator@O@std@@@std@@QEAAAEAO_K@Z"
	movsd	xmm0, qword ptr [rbp + 16]      # 8-byte Reload
                                        # xmm0 = mem[0],zero
	movsd	qword ptr [rax], xmm0
.LBB62_55:                              #   in Loop: Header=BB62_44 Depth=3
	mov	eax, dword ptr [rbp + 368]
	add	eax, 1
	mov	dword ptr [rbp + 368], eax
	jmp	.LBB62_44
.LBB62_56:                              #   in Loop: Header=BB62_42 Depth=2
	mov	eax, dword ptr [rbp + 372]
	add	eax, 1
	mov	dword ptr [rbp + 372], eax
	jmp	.LBB62_42
.LBB62_57:                              #   in Loop: Header=BB62_1 Depth=1
	mov	dword ptr [rbp + 352], 0
.LBB62_58:                              #   Parent Loop BB62_1 Depth=1
                                        # =>  This Loop Header: Depth=2
                                        #       Child Loop BB62_60 Depth 3
                                        #         Child Loop BB62_62 Depth 4
	mov	eax, dword ptr [rbp + 352]
	cmp	eax, dword ptr [rbp + 440]
	jge	.LBB62_69
# %bb.59:                               #   in Loop: Header=BB62_58 Depth=2
	mov	dword ptr [rbp + 348], 0
.LBB62_60:                              #   Parent Loop BB62_1 Depth=1
                                        #     Parent Loop BB62_58 Depth=2
                                        # =>    This Loop Header: Depth=3
                                        #         Child Loop BB62_62 Depth 4
	mov	eax, dword ptr [rbp + 348]
	cmp	eax, dword ptr [rbp + 440]
	jge	.LBB62_68
# %bb.61:                               #   in Loop: Header=BB62_60 Depth=3
	mov	dword ptr [rbp + 344], 0
.LBB62_62:                              #   Parent Loop BB62_1 Depth=1
                                        #     Parent Loop BB62_58 Depth=2
                                        #       Parent Loop BB62_60 Depth=3
                                        # =>      This Inner Loop Header: Depth=4
	mov	eax, dword ptr [rbp + 344]
	cmp	eax, dword ptr [rbp + 440]
	jge	.LBB62_67
# %bb.63:                               #   in Loop: Header=BB62_62 Depth=4
	movsxd	rdx, dword ptr [rbp + 348]
	lea	rcx, [rbp + 416]
	call	"??A?$vector@V?$vector@OV?$allocator@O@std@@@std@@V?$allocator@V?$vector@OV?$allocator@O@std@@@std@@@2@@std@@QEAAAEAV?$vector@OV?$allocator@O@std@@@1@_K@Z"
	mov	rcx, rax
	movsxd	rdx, dword ptr [rbp + 352]
	call	"??A?$vector@OV?$allocator@O@std@@@std@@QEAAAEAO_K@Z"
	movsd	xmm0, qword ptr [rax]           # xmm0 = mem[0],zero
	movsd	xmm1, qword ptr [rip + __real@7ff0000000000000] # xmm1 = [+Inf,0.0E+0]
	ucomisd	xmm0, xmm1
	jne	.LBB62_64
	jp	.LBB62_64
	jmp	.LBB62_66
.LBB62_64:                              #   in Loop: Header=BB62_62 Depth=4
	movsxd	rdx, dword ptr [rbp + 352]
	lea	rcx, [rbp + 416]
	call	"??A?$vector@V?$vector@OV?$allocator@O@std@@@std@@V?$allocator@V?$vector@OV?$allocator@O@std@@@std@@@2@@std@@QEAAAEAV?$vector@OV?$allocator@O@std@@@1@_K@Z"
	mov	rcx, rax
	movsxd	rdx, dword ptr [rbp + 344]
	call	"??A?$vector@OV?$allocator@O@std@@@std@@QEAAAEAO_K@Z"
	movsd	xmm0, qword ptr [rax]           # xmm0 = mem[0],zero
	movsd	xmm1, qword ptr [rip + __real@7ff0000000000000] # xmm1 = [+Inf,0.0E+0]
	ucomisd	xmm0, xmm1
	jne	.LBB62_65
	jp	.LBB62_65
	jmp	.LBB62_66
.LBB62_65:                              #   in Loop: Header=BB62_62 Depth=4
	movsxd	rdx, dword ptr [rbp + 348]
	lea	rcx, [rbp + 416]
	call	"??A?$vector@V?$vector@OV?$allocator@O@std@@@std@@V?$allocator@V?$vector@OV?$allocator@O@std@@@std@@@2@@std@@QEAAAEAV?$vector@OV?$allocator@O@std@@@1@_K@Z"
	mov	rcx, rax
	movsxd	rdx, dword ptr [rbp + 352]
	call	"??A?$vector@OV?$allocator@O@std@@@std@@QEAAAEAO_K@Z"
	movsd	xmm0, qword ptr [rax]           # xmm0 = mem[0],zero
	movsd	qword ptr [rbp], xmm0           # 8-byte Spill
	movsxd	rdx, dword ptr [rbp + 352]
	lea	rcx, [rbp + 416]
	call	"??A?$vector@V?$vector@OV?$allocator@O@std@@@std@@V?$allocator@V?$vector@OV?$allocator@O@std@@@std@@@2@@std@@QEAAAEAV?$vector@OV?$allocator@O@std@@@1@_K@Z"
	mov	rcx, rax
	movsxd	rdx, dword ptr [rbp + 344]
	call	"??A?$vector@OV?$allocator@O@std@@@std@@QEAAAEAO_K@Z"
	movsd	xmm0, qword ptr [rbp]           # 8-byte Reload
                                        # xmm0 = mem[0],zero
	addsd	xmm0, qword ptr [rax]
	movsd	qword ptr [rbp + 336], xmm0
	movsxd	rdx, dword ptr [rbp + 348]
	lea	rcx, [rbp + 416]
	call	"??A?$vector@V?$vector@OV?$allocator@O@std@@@std@@V?$allocator@V?$vector@OV?$allocator@O@std@@@std@@@2@@std@@QEAAAEAV?$vector@OV?$allocator@O@std@@@1@_K@Z"
	mov	rcx, rax
	movsxd	rdx, dword ptr [rbp + 344]
	call	"??A?$vector@OV?$allocator@O@std@@@std@@QEAAAEAO_K@Z"
	mov	rcx, rax
	lea	rdx, [rbp + 336]
	call	"??$min@O@std@@YAAEBOAEBO0@Z"
	movsd	xmm0, qword ptr [rax]           # xmm0 = mem[0],zero
	movsd	qword ptr [rbp + 8], xmm0       # 8-byte Spill
	movsxd	rdx, dword ptr [rbp + 348]
	lea	rcx, [rbp + 416]
	call	"??A?$vector@V?$vector@OV?$allocator@O@std@@@std@@V?$allocator@V?$vector@OV?$allocator@O@std@@@std@@@2@@std@@QEAAAEAV?$vector@OV?$allocator@O@std@@@1@_K@Z"
	mov	rcx, rax
	movsxd	rdx, dword ptr [rbp + 344]
	call	"??A?$vector@OV?$allocator@O@std@@@std@@QEAAAEAO_K@Z"
	movsd	xmm0, qword ptr [rbp + 8]       # 8-byte Reload
                                        # xmm0 = mem[0],zero
	movsd	qword ptr [rax], xmm0
.LBB62_66:                              #   in Loop: Header=BB62_62 Depth=4
	mov	eax, dword ptr [rbp + 344]
	add	eax, 1
	mov	dword ptr [rbp + 344], eax
	jmp	.LBB62_62
.LBB62_67:                              #   in Loop: Header=BB62_60 Depth=3
	mov	eax, dword ptr [rbp + 348]
	add	eax, 1
	mov	dword ptr [rbp + 348], eax
	jmp	.LBB62_60
.LBB62_68:                              #   in Loop: Header=BB62_58 Depth=2
	mov	eax, dword ptr [rbp + 352]
	add	eax, 1
	mov	dword ptr [rbp + 352], eax
	jmp	.LBB62_58
.LBB62_69:                              #   in Loop: Header=BB62_1 Depth=1
.Ltmp44:
	lea	rcx, [rip + "?cin@std@@3V?$basic_istream@DU?$char_traits@D@std@@@1@A"]
	lea	rdx, [rbp + 776]
	call	"??5?$basic_istream@DU?$char_traits@D@std@@@std@@QEAAAEAV01@AEAH@Z"
.Ltmp45:
	jmp	.LBB62_70
.LBB62_70:                              #   in Loop: Header=BB62_1 Depth=1
.Ltmp46:
	lea	rcx, [rip + "?cout@std@@3V?$basic_ostream@DU?$char_traits@D@std@@@1@A"]
	lea	rdx, [rip + "??_C@_05MBLBFKHI@Case?5?$AA@"]
	call	"??$?6U?$char_traits@D@std@@@std@@YAAEAV?$basic_ostream@DU?$char_traits@D@std@@@0@AEAV10@PEBD@Z"
.Ltmp47:
	mov	qword ptr [rbp - 8], rax        # 8-byte Spill
	jmp	.LBB62_71
.LBB62_71:                              #   in Loop: Header=BB62_1 Depth=1
	mov	rcx, qword ptr [rbp - 8]        # 8-byte Reload
	mov	edx, dword ptr [rbp + 772]
	mov	eax, edx
	inc	eax
	mov	dword ptr [rbp + 772], eax
.Ltmp48:
	call	"??6?$basic_ostream@DU?$char_traits@D@std@@@std@@QEAAAEAV01@H@Z"
.Ltmp49:
	mov	qword ptr [rbp - 16], rax       # 8-byte Spill
	jmp	.LBB62_72
.LBB62_72:                              #   in Loop: Header=BB62_1 Depth=1
.Ltmp50:
	mov	rcx, qword ptr [rbp - 16]       # 8-byte Reload
	lea	rdx, [rip + "??_C@_01JLIPDDHJ@?3?$AA@"]
	call	"??$?6U?$char_traits@D@std@@@std@@YAAEAV?$basic_ostream@DU?$char_traits@D@std@@@0@AEAV10@PEBD@Z"
.Ltmp51:
	mov	qword ptr [rbp - 24], rax       # 8-byte Spill
	jmp	.LBB62_73
.LBB62_73:                              #   in Loop: Header=BB62_1 Depth=1
.Ltmp52:
	mov	rcx, qword ptr [rbp - 24]       # 8-byte Reload
	lea	rdx, [rip + "??$endl@DU?$char_traits@D@std@@@std@@YAAEAV?$basic_ostream@DU?$char_traits@D@std@@@0@AEAV10@@Z"]
	call	"??6?$basic_ostream@DU?$char_traits@D@std@@@std@@QEAAAEAV01@P6AAEAV01@AEAV01@@Z@Z"
.Ltmp53:
	jmp	.LBB62_74
.LBB62_74:                              #   in Loop: Header=BB62_1 Depth=1
	mov	dword ptr [rbp + 332], 0
.LBB62_75:                              #   Parent Loop BB62_1 Depth=1
                                        # =>  This Loop Header: Depth=2
                                        #       Child Loop BB62_82 Depth 3
                                        #       Child Loop BB62_86 Depth 3
                                        #         Child Loop BB62_88 Depth 4
                                        #       Child Loop BB62_97 Depth 3
                                        #         Child Loop BB62_99 Depth 4
                                        #           Child Loop BB62_101 Depth 5
	mov	eax, dword ptr [rbp + 332]
	cmp	eax, dword ptr [rbp + 776]
	jge	.LBB62_117
# %bb.76:                               #   in Loop: Header=BB62_75 Depth=2
.Ltmp54:
	lea	rcx, [rip + "?cin@std@@3V?$basic_istream@DU?$char_traits@D@std@@@1@A"]
	lea	rdx, [rbp + 328]
	call	"??5?$basic_istream@DU?$char_traits@D@std@@@std@@QEAAAEAV01@AEAH@Z"
.Ltmp55:
	mov	qword ptr [rbp - 32], rax       # 8-byte Spill
	jmp	.LBB62_77
.LBB62_77:                              #   in Loop: Header=BB62_75 Depth=2
.Ltmp56:
	mov	rcx, qword ptr [rbp - 32]       # 8-byte Reload
	lea	rdx, [rbp + 324]
	call	"??5?$basic_istream@DU?$char_traits@D@std@@@std@@QEAAAEAV01@AEAH@Z"
.Ltmp57:
	mov	qword ptr [rbp - 40], rax       # 8-byte Spill
	jmp	.LBB62_78
.LBB62_78:                              #   in Loop: Header=BB62_75 Depth=2
.Ltmp58:
	mov	rcx, qword ptr [rbp - 40]       # 8-byte Reload
	lea	rdx, [rbp + 312]
	call	"??5?$basic_istream@DU?$char_traits@D@std@@@std@@QEAAAEAV01@AEAO@Z"
.Ltmp59:
	jmp	.LBB62_79
.LBB62_79:                              #   in Loop: Header=BB62_75 Depth=2
	mov	eax, dword ptr [rbp + 328]
	dec	eax
	mov	dword ptr [rbp + 328], eax
	mov	eax, dword ptr [rbp + 324]
	dec	eax
	mov	dword ptr [rbp + 324], eax
	lea	rcx, [rbp + 287]
	call	"??0?$allocator@V?$vector@OV?$allocator@O@std@@@std@@@std@@QEAA@XZ"
	lea	rcx, [rbp + 255]
	mov	qword ptr [rbp - 48], rcx       # 8-byte Spill
	call	"??0?$allocator@O@std@@QEAA@XZ"
	mov	r9, qword ptr [rbp - 48]        # 8-byte Reload
	movsxd	rdx, dword ptr [rbp + 780]
.Ltmp60:
	lea	r8, [rip + INF]
	lea	rcx, [rbp + 256]
	call	"??0?$vector@OV?$allocator@O@std@@@std@@QEAA@_KAEBOAEBV?$allocator@O@1@@Z"
.Ltmp61:
	jmp	.LBB62_80
.LBB62_80:                              #   in Loop: Header=BB62_75 Depth=2
	movsxd	rdx, dword ptr [rbp + 780]
.Ltmp62:
	lea	rcx, [rbp + 288]
	lea	r8, [rbp + 256]
	lea	r9, [rbp + 287]
	call	"??0?$vector@V?$vector@OV?$allocator@O@std@@@std@@V?$allocator@V?$vector@OV?$allocator@O@std@@@std@@@2@@std@@QEAA@_KAEBV?$vector@OV?$allocator@O@std@@@1@AEBV?$allocator@V?$vector@OV?$allocator@O@std@@@std@@@1@@Z"
.Ltmp63:
	jmp	.LBB62_81
.LBB62_81:                              #   in Loop: Header=BB62_75 Depth=2
	lea	rcx, [rbp + 256]
	call	"??1?$vector@OV?$allocator@O@std@@@std@@QEAA@XZ"
	mov	dword ptr [rbp + 248], 0
.LBB62_82:                              #   Parent Loop BB62_1 Depth=1
                                        #     Parent Loop BB62_75 Depth=2
                                        # =>    This Inner Loop Header: Depth=3
	mov	eax, dword ptr [rbp + 248]
	cmp	eax, dword ptr [rbp + 780]
	jge	.LBB62_85
# %bb.83:                               #   in Loop: Header=BB62_82 Depth=3
	movsxd	rdx, dword ptr [rbp + 248]
	lea	rcx, [rbp + 288]
	call	"??A?$vector@V?$vector@OV?$allocator@O@std@@@std@@V?$allocator@V?$vector@OV?$allocator@O@std@@@std@@@2@@std@@QEAAAEAV?$vector@OV?$allocator@O@std@@@1@_K@Z"
	mov	rcx, rax
	movsxd	rdx, dword ptr [rbp + 248]
	call	"??A?$vector@OV?$allocator@O@std@@@std@@QEAAAEAO_K@Z"
	xorps	xmm0, xmm0
	movsd	qword ptr [rax], xmm0
	mov	eax, dword ptr [rbp + 248]
	add	eax, 1
	mov	dword ptr [rbp + 248], eax
	jmp	.LBB62_82
.LBB62_85:                              #   in Loop: Header=BB62_75 Depth=2
	mov	dword ptr [rbp + 244], 0
.LBB62_86:                              #   Parent Loop BB62_1 Depth=1
                                        #     Parent Loop BB62_75 Depth=2
                                        # =>    This Loop Header: Depth=3
                                        #         Child Loop BB62_88 Depth 4
	mov	eax, dword ptr [rbp + 244]
	cmp	eax, dword ptr [rbp + 780]
	jge	.LBB62_96
# %bb.87:                               #   in Loop: Header=BB62_86 Depth=3
	mov	dword ptr [rbp + 240], 0
.LBB62_88:                              #   Parent Loop BB62_1 Depth=1
                                        #     Parent Loop BB62_75 Depth=2
                                        #       Parent Loop BB62_86 Depth=3
                                        # =>      This Inner Loop Header: Depth=4
	mov	eax, dword ptr [rbp + 240]
	cmp	eax, dword ptr [rbp + 780]
	jge	.LBB62_95
# %bb.89:                               #   in Loop: Header=BB62_88 Depth=4
	mov	eax, dword ptr [rbp + 244]
	cmp	eax, dword ptr [rbp + 240]
	jne	.LBB62_91
# %bb.90:                               #   in Loop: Header=BB62_88 Depth=4
	jmp	.LBB62_94
.LBB62_91:                              #   in Loop: Header=BB62_88 Depth=4
	movsxd	rdx, dword ptr [rbp + 244]
	lea	rcx, [rbp + 456]
	call	"??A?$vector@HV?$allocator@H@std@@@std@@QEAAAEAH_K@Z"
	mov	eax, dword ptr [rax]
	mov	dword ptr [rbp + 236], eax
	movsxd	rdx, dword ptr [rbp + 240]
	lea	rcx, [rbp + 456]
	call	"??A?$vector@HV?$allocator@H@std@@@std@@QEAAAEAH_K@Z"
	mov	eax, dword ptr [rax]
	mov	dword ptr [rbp + 232], eax
	movsxd	rdx, dword ptr [rbp + 236]
	lea	rcx, [rbp + 416]
	call	"??A?$vector@V?$vector@OV?$allocator@O@std@@@std@@V?$allocator@V?$vector@OV?$allocator@O@std@@@std@@@2@@std@@QEAAAEAV?$vector@OV?$allocator@O@std@@@1@_K@Z"
	mov	rcx, rax
	movsxd	rdx, dword ptr [rbp + 232]
	call	"??A?$vector@OV?$allocator@O@std@@@std@@QEAAAEAO_K@Z"
	movsd	xmm1, qword ptr [rax]           # xmm1 = mem[0],zero
	movsd	xmm0, qword ptr [rip + __real@3e112e0be826d695] # xmm0 = [1.0000000000000001E-9,0.0E+0]
	addsd	xmm0, qword ptr [rbp + 312]
	ucomisd	xmm0, xmm1
	jb	.LBB62_93
# %bb.92:                               #   in Loop: Header=BB62_88 Depth=4
	movsxd	rdx, dword ptr [rbp + 236]
	lea	rcx, [rbp + 416]
	call	"??A?$vector@V?$vector@OV?$allocator@O@std@@@std@@V?$allocator@V?$vector@OV?$allocator@O@std@@@std@@@2@@std@@QEAAAEAV?$vector@OV?$allocator@O@std@@@1@_K@Z"
	mov	rcx, rax
	movsxd	rdx, dword ptr [rbp + 232]
	call	"??A?$vector@OV?$allocator@O@std@@@std@@QEAAAEAO_K@Z"
	movsd	xmm0, qword ptr [rax]           # xmm0 = mem[0],zero
	movsd	qword ptr [rbp - 56], xmm0      # 8-byte Spill
	movsxd	rdx, dword ptr [rbp + 244]
	lea	rcx, [rbp + 288]
	call	"??A?$vector@V?$vector@OV?$allocator@O@std@@@std@@V?$allocator@V?$vector@OV?$allocator@O@std@@@std@@@2@@std@@QEAAAEAV?$vector@OV?$allocator@O@std@@@1@_K@Z"
	mov	rcx, rax
	movsxd	rdx, dword ptr [rbp + 240]
	call	"??A?$vector@OV?$allocator@O@std@@@std@@QEAAAEAO_K@Z"
	movsd	xmm0, qword ptr [rbp - 56]      # 8-byte Reload
                                        # xmm0 = mem[0],zero
	movsd	qword ptr [rax], xmm0
.LBB62_93:                              #   in Loop: Header=BB62_88 Depth=4
	jmp	.LBB62_94
.LBB62_94:                              #   in Loop: Header=BB62_88 Depth=4
	mov	eax, dword ptr [rbp + 240]
	add	eax, 1
	mov	dword ptr [rbp + 240], eax
	jmp	.LBB62_88
.LBB62_95:                              #   in Loop: Header=BB62_86 Depth=3
	mov	eax, dword ptr [rbp + 244]
	add	eax, 1
	mov	dword ptr [rbp + 244], eax
	jmp	.LBB62_86
.LBB62_96:                              #   in Loop: Header=BB62_75 Depth=2
	mov	dword ptr [rbp + 228], 0
.LBB62_97:                              #   Parent Loop BB62_1 Depth=1
                                        #     Parent Loop BB62_75 Depth=2
                                        # =>    This Loop Header: Depth=3
                                        #         Child Loop BB62_99 Depth 4
                                        #           Child Loop BB62_101 Depth 5
	mov	eax, dword ptr [rbp + 228]
	cmp	eax, dword ptr [rbp + 780]
	jge	.LBB62_108
# %bb.98:                               #   in Loop: Header=BB62_97 Depth=3
	mov	dword ptr [rbp + 224], 0
.LBB62_99:                              #   Parent Loop BB62_1 Depth=1
                                        #     Parent Loop BB62_75 Depth=2
                                        #       Parent Loop BB62_97 Depth=3
                                        # =>      This Loop Header: Depth=4
                                        #           Child Loop BB62_101 Depth 5
	mov	eax, dword ptr [rbp + 224]
	cmp	eax, dword ptr [rbp + 780]
	jge	.LBB62_107
# %bb.100:                              #   in Loop: Header=BB62_99 Depth=4
	mov	dword ptr [rbp + 220], 0
.LBB62_101:                             #   Parent Loop BB62_1 Depth=1
                                        #     Parent Loop BB62_75 Depth=2
                                        #       Parent Loop BB62_97 Depth=3
                                        #         Parent Loop BB62_99 Depth=4
                                        # =>        This Inner Loop Header: Depth=5
	mov	eax, dword ptr [rbp + 220]
	cmp	eax, dword ptr [rbp + 780]
	jge	.LBB62_106
# %bb.102:                              #   in Loop: Header=BB62_101 Depth=5
	movsxd	rdx, dword ptr [rbp + 224]
	lea	rcx, [rbp + 288]
	call	"??A?$vector@V?$vector@OV?$allocator@O@std@@@std@@V?$allocator@V?$vector@OV?$allocator@O@std@@@std@@@2@@std@@QEAAAEAV?$vector@OV?$allocator@O@std@@@1@_K@Z"
	mov	rcx, rax
	movsxd	rdx, dword ptr [rbp + 228]
	call	"??A?$vector@OV?$allocator@O@std@@@std@@QEAAAEAO_K@Z"
	movsd	xmm0, qword ptr [rax]           # xmm0 = mem[0],zero
	movsd	xmm1, qword ptr [rip + __real@7ff0000000000000] # xmm1 = [+Inf,0.0E+0]
	ucomisd	xmm0, xmm1
	jne	.LBB62_103
	jp	.LBB62_103
	jmp	.LBB62_105
.LBB62_103:                             #   in Loop: Header=BB62_101 Depth=5
	movsxd	rdx, dword ptr [rbp + 228]
	lea	rcx, [rbp + 288]
	call	"??A?$vector@V?$vector@OV?$allocator@O@std@@@std@@V?$allocator@V?$vector@OV?$allocator@O@std@@@std@@@2@@std@@QEAAAEAV?$vector@OV?$allocator@O@std@@@1@_K@Z"
	mov	rcx, rax
	movsxd	rdx, dword ptr [rbp + 220]
	call	"??A?$vector@OV?$allocator@O@std@@@std@@QEAAAEAO_K@Z"
	movsd	xmm0, qword ptr [rax]           # xmm0 = mem[0],zero
	movsd	xmm1, qword ptr [rip + __real@7ff0000000000000] # xmm1 = [+Inf,0.0E+0]
	ucomisd	xmm0, xmm1
	jne	.LBB62_104
	jp	.LBB62_104
	jmp	.LBB62_105
.LBB62_104:                             #   in Loop: Header=BB62_101 Depth=5
	movsxd	rdx, dword ptr [rbp + 224]
	lea	rcx, [rbp + 288]
	call	"??A?$vector@V?$vector@OV?$allocator@O@std@@@std@@V?$allocator@V?$vector@OV?$allocator@O@std@@@std@@@2@@std@@QEAAAEAV?$vector@OV?$allocator@O@std@@@1@_K@Z"
	mov	rcx, rax
	movsxd	rdx, dword ptr [rbp + 228]
	call	"??A?$vector@OV?$allocator@O@std@@@std@@QEAAAEAO_K@Z"
	movsd	xmm0, qword ptr [rax]           # xmm0 = mem[0],zero
	movsd	qword ptr [rbp - 72], xmm0      # 8-byte Spill
	movsxd	rdx, dword ptr [rbp + 228]
	lea	rcx, [rbp + 288]
	call	"??A?$vector@V?$vector@OV?$allocator@O@std@@@std@@V?$allocator@V?$vector@OV?$allocator@O@std@@@std@@@2@@std@@QEAAAEAV?$vector@OV?$allocator@O@std@@@1@_K@Z"
	mov	rcx, rax
	movsxd	rdx, dword ptr [rbp + 220]
	call	"??A?$vector@OV?$allocator@O@std@@@std@@QEAAAEAO_K@Z"
	movsd	xmm0, qword ptr [rbp - 72]      # 8-byte Reload
                                        # xmm0 = mem[0],zero
	addsd	xmm0, qword ptr [rax]
	movsd	qword ptr [rbp + 208], xmm0
	movsxd	rdx, dword ptr [rbp + 224]
	lea	rcx, [rbp + 288]
	call	"??A?$vector@V?$vector@OV?$allocator@O@std@@@std@@V?$allocator@V?$vector@OV?$allocator@O@std@@@std@@@2@@std@@QEAAAEAV?$vector@OV?$allocator@O@std@@@1@_K@Z"
	mov	rcx, rax
	movsxd	rdx, dword ptr [rbp + 220]
	call	"??A?$vector@OV?$allocator@O@std@@@std@@QEAAAEAO_K@Z"
	mov	rcx, rax
	lea	rdx, [rbp + 208]
	call	"??$min@O@std@@YAAEBOAEBO0@Z"
	movsd	xmm0, qword ptr [rax]           # xmm0 = mem[0],zero
	movsd	qword ptr [rbp - 64], xmm0      # 8-byte Spill
	movsxd	rdx, dword ptr [rbp + 224]
	lea	rcx, [rbp + 288]
	call	"??A?$vector@V?$vector@OV?$allocator@O@std@@@std@@V?$allocator@V?$vector@OV?$allocator@O@std@@@std@@@2@@std@@QEAAAEAV?$vector@OV?$allocator@O@std@@@1@_K@Z"
	mov	rcx, rax
	movsxd	rdx, dword ptr [rbp + 220]
	call	"??A?$vector@OV?$allocator@O@std@@@std@@QEAAAEAO_K@Z"
	movsd	xmm0, qword ptr [rbp - 64]      # 8-byte Reload
                                        # xmm0 = mem[0],zero
	movsd	qword ptr [rax], xmm0
.LBB62_105:                             #   in Loop: Header=BB62_101 Depth=5
	mov	eax, dword ptr [rbp + 220]
	add	eax, 1
	mov	dword ptr [rbp + 220], eax
	jmp	.LBB62_101
.LBB62_106:                             #   in Loop: Header=BB62_99 Depth=4
	mov	eax, dword ptr [rbp + 224]
	add	eax, 1
	mov	dword ptr [rbp + 224], eax
	jmp	.LBB62_99
.LBB62_107:                             #   in Loop: Header=BB62_97 Depth=3
	mov	eax, dword ptr [rbp + 228]
	add	eax, 1
	mov	dword ptr [rbp + 228], eax
	jmp	.LBB62_97
.LBB62_108:                             #   in Loop: Header=BB62_75 Depth=2
	movsxd	rdx, dword ptr [rbp + 328]
	lea	rcx, [rbp + 288]
	call	"??A?$vector@V?$vector@OV?$allocator@O@std@@@std@@V?$allocator@V?$vector@OV?$allocator@O@std@@@std@@@2@@std@@QEAAAEAV?$vector@OV?$allocator@O@std@@@1@_K@Z"
	mov	rcx, rax
	movsxd	rdx, dword ptr [rbp + 324]
	call	"??A?$vector@OV?$allocator@O@std@@@std@@QEAAAEAO_K@Z"
	movsd	xmm0, qword ptr [rax]           # xmm0 = mem[0],zero
	movsd	xmm1, qword ptr [rip + __real@7ff0000000000000] # xmm1 = [+Inf,0.0E+0]
	ucomisd	xmm0, xmm1
	jne	.LBB62_112
	jp	.LBB62_112
# %bb.109:                              #   in Loop: Header=BB62_75 Depth=2
.Ltmp68:
	lea	rcx, [rip + "?cout@std@@3V?$basic_ostream@DU?$char_traits@D@std@@@1@A"]
	lea	rdx, [rip + "??_C@_0L@GOOMCKGH@impossible?$AA@"]
	call	"??$?6U?$char_traits@D@std@@@std@@YAAEAV?$basic_ostream@DU?$char_traits@D@std@@@0@AEAV10@PEBD@Z"
.Ltmp69:
	mov	qword ptr [rbp - 80], rax       # 8-byte Spill
	jmp	.LBB62_110
.LBB62_110:                             #   in Loop: Header=BB62_75 Depth=2
.Ltmp70:
	mov	rcx, qword ptr [rbp - 80]       # 8-byte Reload
	lea	rdx, [rip + "??$endl@DU?$char_traits@D@std@@@std@@YAAEAV?$basic_ostream@DU?$char_traits@D@std@@@0@AEAV10@@Z"]
	call	"??6?$basic_ostream@DU?$char_traits@D@std@@@std@@QEAAAEAV01@P6AAEAV01@AEAV01@@Z@Z"
.Ltmp71:
	jmp	.LBB62_111
.LBB62_111:                             #   in Loop: Header=BB62_75 Depth=2
	jmp	.LBB62_115
.LBB62_112:                             #   in Loop: Header=BB62_75 Depth=2
	movsxd	rdx, dword ptr [rbp + 328]
	lea	rcx, [rbp + 288]
	call	"??A?$vector@V?$vector@OV?$allocator@O@std@@@std@@V?$allocator@V?$vector@OV?$allocator@O@std@@@std@@@2@@std@@QEAAAEAV?$vector@OV?$allocator@O@std@@@1@_K@Z"
	mov	rcx, rax
	movsxd	rdx, dword ptr [rbp + 324]
	call	"??A?$vector@OV?$allocator@O@std@@@std@@QEAAAEAO_K@Z"
	movsd	xmm1, qword ptr [rax]           # xmm1 = mem[0],zero
.Ltmp64:
	lea	rcx, [rip + "?cout@std@@3V?$basic_ostream@DU?$char_traits@D@std@@@1@A"]
	call	"??6?$basic_ostream@DU?$char_traits@D@std@@@std@@QEAAAEAV01@O@Z"
.Ltmp65:
	mov	qword ptr [rbp - 88], rax       # 8-byte Spill
	jmp	.LBB62_113
.LBB62_113:                             #   in Loop: Header=BB62_75 Depth=2
.Ltmp66:
	mov	rcx, qword ptr [rbp - 88]       # 8-byte Reload
	lea	rdx, [rip + "??$endl@DU?$char_traits@D@std@@@std@@YAAEAV?$basic_ostream@DU?$char_traits@D@std@@@0@AEAV10@@Z"]
	call	"??6?$basic_ostream@DU?$char_traits@D@std@@@std@@QEAAAEAV01@P6AAEAV01@AEAV01@@Z@Z"
.Ltmp67:
	jmp	.LBB62_114
.LBB62_114:                             #   in Loop: Header=BB62_75 Depth=2
	jmp	.LBB62_115
.LBB62_115:                             #   in Loop: Header=BB62_75 Depth=2
	lea	rcx, [rbp + 288]
	call	"??1?$vector@V?$vector@OV?$allocator@O@std@@@std@@V?$allocator@V?$vector@OV?$allocator@O@std@@@std@@@2@@std@@QEAA@XZ"
	mov	eax, dword ptr [rbp + 332]
	add	eax, 1
	mov	dword ptr [rbp + 332], eax
	jmp	.LBB62_75
.LBB62_117:                             #   in Loop: Header=BB62_1 Depth=1
	lea	rcx, [rbp + 416]
	call	"??1?$vector@V?$vector@OV?$allocator@O@std@@@std@@V?$allocator@V?$vector@OV?$allocator@O@std@@@std@@@2@@std@@QEAA@XZ"
	lea	rcx, [rbp + 456]
	call	"??1?$vector@HV?$allocator@H@std@@@std@@QEAA@XZ"
	lea	rcx, [rbp + 480]
	call	"??1?$map@UPoint@@HUCompare@1@V?$allocator@U?$pair@$$CBUPoint@@H@std@@@std@@@std@@QEAA@XZ"
	lea	rcx, [rbp + 520]
	call	"??1?$vector@UPoint@@V?$allocator@UPoint@@@std@@@std@@QEAA@XZ"
	lea	rcx, [rbp + 672]
	call	"??1?$set@UPoint@@UCompare@1@V?$allocator@UPoint@@@std@@@std@@QEAA@XZ"
	lea	rcx, [rbp + 736]
	call	"??1?$vector@UPoint@@V?$allocator@UPoint@@@std@@@std@@QEAA@XZ"
	jmp	.LBB62_1
.LBB62_124:
	xor	eax, eax
	add	rsp, 944
	pop	rbp
	ret
	.seh_handlerdata
	.long	($cppxdata$main)@IMGREL
	.text
	.seh_endproc
	.def	"?dtor$22@?0?main@4HA";
	.scl	3;
	.type	32;
	.endef
	.p2align	4, 0x90
"?dtor$22@?0?main@4HA":
.seh_proc "?dtor$22@?0?main@4HA"
.LBB62_22:
	mov	qword ptr [rsp + 16], rdx
	push	rbp
	.seh_pushreg rbp
	sub	rsp, 32
	.seh_stackalloc 32
	lea	rbp, [rdx + 128]
	.seh_endprologue
	lea	rcx, [rbp + 592]
	call	"??1?$vector@UPoint@@V?$allocator@UPoint@@@std@@@std@@QEAA@XZ"
	nop
	add	rsp, 32
	pop	rbp
	ret                                     # CLEANUPRET
	.seh_handlerdata
	.text
	.seh_endproc
	.def	"?dtor$40@?0?main@4HA";
	.scl	3;
	.type	32;
	.endef
	.p2align	4, 0x90
"?dtor$40@?0?main@4HA":
.seh_proc "?dtor$40@?0?main@4HA"
.LBB62_40:
	mov	qword ptr [rsp + 16], rdx
	push	rbp
	.seh_pushreg rbp
	sub	rsp, 32
	.seh_stackalloc 32
	lea	rbp, [rdx + 128]
	.seh_endprologue
	lea	rcx, [rbp + 384]
	call	"??1?$vector@OV?$allocator@O@std@@@std@@QEAA@XZ"
	nop
	add	rsp, 32
	pop	rbp
	ret                                     # CLEANUPRET
	.seh_handlerdata
	.text
	.seh_endproc
	.def	"?dtor$84@?0?main@4HA";
	.scl	3;
	.type	32;
	.endef
	.p2align	4, 0x90
"?dtor$84@?0?main@4HA":
.seh_proc "?dtor$84@?0?main@4HA"
.LBB62_84:
	mov	qword ptr [rsp + 16], rdx
	push	rbp
	.seh_pushreg rbp
	sub	rsp, 32
	.seh_stackalloc 32
	lea	rbp, [rdx + 128]
	.seh_endprologue
	lea	rcx, [rbp + 256]
	call	"??1?$vector@OV?$allocator@O@std@@@std@@QEAA@XZ"
	nop
	add	rsp, 32
	pop	rbp
	ret                                     # CLEANUPRET
	.seh_handlerdata
	.text
	.seh_endproc
	.def	"?dtor$116@?0?main@4HA";
	.scl	3;
	.type	32;
	.endef
	.p2align	4, 0x90
"?dtor$116@?0?main@4HA":
.seh_proc "?dtor$116@?0?main@4HA"
.LBB62_116:
	mov	qword ptr [rsp + 16], rdx
	push	rbp
	.seh_pushreg rbp
	sub	rsp, 32
	.seh_stackalloc 32
	lea	rbp, [rdx + 128]
	.seh_endprologue
	lea	rcx, [rbp + 288]
	call	"??1?$vector@V?$vector@OV?$allocator@O@std@@@std@@V?$allocator@V?$vector@OV?$allocator@O@std@@@std@@@2@@std@@QEAA@XZ"
	nop
	add	rsp, 32
	pop	rbp
	ret                                     # CLEANUPRET
	.seh_handlerdata
	.text
	.seh_endproc
	.def	"?dtor$118@?0?main@4HA";
	.scl	3;
	.type	32;
	.endef
	.p2align	4, 0x90
"?dtor$118@?0?main@4HA":
.seh_proc "?dtor$118@?0?main@4HA"
.LBB62_118:
	mov	qword ptr [rsp + 16], rdx
	push	rbp
	.seh_pushreg rbp
	sub	rsp, 32
	.seh_stackalloc 32
	lea	rbp, [rdx + 128]
	.seh_endprologue
	lea	rcx, [rbp + 416]
	call	"??1?$vector@V?$vector@OV?$allocator@O@std@@@std@@V?$allocator@V?$vector@OV?$allocator@O@std@@@std@@@2@@std@@QEAA@XZ"
	nop
	add	rsp, 32
	pop	rbp
	ret                                     # CLEANUPRET
	.seh_handlerdata
	.text
	.seh_endproc
	.def	"?dtor$119@?0?main@4HA";
	.scl	3;
	.type	32;
	.endef
	.p2align	4, 0x90
"?dtor$119@?0?main@4HA":
.seh_proc "?dtor$119@?0?main@4HA"
.LBB62_119:
	mov	qword ptr [rsp + 16], rdx
	push	rbp
	.seh_pushreg rbp
	sub	rsp, 32
	.seh_stackalloc 32
	lea	rbp, [rdx + 128]
	.seh_endprologue
	lea	rcx, [rbp + 456]
	call	"??1?$vector@HV?$allocator@H@std@@@std@@QEAA@XZ"
	nop
	add	rsp, 32
	pop	rbp
	ret                                     # CLEANUPRET
	.seh_handlerdata
	.text
	.seh_endproc
	.def	"?dtor$120@?0?main@4HA";
	.scl	3;
	.type	32;
	.endef
	.p2align	4, 0x90
"?dtor$120@?0?main@4HA":
.seh_proc "?dtor$120@?0?main@4HA"
.LBB62_120:
	mov	qword ptr [rsp + 16], rdx
	push	rbp
	.seh_pushreg rbp
	sub	rsp, 32
	.seh_stackalloc 32
	lea	rbp, [rdx + 128]
	.seh_endprologue
	lea	rcx, [rbp + 480]
	call	"??1?$map@UPoint@@HUCompare@1@V?$allocator@U?$pair@$$CBUPoint@@H@std@@@std@@@std@@QEAA@XZ"
	nop
	add	rsp, 32
	pop	rbp
	ret                                     # CLEANUPRET
	.seh_handlerdata
	.text
	.seh_endproc
	.def	"?dtor$121@?0?main@4HA";
	.scl	3;
	.type	32;
	.endef
	.p2align	4, 0x90
"?dtor$121@?0?main@4HA":
.seh_proc "?dtor$121@?0?main@4HA"
.LBB62_121:
	mov	qword ptr [rsp + 16], rdx
	push	rbp
	.seh_pushreg rbp
	sub	rsp, 32
	.seh_stackalloc 32
	lea	rbp, [rdx + 128]
	.seh_endprologue
	lea	rcx, [rbp + 520]
	call	"??1?$vector@UPoint@@V?$allocator@UPoint@@@std@@@std@@QEAA@XZ"
	nop
	add	rsp, 32
	pop	rbp
	ret                                     # CLEANUPRET
	.seh_handlerdata
	.text
	.seh_endproc
	.def	"?dtor$122@?0?main@4HA";
	.scl	3;
	.type	32;
	.endef
	.p2align	4, 0x90
"?dtor$122@?0?main@4HA":
.seh_proc "?dtor$122@?0?main@4HA"
.LBB62_122:
	mov	qword ptr [rsp + 16], rdx
	push	rbp
	.seh_pushreg rbp
	sub	rsp, 32
	.seh_stackalloc 32
	lea	rbp, [rdx + 128]
	.seh_endprologue
	lea	rcx, [rbp + 672]
	call	"??1?$set@UPoint@@UCompare@1@V?$allocator@UPoint@@@std@@@std@@QEAA@XZ"
	nop
	add	rsp, 32
	pop	rbp
	ret                                     # CLEANUPRET
	.seh_handlerdata
	.text
	.seh_endproc
	.def	"?dtor$123@?0?main@4HA";
	.scl	3;
	.type	32;
	.endef
	.p2align	4, 0x90
"?dtor$123@?0?main@4HA":
.seh_proc "?dtor$123@?0?main@4HA"
.LBB62_123:
	mov	qword ptr [rsp + 16], rdx
	push	rbp
	.seh_pushreg rbp
	sub	rsp, 32
	.seh_stackalloc 32
	lea	rbp, [rdx + 128]
	.seh_endprologue
	lea	rcx, [rbp + 736]
	call	"??1?$vector@UPoint@@V?$allocator@UPoint@@@std@@@std@@QEAA@XZ"
	nop
	add	rsp, 32
	pop	rbp
	ret                                     # CLEANUPRET
.Lfunc_end4:
	.seh_handlerdata
	.text
	.seh_endproc
	.section	.xdata,"dr"
	.p2align	2, 0x0
$cppxdata$main:
	.long	429065506                       # MagicNumber
	.long	10                              # MaxState
	.long	($stateUnwindMap$main)@IMGREL   # UnwindMap
	.long	0                               # NumTryBlocks
	.long	0                               # TryBlockMap
	.long	13                              # IPMapEntries
	.long	($ip2state$main)@IMGREL         # IPToStateXData
	.long	936                             # UnwindHelp
	.long	0                               # ESTypeList
	.long	1                               # EHFlags
$stateUnwindMap$main:
	.long	-1                              # ToState
	.long	"?dtor$123@?0?main@4HA"@IMGREL  # Action
	.long	0                               # ToState
	.long	"?dtor$122@?0?main@4HA"@IMGREL  # Action
	.long	1                               # ToState
	.long	"?dtor$121@?0?main@4HA"@IMGREL  # Action
	.long	2                               # ToState
	.long	"?dtor$120@?0?main@4HA"@IMGREL  # Action
	.long	3                               # ToState
	.long	"?dtor$119@?0?main@4HA"@IMGREL  # Action
	.long	4                               # ToState
	.long	"?dtor$118@?0?main@4HA"@IMGREL  # Action
	.long	5                               # ToState
	.long	"?dtor$116@?0?main@4HA"@IMGREL  # Action
	.long	5                               # ToState
	.long	"?dtor$84@?0?main@4HA"@IMGREL   # Action
	.long	4                               # ToState
	.long	"?dtor$40@?0?main@4HA"@IMGREL   # Action
	.long	1                               # ToState
	.long	"?dtor$22@?0?main@4HA"@IMGREL   # Action
$ip2state$main:
	.long	.Lfunc_begin4@IMGREL            # IP
	.long	-1                              # ToState
	.long	.Ltmp86@IMGREL+1                # IP
	.long	0                               # ToState
	.long	.Ltmp84@IMGREL+1                # IP
	.long	1                               # ToState
	.long	.Ltmp82@IMGREL+1                # IP
	.long	9                               # ToState
	.long	.Ltmp34@IMGREL+1                # IP
	.long	1                               # ToState
	.long	.Ltmp36@IMGREL+1                # IP
	.long	2                               # ToState
	.long	.Ltmp38@IMGREL+1                # IP
	.long	3                               # ToState
	.long	.Ltmp78@IMGREL+1                # IP
	.long	4                               # ToState
	.long	.Ltmp42@IMGREL+1                # IP
	.long	8                               # ToState
	.long	.Ltmp74@IMGREL+1                # IP
	.long	5                               # ToState
	.long	.Ltmp62@IMGREL+1                # IP
	.long	7                               # ToState
	.long	.Ltmp68@IMGREL+1                # IP
	.long	6                               # ToState
	.long	.Ltmp67@IMGREL+1                # IP
	.long	-1                              # ToState
	.text
                                        # -- End function
	.def	"?sync_with_stdio@ios_base@std@@SA_N_N@Z";
	.scl	2;
	.type	32;
	.endef
	.section	.text,"xr",discard,"?sync_with_stdio@ios_base@std@@SA_N_N@Z"
	.globl	"?sync_with_stdio@ios_base@std@@SA_N_N@Z" # -- Begin function ?sync_with_stdio@ios_base@std@@SA_N_N@Z
	.p2align	4, 0x90
"?sync_with_stdio@ios_base@std@@SA_N_N@Z": # @"?sync_with_stdio@ios_base@std@@SA_N_N@Z"
.seh_proc "?sync_with_stdio@ios_base@std@@SA_N_N@Z"
# %bb.0:
	sub	rsp, 56
	.seh_stackalloc 56
	.seh_endprologue
	and	cl, 1
	mov	byte ptr [rsp + 55], cl
	lea	rcx, [rsp + 48]
	mov	edx, 2
	call	"??0_Lockit@std@@QEAA@H@Z"
	mov	al, byte ptr [rip + "?_Sync@ios_base@std@@0_NA"]
	and	al, 1
	mov	byte ptr [rsp + 47], al
	mov	al, byte ptr [rsp + 55]
	and	al, 1
	mov	byte ptr [rip + "?_Sync@ios_base@std@@0_NA"], al
	mov	al, byte ptr [rsp + 47]
	mov	byte ptr [rsp + 46], al         # 1-byte Spill
	lea	rcx, [rsp + 48]
	call	"??1_Lockit@std@@QEAA@XZ"
	mov	al, byte ptr [rsp + 46]         # 1-byte Reload
	and	al, 1
	add	rsp, 56
	ret
	.seh_endproc
                                        # -- End function
	.def	"?tie@?$basic_ios@DU?$char_traits@D@std@@@std@@QEAAPEAV?$basic_ostream@DU?$char_traits@D@std@@@2@PEAV32@@Z";
	.scl	2;
	.type	32;
	.endef
	.section	.text,"xr",discard,"?tie@?$basic_ios@DU?$char_traits@D@std@@@std@@QEAAPEAV?$basic_ostream@DU?$char_traits@D@std@@@2@PEAV32@@Z"
	.globl	"?tie@?$basic_ios@DU?$char_traits@D@std@@@std@@QEAAPEAV?$basic_ostream@DU?$char_traits@D@std@@@2@PEAV32@@Z" # -- Begin function ?tie@?$basic_ios@DU?$char_traits@D@std@@@std@@QEAAPEAV?$basic_ostream@DU?$char_traits@D@std@@@2@PEAV32@@Z
	.p2align	4, 0x90
"?tie@?$basic_ios@DU?$char_traits@D@std@@@std@@QEAAPEAV?$basic_ostream@DU?$char_traits@D@std@@@2@PEAV32@@Z": # @"?tie@?$basic_ios@DU?$char_traits@D@std@@@std@@QEAAPEAV?$basic_ostream@DU?$char_traits@D@std@@@2@PEAV32@@Z"
.seh_proc "?tie@?$basic_ios@DU?$char_traits@D@std@@@std@@QEAAPEAV?$basic_ostream@DU?$char_traits@D@std@@@2@PEAV32@@Z"
# %bb.0:
	sub	rsp, 24
	.seh_stackalloc 24
	.seh_endprologue
	mov	qword ptr [rsp + 16], rdx
	mov	qword ptr [rsp + 8], rcx
	mov	rax, qword ptr [rsp + 8]
	mov	rcx, qword ptr [rax + 80]
	mov	qword ptr [rsp], rcx
	mov	rcx, qword ptr [rsp + 16]
	mov	qword ptr [rax + 80], rcx
	mov	rax, qword ptr [rsp]
	add	rsp, 24
	ret
	.seh_endproc
                                        # -- End function
	.def	"??$?6DU?$char_traits@D@std@@@std@@YAAEAV?$basic_ostream@DU?$char_traits@D@std@@@0@AEAV10@AEBU?$_Smanip@_J@0@@Z";
	.scl	2;
	.type	32;
	.endef
	.section	.text,"xr",discard,"??$?6DU?$char_traits@D@std@@@std@@YAAEAV?$basic_ostream@DU?$char_traits@D@std@@@0@AEAV10@AEBU?$_Smanip@_J@0@@Z"
	.globl	"??$?6DU?$char_traits@D@std@@@std@@YAAEAV?$basic_ostream@DU?$char_traits@D@std@@@0@AEAV10@AEBU?$_Smanip@_J@0@@Z" # -- Begin function ??$?6DU?$char_traits@D@std@@@std@@YAAEAV?$basic_ostream@DU?$char_traits@D@std@@@0@AEAV10@AEBU?$_Smanip@_J@0@@Z
	.p2align	4, 0x90
"??$?6DU?$char_traits@D@std@@@std@@YAAEAV?$basic_ostream@DU?$char_traits@D@std@@@0@AEAV10@AEBU?$_Smanip@_J@0@@Z": # @"??$?6DU?$char_traits@D@std@@@std@@YAAEAV?$basic_ostream@DU?$char_traits@D@std@@@0@AEAV10@AEBU?$_Smanip@_J@0@@Z"
.seh_proc "??$?6DU?$char_traits@D@std@@@std@@YAAEAV?$basic_ostream@DU?$char_traits@D@std@@@0@AEAV10@AEBU?$_Smanip@_J@0@@Z"
# %bb.0:
	sub	rsp, 56
	.seh_stackalloc 56
	.seh_endprologue
	mov	qword ptr [rsp + 48], rdx
	mov	qword ptr [rsp + 40], rcx
	mov	rax, qword ptr [rsp + 48]
	mov	rax, qword ptr [rax]
	mov	rcx, qword ptr [rsp + 48]
	mov	rdx, qword ptr [rcx + 8]
	mov	rcx, qword ptr [rsp + 40]
	mov	r8, qword ptr [rcx]
	movsxd	r8, dword ptr [r8 + 4]
	add	r8, 0
	add	rcx, r8
	call	rax
	mov	rax, qword ptr [rsp + 40]
	add	rsp, 56
	ret
	.seh_endproc
                                        # -- End function
	.def	"??6?$basic_ostream@DU?$char_traits@D@std@@@std@@QEAAAEAV01@P6AAEAVios_base@1@AEAV21@@Z@Z";
	.scl	2;
	.type	32;
	.endef
	.section	.text,"xr",discard,"??6?$basic_ostream@DU?$char_traits@D@std@@@std@@QEAAAEAV01@P6AAEAVios_base@1@AEAV21@@Z@Z"
	.globl	"??6?$basic_ostream@DU?$char_traits@D@std@@@std@@QEAAAEAV01@P6AAEAVios_base@1@AEAV21@@Z@Z" # -- Begin function ??6?$basic_ostream@DU?$char_traits@D@std@@@std@@QEAAAEAV01@P6AAEAVios_base@1@AEAV21@@Z@Z
	.p2align	4, 0x90
"??6?$basic_ostream@DU?$char_traits@D@std@@@std@@QEAAAEAV01@P6AAEAVios_base@1@AEAV21@@Z@Z": # @"??6?$basic_ostream@DU?$char_traits@D@std@@@std@@QEAAAEAV01@P6AAEAVios_base@1@AEAV21@@Z@Z"
.seh_proc "??6?$basic_ostream@DU?$char_traits@D@std@@@std@@QEAAAEAV01@P6AAEAVios_base@1@AEAV21@@Z@Z"
# %bb.0:
	sub	rsp, 56
	.seh_stackalloc 56
	.seh_endprologue
	mov	qword ptr [rsp + 48], rdx
	mov	qword ptr [rsp + 40], rcx
	mov	rcx, qword ptr [rsp + 40]
	mov	qword ptr [rsp + 32], rcx       # 8-byte Spill
	mov	rax, qword ptr [rsp + 48]
	mov	rdx, qword ptr [rcx]
	movsxd	rdx, dword ptr [rdx + 4]
	add	rdx, 0
	add	rcx, rdx
	call	rax
                                        # kill: def $rcx killed $rax
	mov	rax, qword ptr [rsp + 32]       # 8-byte Reload
	add	rsp, 56
	ret
	.seh_endproc
                                        # -- End function
	.def	"?fixed@std@@YAAEAVios_base@1@AEAV21@@Z";
	.scl	2;
	.type	32;
	.endef
	.section	.text,"xr",discard,"?fixed@std@@YAAEAVios_base@1@AEAV21@@Z"
	.globl	"?fixed@std@@YAAEAVios_base@1@AEAV21@@Z" # -- Begin function ?fixed@std@@YAAEAVios_base@1@AEAV21@@Z
	.p2align	4, 0x90
"?fixed@std@@YAAEAVios_base@1@AEAV21@@Z": # @"?fixed@std@@YAAEAVios_base@1@AEAV21@@Z"
.seh_proc "?fixed@std@@YAAEAVios_base@1@AEAV21@@Z"
# %bb.0:
	sub	rsp, 40
	.seh_stackalloc 40
	.seh_endprologue
	mov	qword ptr [rsp + 32], rcx
	mov	rcx, qword ptr [rsp + 32]
	mov	edx, 8192
	mov	r8d, 12288
	call	"?setf@ios_base@std@@QEAAHHH@Z"
	mov	rax, qword ptr [rsp + 32]
	add	rsp, 40
	ret
	.seh_endproc
                                        # -- End function
	.def	"??5?$basic_istream@DU?$char_traits@D@std@@@std@@QEAAAEAV01@AEAH@Z";
	.scl	2;
	.type	32;
	.endef
	.section	.text,"xr",discard,"??5?$basic_istream@DU?$char_traits@D@std@@@std@@QEAAAEAV01@AEAH@Z"
	.globl	"??5?$basic_istream@DU?$char_traits@D@std@@@std@@QEAAAEAV01@AEAH@Z" # -- Begin function ??5?$basic_istream@DU?$char_traits@D@std@@@std@@QEAAAEAV01@AEAH@Z
	.p2align	4, 0x90
"??5?$basic_istream@DU?$char_traits@D@std@@@std@@QEAAAEAV01@AEAH@Z": # @"??5?$basic_istream@DU?$char_traits@D@std@@@std@@QEAAAEAV01@AEAH@Z"
.seh_proc "??5?$basic_istream@DU?$char_traits@D@std@@@std@@QEAAAEAV01@AEAH@Z"
# %bb.0:
	sub	rsp, 72
	.seh_stackalloc 72
	.seh_endprologue
	mov	qword ptr [rsp + 64], rdx
	mov	qword ptr [rsp + 56], rcx
	mov	rcx, qword ptr [rsp + 56]
	mov	qword ptr [rsp + 40], rcx       # 8-byte Spill
	mov	rax, qword ptr [rsp + 64]
	mov	eax, dword ptr [rax]
	mov	dword ptr [rsp + 52], eax
	lea	rdx, [rsp + 52]
	call	"??$_Common_extract_with_num_get@J@?$basic_istream@DU?$char_traits@D@std@@@std@@AEAAAEAV01@AEAJ@Z"
                                        # kill: def $rcx killed $rax
	mov	rax, qword ptr [rsp + 40]       # 8-byte Reload
	mov	edx, dword ptr [rsp + 52]
	mov	rcx, qword ptr [rsp + 64]
	mov	dword ptr [rcx], edx
	add	rsp, 72
	ret
	.seh_endproc
                                        # -- End function
	.def	"??5?$basic_istream@DU?$char_traits@D@std@@@std@@QEAAAEAV01@AEAO@Z";
	.scl	2;
	.type	32;
	.endef
	.section	.text,"xr",discard,"??5?$basic_istream@DU?$char_traits@D@std@@@std@@QEAAAEAV01@AEAO@Z"
	.globl	"??5?$basic_istream@DU?$char_traits@D@std@@@std@@QEAAAEAV01@AEAO@Z" # -- Begin function ??5?$basic_istream@DU?$char_traits@D@std@@@std@@QEAAAEAV01@AEAO@Z
	.p2align	4, 0x90
"??5?$basic_istream@DU?$char_traits@D@std@@@std@@QEAAAEAV01@AEAO@Z": # @"??5?$basic_istream@DU?$char_traits@D@std@@@std@@QEAAAEAV01@AEAO@Z"
.seh_proc "??5?$basic_istream@DU?$char_traits@D@std@@@std@@QEAAAEAV01@AEAO@Z"
# %bb.0:
	sub	rsp, 56
	.seh_stackalloc 56
	.seh_endprologue
	mov	qword ptr [rsp + 48], rdx
	mov	qword ptr [rsp + 40], rcx
	mov	rcx, qword ptr [rsp + 40]
	mov	rdx, qword ptr [rsp + 48]
	call	"??$_Common_extract_with_num_get@O@?$basic_istream@DU?$char_traits@D@std@@@std@@AEAAAEAV01@AEAO@Z"
	nop
	add	rsp, 56
	ret
	.seh_endproc
                                        # -- End function
	.def	"??Bios_base@std@@QEBA_NXZ";
	.scl	2;
	.type	32;
	.endef
	.section	.text,"xr",discard,"??Bios_base@std@@QEBA_NXZ"
	.globl	"??Bios_base@std@@QEBA_NXZ"     # -- Begin function ??Bios_base@std@@QEBA_NXZ
	.p2align	4, 0x90
"??Bios_base@std@@QEBA_NXZ":            # @"??Bios_base@std@@QEBA_NXZ"
.seh_proc "??Bios_base@std@@QEBA_NXZ"
# %bb.0:
	sub	rsp, 40
	.seh_stackalloc 40
	.seh_endprologue
	mov	qword ptr [rsp + 32], rcx
	mov	rcx, qword ptr [rsp + 32]
	call	"?fail@ios_base@std@@QEBA_NXZ"
	xor	al, -1
	and	al, 1
	add	rsp, 40
	ret
	.seh_endproc
                                        # -- End function
	.def	"??0?$allocator@UPoint@@@std@@QEAA@XZ";
	.scl	2;
	.type	32;
	.endef
	.section	.text,"xr",discard,"??0?$allocator@UPoint@@@std@@QEAA@XZ"
	.globl	"??0?$allocator@UPoint@@@std@@QEAA@XZ" # -- Begin function ??0?$allocator@UPoint@@@std@@QEAA@XZ
	.p2align	4, 0x90
"??0?$allocator@UPoint@@@std@@QEAA@XZ": # @"??0?$allocator@UPoint@@@std@@QEAA@XZ"
.seh_proc "??0?$allocator@UPoint@@@std@@QEAA@XZ"
# %bb.0:
	push	rax
	.seh_stackalloc 8
	.seh_endprologue
	mov	qword ptr [rsp], rcx
	mov	rax, qword ptr [rsp]
	pop	rcx
	ret
	.seh_endproc
                                        # -- End function
	.def	"??0?$vector@UPoint@@V?$allocator@UPoint@@@std@@@std@@QEAA@_KAEBV?$allocator@UPoint@@@1@@Z";
	.scl	2;
	.type	32;
	.endef
	.section	.text,"xr",discard,"??0?$vector@UPoint@@V?$allocator@UPoint@@@std@@@std@@QEAA@_KAEBV?$allocator@UPoint@@@1@@Z"
	.globl	"??0?$vector@UPoint@@V?$allocator@UPoint@@@std@@@std@@QEAA@_KAEBV?$allocator@UPoint@@@1@@Z" # -- Begin function ??0?$vector@UPoint@@V?$allocator@UPoint@@@std@@@std@@QEAA@_KAEBV?$allocator@UPoint@@@1@@Z
	.p2align	4, 0x90
"??0?$vector@UPoint@@V?$allocator@UPoint@@@std@@@std@@QEAA@_KAEBV?$allocator@UPoint@@@1@@Z": # @"??0?$vector@UPoint@@V?$allocator@UPoint@@@std@@@std@@QEAA@_KAEBV?$allocator@UPoint@@@1@@Z"
.seh_proc "??0?$vector@UPoint@@V?$allocator@UPoint@@@std@@@std@@QEAA@_KAEBV?$allocator@UPoint@@@1@@Z"
# %bb.0:
	sub	rsp, 72
	.seh_stackalloc 72
	.seh_endprologue
	mov	qword ptr [rsp + 64], r8
	mov	qword ptr [rsp + 56], rdx
	mov	qword ptr [rsp + 48], rcx
	mov	rcx, qword ptr [rsp + 48]
	mov	qword ptr [rsp + 32], rcx       # 8-byte Spill
	mov	r8, qword ptr [rsp + 64]
	mov	dl, byte ptr [rsp + 47]
	call	"??$?0AEBV?$allocator@UPoint@@@std@@$$V@?$_Compressed_pair@V?$allocator@UPoint@@@std@@V?$_Vector_val@U?$_Simple_types@UPoint@@@std@@@2@$00@std@@QEAA@U_One_then_variadic_args_t@1@AEBV?$allocator@UPoint@@@1@@Z"
	mov	rcx, qword ptr [rsp + 32]       # 8-byte Reload
	mov	rdx, qword ptr [rsp + 56]
	call	"??$_Construct_n@$$V@?$vector@UPoint@@V?$allocator@UPoint@@@std@@@std@@AEAAX_K@Z"
	mov	rax, qword ptr [rsp + 32]       # 8-byte Reload
	add	rsp, 72
	ret
	.seh_endproc
                                        # -- End function
	.def	"??A?$vector@UPoint@@V?$allocator@UPoint@@@std@@@std@@QEAAAEAUPoint@@_K@Z";
	.scl	2;
	.type	32;
	.endef
	.section	.text,"xr",discard,"??A?$vector@UPoint@@V?$allocator@UPoint@@@std@@@std@@QEAAAEAUPoint@@_K@Z"
	.globl	"??A?$vector@UPoint@@V?$allocator@UPoint@@@std@@@std@@QEAAAEAUPoint@@_K@Z" # -- Begin function ??A?$vector@UPoint@@V?$allocator@UPoint@@@std@@@std@@QEAAAEAUPoint@@_K@Z
	.p2align	4, 0x90
"??A?$vector@UPoint@@V?$allocator@UPoint@@@std@@@std@@QEAAAEAUPoint@@_K@Z": # @"??A?$vector@UPoint@@V?$allocator@UPoint@@@std@@@std@@QEAAAEAUPoint@@_K@Z"
.seh_proc "??A?$vector@UPoint@@V?$allocator@UPoint@@@std@@@std@@QEAAAEAUPoint@@_K@Z"
# %bb.0:
	sub	rsp, 24
	.seh_stackalloc 24
	.seh_endprologue
	mov	qword ptr [rsp + 16], rdx
	mov	qword ptr [rsp + 8], rcx
	mov	rax, qword ptr [rsp + 8]
	mov	qword ptr [rsp], rax
	mov	rax, qword ptr [rsp]
	mov	rax, qword ptr [rax]
	imul	rcx, qword ptr [rsp + 16], 24
	add	rax, rcx
	add	rsp, 24
	ret
	.seh_endproc
                                        # -- End function
	.def	"??0?$set@UPoint@@UCompare@1@V?$allocator@UPoint@@@std@@@std@@QEAA@XZ";
	.scl	2;
	.type	32;
	.endef
	.section	.text,"xr",discard,"??0?$set@UPoint@@UCompare@1@V?$allocator@UPoint@@@std@@@std@@QEAA@XZ"
	.globl	"??0?$set@UPoint@@UCompare@1@V?$allocator@UPoint@@@std@@@std@@QEAA@XZ" # -- Begin function ??0?$set@UPoint@@UCompare@1@V?$allocator@UPoint@@@std@@@std@@QEAA@XZ
	.p2align	4, 0x90
"??0?$set@UPoint@@UCompare@1@V?$allocator@UPoint@@@std@@@std@@QEAA@XZ": # @"??0?$set@UPoint@@UCompare@1@V?$allocator@UPoint@@@std@@@std@@QEAA@XZ"
.seh_proc "??0?$set@UPoint@@UCompare@1@V?$allocator@UPoint@@@std@@@std@@QEAA@XZ"
# %bb.0:
	sub	rsp, 56
	.seh_stackalloc 56
	.seh_endprologue
	mov	qword ptr [rsp + 48], rcx
	mov	rcx, qword ptr [rsp + 48]
	mov	qword ptr [rsp + 32], rcx       # 8-byte Spill
	lea	rdx, [rsp + 47]
	call	"??0?$_Tree@V?$_Tset_traits@UPoint@@UCompare@1@V?$allocator@UPoint@@@std@@$0A@@std@@@std@@QEAA@AEBUCompare@Point@@@Z"
                                        # kill: def $rcx killed $rax
	mov	rax, qword ptr [rsp + 32]       # 8-byte Reload
	add	rsp, 56
	ret
	.seh_endproc
                                        # -- End function
	.def	"?begin@?$vector@UPoint@@V?$allocator@UPoint@@@std@@@std@@QEAA?AV?$_Vector_iterator@V?$_Vector_val@U?$_Simple_types@UPoint@@@std@@@std@@@2@XZ";
	.scl	2;
	.type	32;
	.endef
	.section	.text,"xr",discard,"?begin@?$vector@UPoint@@V?$allocator@UPoint@@@std@@@std@@QEAA?AV?$_Vector_iterator@V?$_Vector_val@U?$_Simple_types@UPoint@@@std@@@std@@@2@XZ"
	.globl	"?begin@?$vector@UPoint@@V?$allocator@UPoint@@@std@@@std@@QEAA?AV?$_Vector_iterator@V?$_Vector_val@U?$_Simple_types@UPoint@@@std@@@std@@@2@XZ" # -- Begin function ?begin@?$vector@UPoint@@V?$allocator@UPoint@@@std@@@std@@QEAA?AV?$_Vector_iterator@V?$_Vector_val@U?$_Simple_types@UPoint@@@std@@@std@@@2@XZ
	.p2align	4, 0x90
"?begin@?$vector@UPoint@@V?$allocator@UPoint@@@std@@@std@@QEAA?AV?$_Vector_iterator@V?$_Vector_val@U?$_Simple_types@UPoint@@@std@@@std@@@2@XZ": # @"?begin@?$vector@UPoint@@V?$allocator@UPoint@@@std@@@std@@QEAA?AV?$_Vector_iterator@V?$_Vector_val@U?$_Simple_types@UPoint@@@std@@@std@@@2@XZ"
.seh_proc "?begin@?$vector@UPoint@@V?$allocator@UPoint@@@std@@@std@@QEAA?AV?$_Vector_iterator@V?$_Vector_val@U?$_Simple_types@UPoint@@@std@@@std@@@2@XZ"
# %bb.0:
	sub	rsp, 72
	.seh_stackalloc 72
	.seh_endprologue
	mov	qword ptr [rsp + 32], rdx       # 8-byte Spill
	mov	rax, rcx
	mov	rcx, qword ptr [rsp + 32]       # 8-byte Reload
	mov	rdx, rcx
	mov	qword ptr [rsp + 40], rdx       # 8-byte Spill
	mov	qword ptr [rsp + 64], rcx
	mov	qword ptr [rsp + 56], rax
	mov	rax, qword ptr [rsp + 56]
	mov	qword ptr [rsp + 48], rax
	mov	r8, qword ptr [rsp + 48]
	mov	rax, qword ptr [rsp + 48]
	mov	rdx, qword ptr [rax]
	call	"??0?$_Vector_iterator@V?$_Vector_val@U?$_Simple_types@UPoint@@@std@@@std@@@std@@QEAA@PEAUPoint@@PEBU_Container_base0@1@@Z"
                                        # kill: def $rcx killed $rax
	mov	rax, qword ptr [rsp + 40]       # 8-byte Reload
	add	rsp, 72
	ret
	.seh_endproc
                                        # -- End function
	.def	"?end@?$vector@UPoint@@V?$allocator@UPoint@@@std@@@std@@QEAA?AV?$_Vector_iterator@V?$_Vector_val@U?$_Simple_types@UPoint@@@std@@@std@@@2@XZ";
	.scl	2;
	.type	32;
	.endef
	.section	.text,"xr",discard,"?end@?$vector@UPoint@@V?$allocator@UPoint@@@std@@@std@@QEAA?AV?$_Vector_iterator@V?$_Vector_val@U?$_Simple_types@UPoint@@@std@@@std@@@2@XZ"
	.globl	"?end@?$vector@UPoint@@V?$allocator@UPoint@@@std@@@std@@QEAA?AV?$_Vector_iterator@V?$_Vector_val@U?$_Simple_types@UPoint@@@std@@@std@@@2@XZ" # -- Begin function ?end@?$vector@UPoint@@V?$allocator@UPoint@@@std@@@std@@QEAA?AV?$_Vector_iterator@V?$_Vector_val@U?$_Simple_types@UPoint@@@std@@@std@@@2@XZ
	.p2align	4, 0x90
"?end@?$vector@UPoint@@V?$allocator@UPoint@@@std@@@std@@QEAA?AV?$_Vector_iterator@V?$_Vector_val@U?$_Simple_types@UPoint@@@std@@@std@@@2@XZ": # @"?end@?$vector@UPoint@@V?$allocator@UPoint@@@std@@@std@@QEAA?AV?$_Vector_iterator@V?$_Vector_val@U?$_Simple_types@UPoint@@@std@@@std@@@2@XZ"
.seh_proc "?end@?$vector@UPoint@@V?$allocator@UPoint@@@std@@@std@@QEAA?AV?$_Vector_iterator@V?$_Vector_val@U?$_Simple_types@UPoint@@@std@@@std@@@2@XZ"
# %bb.0:
	sub	rsp, 72
	.seh_stackalloc 72
	.seh_endprologue
	mov	qword ptr [rsp + 32], rdx       # 8-byte Spill
	mov	rax, rcx
	mov	rcx, qword ptr [rsp + 32]       # 8-byte Reload
	mov	rdx, rcx
	mov	qword ptr [rsp + 40], rdx       # 8-byte Spill
	mov	qword ptr [rsp + 64], rcx
	mov	qword ptr [rsp + 56], rax
	mov	rax, qword ptr [rsp + 56]
	mov	qword ptr [rsp + 48], rax
	mov	r8, qword ptr [rsp + 48]
	mov	rax, qword ptr [rsp + 48]
	mov	rdx, qword ptr [rax + 8]
	call	"??0?$_Vector_iterator@V?$_Vector_val@U?$_Simple_types@UPoint@@@std@@@std@@@std@@QEAA@PEAUPoint@@PEBU_Container_base0@1@@Z"
                                        # kill: def $rcx killed $rax
	mov	rax, qword ptr [rsp + 40]       # 8-byte Reload
	add	rsp, 72
	ret
	.seh_endproc
                                        # -- End function
	.def	"??D?$_Vector_iterator@V?$_Vector_val@U?$_Simple_types@UPoint@@@std@@@std@@@std@@QEBAAEAUPoint@@XZ";
	.scl	2;
	.type	32;
	.endef
	.section	.text,"xr",discard,"??D?$_Vector_iterator@V?$_Vector_val@U?$_Simple_types@UPoint@@@std@@@std@@@std@@QEBAAEAUPoint@@XZ"
	.globl	"??D?$_Vector_iterator@V?$_Vector_val@U?$_Simple_types@UPoint@@@std@@@std@@@std@@QEBAAEAUPoint@@XZ" # -- Begin function ??D?$_Vector_iterator@V?$_Vector_val@U?$_Simple_types@UPoint@@@std@@@std@@@std@@QEBAAEAUPoint@@XZ
	.p2align	4, 0x90
"??D?$_Vector_iterator@V?$_Vector_val@U?$_Simple_types@UPoint@@@std@@@std@@@std@@QEBAAEAUPoint@@XZ": # @"??D?$_Vector_iterator@V?$_Vector_val@U?$_Simple_types@UPoint@@@std@@@std@@@std@@QEBAAEAUPoint@@XZ"
.seh_proc "??D?$_Vector_iterator@V?$_Vector_val@U?$_Simple_types@UPoint@@@std@@@std@@@std@@QEBAAEAUPoint@@XZ"
# %bb.0:
	sub	rsp, 40
	.seh_stackalloc 40
	.seh_endprologue
	mov	qword ptr [rsp + 32], rcx
	mov	rcx, qword ptr [rsp + 32]
	call	"??D?$_Vector_const_iterator@V?$_Vector_val@U?$_Simple_types@UPoint@@@std@@@std@@@std@@QEBAAEBUPoint@@XZ"
	nop
	add	rsp, 40
	ret
	.seh_endproc
                                        # -- End function
	.def	"??$insert@$0A@$0A@@?$_Tree@V?$_Tset_traits@UPoint@@UCompare@1@V?$allocator@UPoint@@@std@@$0A@@std@@@std@@QEAA?AU?$pair@V?$_Tree_const_iterator@V?$_Tree_val@U?$_Tree_simple_types@UPoint@@@std@@@std@@@std@@_N@1@AEBUPoint@@@Z";
	.scl	2;
	.type	32;
	.endef
	.section	.text,"xr",discard,"??$insert@$0A@$0A@@?$_Tree@V?$_Tset_traits@UPoint@@UCompare@1@V?$allocator@UPoint@@@std@@$0A@@std@@@std@@QEAA?AU?$pair@V?$_Tree_const_iterator@V?$_Tree_val@U?$_Tree_simple_types@UPoint@@@std@@@std@@@std@@_N@1@AEBUPoint@@@Z"
	.globl	"??$insert@$0A@$0A@@?$_Tree@V?$_Tset_traits@UPoint@@UCompare@1@V?$allocator@UPoint@@@std@@$0A@@std@@@std@@QEAA?AU?$pair@V?$_Tree_const_iterator@V?$_Tree_val@U?$_Tree_simple_types@UPoint@@@std@@@std@@@std@@_N@1@AEBUPoint@@@Z" # -- Begin function ??$insert@$0A@$0A@@?$_Tree@V?$_Tset_traits@UPoint@@UCompare@1@V?$allocator@UPoint@@@std@@$0A@@std@@@std@@QEAA?AU?$pair@V?$_Tree_const_iterator@V?$_Tree_val@U?$_Tree_simple_types@UPoint@@@std@@@std@@@std@@_N@1@AEBUPoint@@@Z
	.p2align	4, 0x90
"??$insert@$0A@$0A@@?$_Tree@V?$_Tset_traits@UPoint@@UCompare@1@V?$allocator@UPoint@@@std@@$0A@@std@@@std@@QEAA?AU?$pair@V?$_Tree_const_iterator@V?$_Tree_val@U?$_Tree_simple_types@UPoint@@@std@@@std@@@std@@_N@1@AEBUPoint@@@Z": # @"??$insert@$0A@$0A@@?$_Tree@V?$_Tset_traits@UPoint@@UCompare@1@V?$allocator@UPoint@@@std@@$0A@@std@@@std@@QEAA?AU?$pair@V?$_Tree_const_iterator@V?$_Tree_val@U?$_Tree_simple_types@UPoint@@@std@@@std@@@std@@_N@1@AEBUPoint@@@Z"
.seh_proc "??$insert@$0A@$0A@@?$_Tree@V?$_Tset_traits@UPoint@@UCompare@1@V?$allocator@UPoint@@@std@@$0A@@std@@@std@@QEAA?AU?$pair@V?$_Tree_const_iterator@V?$_Tree_val@U?$_Tree_simple_types@UPoint@@@std@@@std@@@std@@_N@1@AEBUPoint@@@Z"
# %bb.0:
	sub	rsp, 104
	.seh_stackalloc 104
	.seh_endprologue
	mov	qword ptr [rsp + 40], rdx       # 8-byte Spill
	mov	rax, rdx
	mov	qword ptr [rsp + 48], rax       # 8-byte Spill
	mov	qword ptr [rsp + 96], rdx
	mov	qword ptr [rsp + 88], r8
	mov	qword ptr [rsp + 80], rcx
	mov	rcx, qword ptr [rsp + 80]
	mov	qword ptr [rsp + 32], rcx       # 8-byte Spill
	mov	r8, qword ptr [rsp + 88]
	lea	rdx, [rsp + 64]
	call	"??$_Emplace@AEBUPoint@@@?$_Tree@V?$_Tset_traits@UPoint@@UCompare@1@V?$allocator@UPoint@@@std@@$0A@@std@@@std@@IEAA?AU?$pair@PEAU?$_Tree_node@UPoint@@PEAX@std@@_N@1@AEBUPoint@@@Z"
	mov	rcx, qword ptr [rsp + 32]       # 8-byte Reload
	call	"?_Get_scary@?$_Tree@V?$_Tset_traits@UPoint@@UCompare@1@V?$allocator@UPoint@@@std@@$0A@@std@@@std@@IEAAPEAV?$_Tree_val@U?$_Tree_simple_types@UPoint@@@std@@@2@XZ"
	mov	r8, rax
	mov	rdx, qword ptr [rsp + 64]
	lea	rcx, [rsp + 56]
	call	"??0?$_Tree_const_iterator@V?$_Tree_val@U?$_Tree_simple_types@UPoint@@@std@@@std@@@std@@QEAA@PEAU?$_Tree_node@UPoint@@PEAX@1@PEBV?$_Tree_val@U?$_Tree_simple_types@UPoint@@@std@@@1@@Z"
	mov	rcx, qword ptr [rsp + 40]       # 8-byte Reload
	lea	r8, [rsp + 64]
	add	r8, 8
	lea	rdx, [rsp + 56]
	call	"??$?0V?$_Tree_const_iterator@V?$_Tree_val@U?$_Tree_simple_types@UPoint@@@std@@@std@@@std@@AEB_N$0A@@?$pair@V?$_Tree_const_iterator@V?$_Tree_val@U?$_Tree_simple_types@UPoint@@@std@@@std@@@std@@_N@std@@QEAA@$$QEAV?$_Tree_const_iterator@V?$_Tree_val@U?$_Tree_simple_types@UPoint@@@std@@@std@@@1@AEB_N@Z"
                                        # kill: def $rcx killed $rax
	mov	rax, qword ptr [rsp + 48]       # 8-byte Reload
	add	rsp, 104
	ret
	.seh_endproc
                                        # -- End function
	.def	"??E?$_Vector_iterator@V?$_Vector_val@U?$_Simple_types@UPoint@@@std@@@std@@@std@@QEAAAEAV01@XZ";
	.scl	2;
	.type	32;
	.endef
	.section	.text,"xr",discard,"??E?$_Vector_iterator@V?$_Vector_val@U?$_Simple_types@UPoint@@@std@@@std@@@std@@QEAAAEAV01@XZ"
	.globl	"??E?$_Vector_iterator@V?$_Vector_val@U?$_Simple_types@UPoint@@@std@@@std@@@std@@QEAAAEAV01@XZ" # -- Begin function ??E?$_Vector_iterator@V?$_Vector_val@U?$_Simple_types@UPoint@@@std@@@std@@@std@@QEAAAEAV01@XZ
	.p2align	4, 0x90
"??E?$_Vector_iterator@V?$_Vector_val@U?$_Simple_types@UPoint@@@std@@@std@@@std@@QEAAAEAV01@XZ": # @"??E?$_Vector_iterator@V?$_Vector_val@U?$_Simple_types@UPoint@@@std@@@std@@@std@@QEAAAEAV01@XZ"
.seh_proc "??E?$_Vector_iterator@V?$_Vector_val@U?$_Simple_types@UPoint@@@std@@@std@@@std@@QEAAAEAV01@XZ"
# %bb.0:
	sub	rsp, 56
	.seh_stackalloc 56
	.seh_endprologue
	mov	qword ptr [rsp + 48], rcx
	mov	rcx, qword ptr [rsp + 48]
	mov	qword ptr [rsp + 40], rcx       # 8-byte Spill
	call	"??E?$_Vector_const_iterator@V?$_Vector_val@U?$_Simple_types@UPoint@@@std@@@std@@@std@@QEAAAEAV01@XZ"
                                        # kill: def $rcx killed $rax
	mov	rax, qword ptr [rsp + 40]       # 8-byte Reload
	add	rsp, 56
	ret
	.seh_endproc
                                        # -- End function
	.def	"?end@?$_Tree@V?$_Tset_traits@UPoint@@UCompare@1@V?$allocator@UPoint@@@std@@$0A@@std@@@std@@QEAA?AV?$_Tree_const_iterator@V?$_Tree_val@U?$_Tree_simple_types@UPoint@@@std@@@std@@@2@XZ";
	.scl	2;
	.type	32;
	.endef
	.section	.text,"xr",discard,"?end@?$_Tree@V?$_Tset_traits@UPoint@@UCompare@1@V?$allocator@UPoint@@@std@@$0A@@std@@@std@@QEAA?AV?$_Tree_const_iterator@V?$_Tree_val@U?$_Tree_simple_types@UPoint@@@std@@@std@@@2@XZ"
	.globl	"?end@?$_Tree@V?$_Tset_traits@UPoint@@UCompare@1@V?$allocator@UPoint@@@std@@$0A@@std@@@std@@QEAA?AV?$_Tree_const_iterator@V?$_Tree_val@U?$_Tree_simple_types@UPoint@@@std@@@std@@@2@XZ" # -- Begin function ?end@?$_Tree@V?$_Tset_traits@UPoint@@UCompare@1@V?$allocator@UPoint@@@std@@$0A@@std@@@std@@QEAA?AV?$_Tree_const_iterator@V?$_Tree_val@U?$_Tree_simple_types@UPoint@@@std@@@std@@@2@XZ
	.p2align	4, 0x90
"?end@?$_Tree@V?$_Tset_traits@UPoint@@UCompare@1@V?$allocator@UPoint@@@std@@$0A@@std@@@std@@QEAA?AV?$_Tree_const_iterator@V?$_Tree_val@U?$_Tree_simple_types@UPoint@@@std@@@std@@@2@XZ": # @"?end@?$_Tree@V?$_Tset_traits@UPoint@@UCompare@1@V?$allocator@UPoint@@@std@@$0A@@std@@@std@@QEAA?AV?$_Tree_const_iterator@V?$_Tree_val@U?$_Tree_simple_types@UPoint@@@std@@@std@@@2@XZ"
.seh_proc "?end@?$_Tree@V?$_Tset_traits@UPoint@@UCompare@1@V?$allocator@UPoint@@@std@@$0A@@std@@@std@@QEAA?AV?$_Tree_const_iterator@V?$_Tree_val@U?$_Tree_simple_types@UPoint@@@std@@@std@@@2@XZ"
# %bb.0:
	sub	rsp, 72
	.seh_stackalloc 72
	.seh_endprologue
	mov	qword ptr [rsp + 32], rdx       # 8-byte Spill
	mov	rax, rdx
	mov	qword ptr [rsp + 40], rax       # 8-byte Spill
	mov	qword ptr [rsp + 64], rdx
	mov	qword ptr [rsp + 56], rcx
	mov	rcx, qword ptr [rsp + 56]
	call	"?_Get_scary@?$_Tree@V?$_Tset_traits@UPoint@@UCompare@1@V?$allocator@UPoint@@@std@@$0A@@std@@@std@@IEAAPEAV?$_Tree_val@U?$_Tree_simple_types@UPoint@@@std@@@2@XZ"
	mov	rcx, qword ptr [rsp + 32]       # 8-byte Reload
	mov	qword ptr [rsp + 48], rax
	mov	r8, qword ptr [rsp + 48]
	mov	rax, qword ptr [rsp + 48]
	mov	rdx, qword ptr [rax]
	call	"??0?$_Tree_const_iterator@V?$_Tree_val@U?$_Tree_simple_types@UPoint@@@std@@@std@@@std@@QEAA@PEAU?$_Tree_node@UPoint@@PEAX@1@PEBV?$_Tree_val@U?$_Tree_simple_types@UPoint@@@std@@@1@@Z"
                                        # kill: def $rcx killed $rax
	mov	rax, qword ptr [rsp + 40]       # 8-byte Reload
	add	rsp, 72
	ret
	.seh_endproc
                                        # -- End function
	.def	"?begin@?$_Tree@V?$_Tset_traits@UPoint@@UCompare@1@V?$allocator@UPoint@@@std@@$0A@@std@@@std@@QEAA?AV?$_Tree_const_iterator@V?$_Tree_val@U?$_Tree_simple_types@UPoint@@@std@@@std@@@2@XZ";
	.scl	2;
	.type	32;
	.endef
	.section	.text,"xr",discard,"?begin@?$_Tree@V?$_Tset_traits@UPoint@@UCompare@1@V?$allocator@UPoint@@@std@@$0A@@std@@@std@@QEAA?AV?$_Tree_const_iterator@V?$_Tree_val@U?$_Tree_simple_types@UPoint@@@std@@@std@@@2@XZ"
	.globl	"?begin@?$_Tree@V?$_Tset_traits@UPoint@@UCompare@1@V?$allocator@UPoint@@@std@@$0A@@std@@@std@@QEAA?AV?$_Tree_const_iterator@V?$_Tree_val@U?$_Tree_simple_types@UPoint@@@std@@@std@@@2@XZ" # -- Begin function ?begin@?$_Tree@V?$_Tset_traits@UPoint@@UCompare@1@V?$allocator@UPoint@@@std@@$0A@@std@@@std@@QEAA?AV?$_Tree_const_iterator@V?$_Tree_val@U?$_Tree_simple_types@UPoint@@@std@@@std@@@2@XZ
	.p2align	4, 0x90
"?begin@?$_Tree@V?$_Tset_traits@UPoint@@UCompare@1@V?$allocator@UPoint@@@std@@$0A@@std@@@std@@QEAA?AV?$_Tree_const_iterator@V?$_Tree_val@U?$_Tree_simple_types@UPoint@@@std@@@std@@@2@XZ": # @"?begin@?$_Tree@V?$_Tset_traits@UPoint@@UCompare@1@V?$allocator@UPoint@@@std@@$0A@@std@@@std@@QEAA?AV?$_Tree_const_iterator@V?$_Tree_val@U?$_Tree_simple_types@UPoint@@@std@@@std@@@2@XZ"
.seh_proc "?begin@?$_Tree@V?$_Tset_traits@UPoint@@UCompare@1@V?$allocator@UPoint@@@std@@$0A@@std@@@std@@QEAA?AV?$_Tree_const_iterator@V?$_Tree_val@U?$_Tree_simple_types@UPoint@@@std@@@std@@@2@XZ"
# %bb.0:
	sub	rsp, 72
	.seh_stackalloc 72
	.seh_endprologue
	mov	qword ptr [rsp + 32], rdx       # 8-byte Spill
	mov	rax, rdx
	mov	qword ptr [rsp + 40], rax       # 8-byte Spill
	mov	qword ptr [rsp + 64], rdx
	mov	qword ptr [rsp + 56], rcx
	mov	rcx, qword ptr [rsp + 56]
	call	"?_Get_scary@?$_Tree@V?$_Tset_traits@UPoint@@UCompare@1@V?$allocator@UPoint@@@std@@$0A@@std@@@std@@IEAAPEAV?$_Tree_val@U?$_Tree_simple_types@UPoint@@@std@@@2@XZ"
	mov	rcx, qword ptr [rsp + 32]       # 8-byte Reload
	mov	qword ptr [rsp + 48], rax
	mov	r8, qword ptr [rsp + 48]
	mov	rax, qword ptr [rsp + 48]
	mov	rax, qword ptr [rax]
	mov	rdx, qword ptr [rax]
	call	"??0?$_Tree_const_iterator@V?$_Tree_val@U?$_Tree_simple_types@UPoint@@@std@@@std@@@std@@QEAA@PEAU?$_Tree_node@UPoint@@PEAX@1@PEBV?$_Tree_val@U?$_Tree_simple_types@UPoint@@@std@@@1@@Z"
                                        # kill: def $rcx killed $rax
	mov	rax, qword ptr [rsp + 40]       # 8-byte Reload
	add	rsp, 72
	ret
	.seh_endproc
                                        # -- End function
	.def	"??$?0V?$_Tree_const_iterator@V?$_Tree_val@U?$_Tree_simple_types@UPoint@@@std@@@std@@@std@@$0A@@?$vector@UPoint@@V?$allocator@UPoint@@@std@@@std@@QEAA@V?$_Tree_const_iterator@V?$_Tree_val@U?$_Tree_simple_types@UPoint@@@std@@@std@@@1@0AEBV?$allocator@UPoint@@@1@@Z";
	.scl	2;
	.type	32;
	.endef
	.section	.text,"xr",discard,"??$?0V?$_Tree_const_iterator@V?$_Tree_val@U?$_Tree_simple_types@UPoint@@@std@@@std@@@std@@$0A@@?$vector@UPoint@@V?$allocator@UPoint@@@std@@@std@@QEAA@V?$_Tree_const_iterator@V?$_Tree_val@U?$_Tree_simple_types@UPoint@@@std@@@std@@@1@0AEBV?$allocator@UPoint@@@1@@Z"
	.globl	"??$?0V?$_Tree_const_iterator@V?$_Tree_val@U?$_Tree_simple_types@UPoint@@@std@@@std@@@std@@$0A@@?$vector@UPoint@@V?$allocator@UPoint@@@std@@@std@@QEAA@V?$_Tree_const_iterator@V?$_Tree_val@U?$_Tree_simple_types@UPoint@@@std@@@std@@@1@0AEBV?$allocator@UPoint@@@1@@Z" # -- Begin function ??$?0V?$_Tree_const_iterator@V?$_Tree_val@U?$_Tree_simple_types@UPoint@@@std@@@std@@@std@@$0A@@?$vector@UPoint@@V?$allocator@UPoint@@@std@@@std@@QEAA@V?$_Tree_const_iterator@V?$_Tree_val@U?$_Tree_simple_types@UPoint@@@std@@@std@@@1@0AEBV?$allocator@UPoint@@@1@@Z
	.p2align	4, 0x90
"??$?0V?$_Tree_const_iterator@V?$_Tree_val@U?$_Tree_simple_types@UPoint@@@std@@@std@@@std@@$0A@@?$vector@UPoint@@V?$allocator@UPoint@@@std@@@std@@QEAA@V?$_Tree_const_iterator@V?$_Tree_val@U?$_Tree_simple_types@UPoint@@@std@@@std@@@1@0AEBV?$allocator@UPoint@@@1@@Z": # @"??$?0V?$_Tree_const_iterator@V?$_Tree_val@U?$_Tree_simple_types@UPoint@@@std@@@std@@@std@@$0A@@?$vector@UPoint@@V?$allocator@UPoint@@@std@@@std@@QEAA@V?$_Tree_const_iterator@V?$_Tree_val@U?$_Tree_simple_types@UPoint@@@std@@@std@@@1@0AEBV?$allocator@UPoint@@@1@@Z"
.seh_proc "??$?0V?$_Tree_const_iterator@V?$_Tree_val@U?$_Tree_simple_types@UPoint@@@std@@@std@@@std@@$0A@@?$vector@UPoint@@V?$allocator@UPoint@@@std@@@std@@QEAA@V?$_Tree_const_iterator@V?$_Tree_val@U?$_Tree_simple_types@UPoint@@@std@@@std@@@1@0AEBV?$allocator@UPoint@@@1@@Z"
# %bb.0:
	sub	rsp, 136
	.seh_stackalloc 136
	.seh_endprologue
	mov	qword ptr [rsp + 128], rdx
	mov	qword ptr [rsp + 120], r8
	mov	qword ptr [rsp + 112], r9
	mov	qword ptr [rsp + 104], rcx
	mov	rcx, qword ptr [rsp + 104]
	mov	qword ptr [rsp + 40], rcx       # 8-byte Spill
	mov	r8, qword ptr [rsp + 112]
	mov	dl, byte ptr [rsp + 103]
	call	"??$?0AEBV?$allocator@UPoint@@@std@@$$V@?$_Compressed_pair@V?$allocator@UPoint@@@std@@V?$_Vector_val@U?$_Simple_types@UPoint@@@std@@@2@$00@std@@QEAA@U_One_then_variadic_args_t@1@AEBV?$allocator@UPoint@@@1@@Z"
	lea	rcx, [rsp + 128]
	lea	rdx, [rsp + 120]
	call	"??$_Adl_verify_range@V?$_Tree_const_iterator@V?$_Tree_val@U?$_Tree_simple_types@UPoint@@@std@@@std@@@std@@V12@@std@@YAXAEBV?$_Tree_const_iterator@V?$_Tree_val@U?$_Tree_simple_types@UPoint@@@std@@@std@@@0@0@Z"
	lea	rcx, [rsp + 88]
	lea	rdx, [rsp + 128]
	call	"??$_Get_unwrapped@AEAV?$_Tree_const_iterator@V?$_Tree_val@U?$_Tree_simple_types@UPoint@@@std@@@std@@@std@@@std@@YA?A?<decltype-auto>@@AEAV?$_Tree_const_iterator@V?$_Tree_val@U?$_Tree_simple_types@UPoint@@@std@@@std@@@0@@Z"
	lea	rcx, [rsp + 80]
	lea	rdx, [rsp + 120]
	call	"??$_Get_unwrapped@AEAV?$_Tree_const_iterator@V?$_Tree_val@U?$_Tree_simple_types@UPoint@@@std@@@std@@@std@@@std@@YA?A?<decltype-auto>@@AEAV?$_Tree_const_iterator@V?$_Tree_val@U?$_Tree_simple_types@UPoint@@@std@@@std@@@0@@Z"
	mov	rax, qword ptr [rsp + 80]
	mov	qword ptr [rsp + 64], rax
	mov	rax, qword ptr [rsp + 88]
	mov	qword ptr [rsp + 56], rax
	mov	rcx, qword ptr [rsp + 56]
	mov	rdx, qword ptr [rsp + 64]
	call	"??$distance@V?$_Tree_unchecked_const_iterator@V?$_Tree_val@U?$_Tree_simple_types@UPoint@@@std@@@std@@U_Iterator_base0@2@@std@@@std@@YA_JV?$_Tree_unchecked_const_iterator@V?$_Tree_val@U?$_Tree_simple_types@UPoint@@@std@@@std@@U_Iterator_base0@2@@0@0@Z"
	mov	qword ptr [rsp + 72], rax
	mov	rcx, qword ptr [rsp + 72]
	call	"??$_Convert_size@_K_K@std@@YA_K_K@Z"
	mov	rcx, qword ptr [rsp + 40]       # 8-byte Reload
	mov	qword ptr [rsp + 48], rax
	mov	rdx, qword ptr [rsp + 48]
	lea	r8, [rsp + 88]
	lea	r9, [rsp + 80]
	call	"??$_Construct_n@V?$_Tree_unchecked_const_iterator@V?$_Tree_val@U?$_Tree_simple_types@UPoint@@@std@@@std@@U_Iterator_base0@2@@std@@V12@@?$vector@UPoint@@V?$allocator@UPoint@@@std@@@std@@AEAAX_K$$QEAV?$_Tree_unchecked_const_iterator@V?$_Tree_val@U?$_Tree_simple_types@UPoint@@@std@@@std@@U_Iterator_base0@2@@1@1@Z"
	mov	rax, qword ptr [rsp + 40]       # 8-byte Reload
	add	rsp, 136
	ret
	.seh_endproc
                                        # -- End function
	.def	"??0?$map@UPoint@@HUCompare@1@V?$allocator@U?$pair@$$CBUPoint@@H@std@@@std@@@std@@QEAA@XZ";
	.scl	2;
	.type	32;
	.endef
	.section	.text,"xr",discard,"??0?$map@UPoint@@HUCompare@1@V?$allocator@U?$pair@$$CBUPoint@@H@std@@@std@@@std@@QEAA@XZ"
	.globl	"??0?$map@UPoint@@HUCompare@1@V?$allocator@U?$pair@$$CBUPoint@@H@std@@@std@@@std@@QEAA@XZ" # -- Begin function ??0?$map@UPoint@@HUCompare@1@V?$allocator@U?$pair@$$CBUPoint@@H@std@@@std@@@std@@QEAA@XZ
	.p2align	4, 0x90
"??0?$map@UPoint@@HUCompare@1@V?$allocator@U?$pair@$$CBUPoint@@H@std@@@std@@@std@@QEAA@XZ": # @"??0?$map@UPoint@@HUCompare@1@V?$allocator@U?$pair@$$CBUPoint@@H@std@@@std@@@std@@QEAA@XZ"
.seh_proc "??0?$map@UPoint@@HUCompare@1@V?$allocator@U?$pair@$$CBUPoint@@H@std@@@std@@@std@@QEAA@XZ"
# %bb.0:
	sub	rsp, 56
	.seh_stackalloc 56
	.seh_endprologue
	mov	qword ptr [rsp + 48], rcx
	mov	rcx, qword ptr [rsp + 48]
	mov	qword ptr [rsp + 32], rcx       # 8-byte Spill
	lea	rdx, [rsp + 47]
	call	"??0?$_Tree@V?$_Tmap_traits@UPoint@@HUCompare@1@V?$allocator@U?$pair@$$CBUPoint@@H@std@@@std@@$0A@@std@@@std@@QEAA@AEBUCompare@Point@@@Z"
                                        # kill: def $rcx killed $rax
	mov	rax, qword ptr [rsp + 32]       # 8-byte Reload
	add	rsp, 56
	ret
	.seh_endproc
                                        # -- End function
	.def	"??0?$allocator@H@std@@QEAA@XZ";
	.scl	2;
	.type	32;
	.endef
	.section	.text,"xr",discard,"??0?$allocator@H@std@@QEAA@XZ"
	.globl	"??0?$allocator@H@std@@QEAA@XZ" # -- Begin function ??0?$allocator@H@std@@QEAA@XZ
	.p2align	4, 0x90
"??0?$allocator@H@std@@QEAA@XZ":        # @"??0?$allocator@H@std@@QEAA@XZ"
.seh_proc "??0?$allocator@H@std@@QEAA@XZ"
# %bb.0:
	push	rax
	.seh_stackalloc 8
	.seh_endprologue
	mov	qword ptr [rsp], rcx
	mov	rax, qword ptr [rsp]
	pop	rcx
	ret
	.seh_endproc
                                        # -- End function
	.def	"??0?$vector@HV?$allocator@H@std@@@std@@QEAA@_KAEBV?$allocator@H@1@@Z";
	.scl	2;
	.type	32;
	.endef
	.section	.text,"xr",discard,"??0?$vector@HV?$allocator@H@std@@@std@@QEAA@_KAEBV?$allocator@H@1@@Z"
	.globl	"??0?$vector@HV?$allocator@H@std@@@std@@QEAA@_KAEBV?$allocator@H@1@@Z" # -- Begin function ??0?$vector@HV?$allocator@H@std@@@std@@QEAA@_KAEBV?$allocator@H@1@@Z
	.p2align	4, 0x90
"??0?$vector@HV?$allocator@H@std@@@std@@QEAA@_KAEBV?$allocator@H@1@@Z": # @"??0?$vector@HV?$allocator@H@std@@@std@@QEAA@_KAEBV?$allocator@H@1@@Z"
.seh_proc "??0?$vector@HV?$allocator@H@std@@@std@@QEAA@_KAEBV?$allocator@H@1@@Z"
# %bb.0:
	sub	rsp, 72
	.seh_stackalloc 72
	.seh_endprologue
	mov	qword ptr [rsp + 64], r8
	mov	qword ptr [rsp + 56], rdx
	mov	qword ptr [rsp + 48], rcx
	mov	rcx, qword ptr [rsp + 48]
	mov	qword ptr [rsp + 32], rcx       # 8-byte Spill
	mov	r8, qword ptr [rsp + 64]
	mov	dl, byte ptr [rsp + 47]
	call	"??$?0AEBV?$allocator@H@std@@$$V@?$_Compressed_pair@V?$allocator@H@std@@V?$_Vector_val@U?$_Simple_types@H@std@@@2@$00@std@@QEAA@U_One_then_variadic_args_t@1@AEBV?$allocator@H@1@@Z"
	mov	rcx, qword ptr [rsp + 32]       # 8-byte Reload
	mov	rdx, qword ptr [rsp + 56]
	call	"??$_Construct_n@$$V@?$vector@HV?$allocator@H@std@@@std@@AEAAX_K@Z"
	mov	rax, qword ptr [rsp + 32]       # 8-byte Reload
	add	rsp, 72
	ret
	.seh_endproc
                                        # -- End function
	.def	"?size@?$vector@UPoint@@V?$allocator@UPoint@@@std@@@std@@QEBA_KXZ";
	.scl	2;
	.type	32;
	.endef
	.section	.text,"xr",discard,"?size@?$vector@UPoint@@V?$allocator@UPoint@@@std@@@std@@QEBA_KXZ"
	.globl	"?size@?$vector@UPoint@@V?$allocator@UPoint@@@std@@@std@@QEBA_KXZ" # -- Begin function ?size@?$vector@UPoint@@V?$allocator@UPoint@@@std@@@std@@QEBA_KXZ
	.p2align	4, 0x90
"?size@?$vector@UPoint@@V?$allocator@UPoint@@@std@@@std@@QEBA_KXZ": # @"?size@?$vector@UPoint@@V?$allocator@UPoint@@@std@@@std@@QEBA_KXZ"
.seh_proc "?size@?$vector@UPoint@@V?$allocator@UPoint@@@std@@@std@@QEBA_KXZ"
# %bb.0:
	sub	rsp, 16
	.seh_stackalloc 16
	.seh_endprologue
	mov	qword ptr [rsp + 8], rcx
	mov	rax, qword ptr [rsp + 8]
	mov	qword ptr [rsp], rax
	mov	rax, qword ptr [rsp]
	mov	rax, qword ptr [rax + 8]
	mov	rcx, qword ptr [rsp]
	mov	rcx, qword ptr [rcx]
	sub	rax, rcx
	mov	ecx, 24
	cqo
	idiv	rcx
	add	rsp, 16
	ret
	.seh_endproc
                                        # -- End function
	.def	"??A?$map@UPoint@@HUCompare@1@V?$allocator@U?$pair@$$CBUPoint@@H@std@@@std@@@std@@QEAAAEAHAEBUPoint@@@Z";
	.scl	2;
	.type	32;
	.endef
	.section	.text,"xr",discard,"??A?$map@UPoint@@HUCompare@1@V?$allocator@U?$pair@$$CBUPoint@@H@std@@@std@@@std@@QEAAAEAHAEBUPoint@@@Z"
	.globl	"??A?$map@UPoint@@HUCompare@1@V?$allocator@U?$pair@$$CBUPoint@@H@std@@@std@@@std@@QEAAAEAHAEBUPoint@@@Z" # -- Begin function ??A?$map@UPoint@@HUCompare@1@V?$allocator@U?$pair@$$CBUPoint@@H@std@@@std@@@std@@QEAAAEAHAEBUPoint@@@Z
	.p2align	4, 0x90
"??A?$map@UPoint@@HUCompare@1@V?$allocator@U?$pair@$$CBUPoint@@H@std@@@std@@@std@@QEAAAEAHAEBUPoint@@@Z": # @"??A?$map@UPoint@@HUCompare@1@V?$allocator@U?$pair@$$CBUPoint@@H@std@@@std@@@std@@QEAAAEAHAEBUPoint@@@Z"
.seh_proc "??A?$map@UPoint@@HUCompare@1@V?$allocator@U?$pair@$$CBUPoint@@H@std@@@std@@@std@@QEAAAEAHAEBUPoint@@@Z"
# %bb.0:
	sub	rsp, 72
	.seh_stackalloc 72
	.seh_endprologue
	mov	qword ptr [rsp + 64], rdx
	mov	qword ptr [rsp + 56], rcx
	mov	rcx, qword ptr [rsp + 56]
	mov	r8, qword ptr [rsp + 64]
	lea	rdx, [rsp + 40]
	call	"??$_Try_emplace@AEBUPoint@@$$V@?$map@UPoint@@HUCompare@1@V?$allocator@U?$pair@$$CBUPoint@@H@std@@@std@@@std@@AEAA?AU?$pair@PEAU?$_Tree_node@U?$pair@$$CBUPoint@@H@std@@PEAX@std@@_N@1@AEBUPoint@@@Z"
	mov	rax, qword ptr [rsp + 40]
	add	rax, 32
	add	rax, 24
	add	rsp, 72
	ret
	.seh_endproc
                                        # -- End function
	.def	"??A?$vector@HV?$allocator@H@std@@@std@@QEAAAEAH_K@Z";
	.scl	2;
	.type	32;
	.endef
	.section	.text,"xr",discard,"??A?$vector@HV?$allocator@H@std@@@std@@QEAAAEAH_K@Z"
	.globl	"??A?$vector@HV?$allocator@H@std@@@std@@QEAAAEAH_K@Z" # -- Begin function ??A?$vector@HV?$allocator@H@std@@@std@@QEAAAEAH_K@Z
	.p2align	4, 0x90
"??A?$vector@HV?$allocator@H@std@@@std@@QEAAAEAH_K@Z": # @"??A?$vector@HV?$allocator@H@std@@@std@@QEAAAEAH_K@Z"
.seh_proc "??A?$vector@HV?$allocator@H@std@@@std@@QEAAAEAH_K@Z"
# %bb.0:
	sub	rsp, 24
	.seh_stackalloc 24
	.seh_endprologue
	mov	qword ptr [rsp + 16], rdx
	mov	qword ptr [rsp + 8], rcx
	mov	rax, qword ptr [rsp + 8]
	mov	qword ptr [rsp], rax
	mov	rax, qword ptr [rsp]
	mov	rax, qword ptr [rax]
	mov	rcx, qword ptr [rsp + 16]
	shl	rcx, 2
	add	rax, rcx
	add	rsp, 24
	ret
	.seh_endproc
                                        # -- End function
	.def	"??0?$allocator@V?$vector@OV?$allocator@O@std@@@std@@@std@@QEAA@XZ";
	.scl	2;
	.type	32;
	.endef
	.section	.text,"xr",discard,"??0?$allocator@V?$vector@OV?$allocator@O@std@@@std@@@std@@QEAA@XZ"
	.globl	"??0?$allocator@V?$vector@OV?$allocator@O@std@@@std@@@std@@QEAA@XZ" # -- Begin function ??0?$allocator@V?$vector@OV?$allocator@O@std@@@std@@@std@@QEAA@XZ
	.p2align	4, 0x90
"??0?$allocator@V?$vector@OV?$allocator@O@std@@@std@@@std@@QEAA@XZ": # @"??0?$allocator@V?$vector@OV?$allocator@O@std@@@std@@@std@@QEAA@XZ"
.seh_proc "??0?$allocator@V?$vector@OV?$allocator@O@std@@@std@@@std@@QEAA@XZ"
# %bb.0:
	push	rax
	.seh_stackalloc 8
	.seh_endprologue
	mov	qword ptr [rsp], rcx
	mov	rax, qword ptr [rsp]
	pop	rcx
	ret
	.seh_endproc
                                        # -- End function
	.def	"??0?$allocator@O@std@@QEAA@XZ";
	.scl	2;
	.type	32;
	.endef
	.section	.text,"xr",discard,"??0?$allocator@O@std@@QEAA@XZ"
	.globl	"??0?$allocator@O@std@@QEAA@XZ" # -- Begin function ??0?$allocator@O@std@@QEAA@XZ
	.p2align	4, 0x90
"??0?$allocator@O@std@@QEAA@XZ":        # @"??0?$allocator@O@std@@QEAA@XZ"
.seh_proc "??0?$allocator@O@std@@QEAA@XZ"
# %bb.0:
	push	rax
	.seh_stackalloc 8
	.seh_endprologue
	mov	qword ptr [rsp], rcx
	mov	rax, qword ptr [rsp]
	pop	rcx
	ret
	.seh_endproc
                                        # -- End function
	.def	"??0?$vector@OV?$allocator@O@std@@@std@@QEAA@_KAEBOAEBV?$allocator@O@1@@Z";
	.scl	2;
	.type	32;
	.endef
	.section	.text,"xr",discard,"??0?$vector@OV?$allocator@O@std@@@std@@QEAA@_KAEBOAEBV?$allocator@O@1@@Z"
	.globl	"??0?$vector@OV?$allocator@O@std@@@std@@QEAA@_KAEBOAEBV?$allocator@O@1@@Z" # -- Begin function ??0?$vector@OV?$allocator@O@std@@@std@@QEAA@_KAEBOAEBV?$allocator@O@1@@Z
	.p2align	4, 0x90
"??0?$vector@OV?$allocator@O@std@@@std@@QEAA@_KAEBOAEBV?$allocator@O@1@@Z": # @"??0?$vector@OV?$allocator@O@std@@@std@@QEAA@_KAEBOAEBV?$allocator@O@1@@Z"
.seh_proc "??0?$vector@OV?$allocator@O@std@@@std@@QEAA@_KAEBOAEBV?$allocator@O@1@@Z"
# %bb.0:
	sub	rsp, 88
	.seh_stackalloc 88
	.seh_endprologue
	mov	qword ptr [rsp + 80], r9
	mov	qword ptr [rsp + 72], r8
	mov	qword ptr [rsp + 64], rdx
	mov	qword ptr [rsp + 56], rcx
	mov	rcx, qword ptr [rsp + 56]
	mov	qword ptr [rsp + 40], rcx       # 8-byte Spill
	mov	r8, qword ptr [rsp + 80]
	mov	dl, byte ptr [rsp + 55]
	call	"??$?0AEBV?$allocator@O@std@@$$V@?$_Compressed_pair@V?$allocator@O@std@@V?$_Vector_val@U?$_Simple_types@O@std@@@2@$00@std@@QEAA@U_One_then_variadic_args_t@1@AEBV?$allocator@O@1@@Z"
	mov	rcx, qword ptr [rsp + 40]       # 8-byte Reload
	mov	r8, qword ptr [rsp + 72]
	mov	rdx, qword ptr [rsp + 64]
	call	"??$_Construct_n@AEBO@?$vector@OV?$allocator@O@std@@@std@@AEAAX_KAEBO@Z"
	mov	rax, qword ptr [rsp + 40]       # 8-byte Reload
	add	rsp, 88
	ret
	.seh_endproc
                                        # -- End function
	.def	"??0?$vector@V?$vector@OV?$allocator@O@std@@@std@@V?$allocator@V?$vector@OV?$allocator@O@std@@@std@@@2@@std@@QEAA@_KAEBV?$vector@OV?$allocator@O@std@@@1@AEBV?$allocator@V?$vector@OV?$allocator@O@std@@@std@@@1@@Z";
	.scl	2;
	.type	32;
	.endef
	.section	.text,"xr",discard,"??0?$vector@V?$vector@OV?$allocator@O@std@@@std@@V?$allocator@V?$vector@OV?$allocator@O@std@@@std@@@2@@std@@QEAA@_KAEBV?$vector@OV?$allocator@O@std@@@1@AEBV?$allocator@V?$vector@OV?$allocator@O@std@@@std@@@1@@Z"
	.globl	"??0?$vector@V?$vector@OV?$allocator@O@std@@@std@@V?$allocator@V?$vector@OV?$allocator@O@std@@@std@@@2@@std@@QEAA@_KAEBV?$vector@OV?$allocator@O@std@@@1@AEBV?$allocator@V?$vector@OV?$allocator@O@std@@@std@@@1@@Z" # -- Begin function ??0?$vector@V?$vector@OV?$allocator@O@std@@@std@@V?$allocator@V?$vector@OV?$allocator@O@std@@@std@@@2@@std@@QEAA@_KAEBV?$vector@OV?$allocator@O@std@@@1@AEBV?$allocator@V?$vector@OV?$allocator@O@std@@@std@@@1@@Z
	.p2align	4, 0x90
"??0?$vector@V?$vector@OV?$allocator@O@std@@@std@@V?$allocator@V?$vector@OV?$allocator@O@std@@@std@@@2@@std@@QEAA@_KAEBV?$vector@OV?$allocator@O@std@@@1@AEBV?$allocator@V?$vector@OV?$allocator@O@std@@@std@@@1@@Z": # @"??0?$vector@V?$vector@OV?$allocator@O@std@@@std@@V?$allocator@V?$vector@OV?$allocator@O@std@@@std@@@2@@std@@QEAA@_KAEBV?$vector@OV?$allocator@O@std@@@1@AEBV?$allocator@V?$vector@OV?$allocator@O@std@@@std@@@1@@Z"
.seh_proc "??0?$vector@V?$vector@OV?$allocator@O@std@@@std@@V?$allocator@V?$vector@OV?$allocator@O@std@@@std@@@2@@std@@QEAA@_KAEBV?$vector@OV?$allocator@O@std@@@1@AEBV?$allocator@V?$vector@OV?$allocator@O@std@@@std@@@1@@Z"
# %bb.0:
	sub	rsp, 88
	.seh_stackalloc 88
	.seh_endprologue
	mov	qword ptr [rsp + 80], r9
	mov	qword ptr [rsp + 72], r8
	mov	qword ptr [rsp + 64], rdx
	mov	qword ptr [rsp + 56], rcx
	mov	rcx, qword ptr [rsp + 56]
	mov	qword ptr [rsp + 40], rcx       # 8-byte Spill
	mov	r8, qword ptr [rsp + 80]
	mov	dl, byte ptr [rsp + 55]
	call	"??$?0AEBV?$allocator@V?$vector@OV?$allocator@O@std@@@std@@@std@@$$V@?$_Compressed_pair@V?$allocator@V?$vector@OV?$allocator@O@std@@@std@@@std@@V?$_Vector_val@U?$_Simple_types@V?$vector@OV?$allocator@O@std@@@std@@@std@@@2@$00@std@@QEAA@U_One_then_variadic_args_t@1@AEBV?$allocator@V?$vector@OV?$allocator@O@std@@@std@@@1@@Z"
	mov	rcx, qword ptr [rsp + 40]       # 8-byte Reload
	mov	r8, qword ptr [rsp + 72]
	mov	rdx, qword ptr [rsp + 64]
	call	"??$_Construct_n@AEBV?$vector@OV?$allocator@O@std@@@std@@@?$vector@V?$vector@OV?$allocator@O@std@@@std@@V?$allocator@V?$vector@OV?$allocator@O@std@@@std@@@2@@std@@AEAAX_KAEBV?$vector@OV?$allocator@O@std@@@1@@Z"
	mov	rax, qword ptr [rsp + 40]       # 8-byte Reload
	add	rsp, 88
	ret
	.seh_endproc
                                        # -- End function
	.def	"??A?$vector@V?$vector@OV?$allocator@O@std@@@std@@V?$allocator@V?$vector@OV?$allocator@O@std@@@std@@@2@@std@@QEAAAEAV?$vector@OV?$allocator@O@std@@@1@_K@Z";
	.scl	2;
	.type	32;
	.endef
	.section	.text,"xr",discard,"??A?$vector@V?$vector@OV?$allocator@O@std@@@std@@V?$allocator@V?$vector@OV?$allocator@O@std@@@std@@@2@@std@@QEAAAEAV?$vector@OV?$allocator@O@std@@@1@_K@Z"
	.globl	"??A?$vector@V?$vector@OV?$allocator@O@std@@@std@@V?$allocator@V?$vector@OV?$allocator@O@std@@@std@@@2@@std@@QEAAAEAV?$vector@OV?$allocator@O@std@@@1@_K@Z" # -- Begin function ??A?$vector@V?$vector@OV?$allocator@O@std@@@std@@V?$allocator@V?$vector@OV?$allocator@O@std@@@std@@@2@@std@@QEAAAEAV?$vector@OV?$allocator@O@std@@@1@_K@Z
	.p2align	4, 0x90
"??A?$vector@V?$vector@OV?$allocator@O@std@@@std@@V?$allocator@V?$vector@OV?$allocator@O@std@@@std@@@2@@std@@QEAAAEAV?$vector@OV?$allocator@O@std@@@1@_K@Z": # @"??A?$vector@V?$vector@OV?$allocator@O@std@@@std@@V?$allocator@V?$vector@OV?$allocator@O@std@@@std@@@2@@std@@QEAAAEAV?$vector@OV?$allocator@O@std@@@1@_K@Z"
.seh_proc "??A?$vector@V?$vector@OV?$allocator@O@std@@@std@@V?$allocator@V?$vector@OV?$allocator@O@std@@@std@@@2@@std@@QEAAAEAV?$vector@OV?$allocator@O@std@@@1@_K@Z"
# %bb.0:
	sub	rsp, 24
	.seh_stackalloc 24
	.seh_endprologue
	mov	qword ptr [rsp + 16], rdx
	mov	qword ptr [rsp + 8], rcx
	mov	rax, qword ptr [rsp + 8]
	mov	qword ptr [rsp], rax
	mov	rax, qword ptr [rsp]
	mov	rax, qword ptr [rax]
	imul	rcx, qword ptr [rsp + 16], 24
	add	rax, rcx
	add	rsp, 24
	ret
	.seh_endproc
                                        # -- End function
	.def	"??$?6U?$char_traits@D@std@@@std@@YAAEAV?$basic_ostream@DU?$char_traits@D@std@@@0@AEAV10@PEBD@Z";
	.scl	2;
	.type	32;
	.endef
	.section	.text,"xr",discard,"??$?6U?$char_traits@D@std@@@std@@YAAEAV?$basic_ostream@DU?$char_traits@D@std@@@0@AEAV10@PEBD@Z"
	.globl	"??$?6U?$char_traits@D@std@@@std@@YAAEAV?$basic_ostream@DU?$char_traits@D@std@@@0@AEAV10@PEBD@Z" # -- Begin function ??$?6U?$char_traits@D@std@@@std@@YAAEAV?$basic_ostream@DU?$char_traits@D@std@@@0@AEAV10@PEBD@Z
	.p2align	4, 0x90
"??$?6U?$char_traits@D@std@@@std@@YAAEAV?$basic_ostream@DU?$char_traits@D@std@@@0@AEAV10@PEBD@Z": # @"??$?6U?$char_traits@D@std@@@std@@YAAEAV?$basic_ostream@DU?$char_traits@D@std@@@0@AEAV10@PEBD@Z"
.Lfunc_begin5:
.seh_proc "??$?6U?$char_traits@D@std@@@std@@YAAEAV?$basic_ostream@DU?$char_traits@D@std@@@0@AEAV10@PEBD@Z"
	.seh_handler __CxxFrameHandler3, @unwind, @except
# %bb.0:
	push	rbp
	.seh_pushreg rbp
	sub	rsp, 160
	.seh_stackalloc 160
	lea	rbp, [rsp + 128]
	.seh_setframe rbp, 128
	.seh_endprologue
	mov	qword ptr [rbp + 24], -2
	mov	qword ptr [rbp + 16], rdx
	mov	qword ptr [rbp + 8], rcx
	mov	dword ptr [rbp + 4], 0
	mov	rcx, qword ptr [rbp + 16]
	call	"?length@?$_Narrow_char_traits@DH@std@@SA_KQEBD@Z"
	mov	qword ptr [rbp - 8], rax
	mov	rcx, qword ptr [rbp + 8]
	mov	rax, qword ptr [rcx]
	movsxd	rax, dword ptr [rax + 4]
	add	rcx, rax
	call	"?width@ios_base@std@@QEBA_JXZ"
	cmp	rax, 0
	jle	.LBB94_2
# %bb.1:
	mov	rcx, qword ptr [rbp + 8]
	mov	rax, qword ptr [rcx]
	movsxd	rax, dword ptr [rax + 4]
	add	rcx, rax
	call	"?width@ios_base@std@@QEBA_JXZ"
	cmp	rax, qword ptr [rbp - 8]
	jg	.LBB94_3
.LBB94_2:
	xor	eax, eax
                                        # kill: def $rax killed $eax
	mov	qword ptr [rbp - 40], rax       # 8-byte Spill
	jmp	.LBB94_4
.LBB94_3:
	mov	rcx, qword ptr [rbp + 8]
	mov	rax, qword ptr [rcx]
	movsxd	rax, dword ptr [rax + 4]
	add	rcx, rax
	call	"?width@ios_base@std@@QEBA_JXZ"
	sub	rax, qword ptr [rbp - 8]
	mov	qword ptr [rbp - 40], rax       # 8-byte Spill
.LBB94_4:
	mov	rax, qword ptr [rbp - 40]       # 8-byte Reload
	mov	qword ptr [rbp - 16], rax
	mov	rdx, qword ptr [rbp + 8]
	lea	rcx, [rbp - 32]
	call	"??0sentry@?$basic_ostream@DU?$char_traits@D@std@@@std@@QEAA@AEAV12@@Z"
	lea	rcx, [rbp - 32]
	call	"??Bsentry@?$basic_ostream@DU?$char_traits@D@std@@@std@@QEBA_NXZ"
	test	al, 1
	jne	.LBB94_6
# %bb.5:
	mov	eax, dword ptr [rbp + 4]
	or	eax, 4
	mov	dword ptr [rbp + 4], eax
	jmp	.LBB94_31
.LBB94_6:
	mov	rcx, qword ptr [rbp + 8]
	mov	rax, qword ptr [rcx]
	movsxd	rax, dword ptr [rax + 4]
	add	rcx, rax
	call	"?flags@ios_base@std@@QEBAHXZ"
	and	eax, 448
	cmp	eax, 64
	je	.LBB94_14
# %bb.7:
	jmp	.LBB94_8
.LBB94_8:                               # =>This Inner Loop Header: Depth=1
	xor	eax, eax
                                        # kill: def $rax killed $eax
	cmp	rax, qword ptr [rbp - 16]
	jge	.LBB94_13
# %bb.9:                                #   in Loop: Header=BB94_8 Depth=1
	mov	rcx, qword ptr [rbp + 8]
	mov	rax, qword ptr [rcx]
	movsxd	rax, dword ptr [rax + 4]
	add	rcx, rax
	call	"?rdbuf@?$basic_ios@DU?$char_traits@D@std@@@std@@QEBAPEAV?$basic_streambuf@DU?$char_traits@D@std@@@2@XZ"
	mov	qword ptr [rbp - 56], rax       # 8-byte Spill
	mov	rcx, qword ptr [rbp + 8]
	mov	rax, qword ptr [rcx]
	movsxd	rax, dword ptr [rax + 4]
	add	rcx, rax
	call	"?fill@?$basic_ios@DU?$char_traits@D@std@@@std@@QEBADXZ"
	mov	rcx, qword ptr [rbp - 56]       # 8-byte Reload
	mov	dl, al
.Ltmp90:
	call	"?sputc@?$basic_streambuf@DU?$char_traits@D@std@@@std@@QEAAHD@Z"
.Ltmp91:
	mov	dword ptr [rbp - 44], eax       # 4-byte Spill
	jmp	.LBB94_10
.LBB94_10:                              #   in Loop: Header=BB94_8 Depth=1
	call	"?eof@?$_Narrow_char_traits@DH@std@@SAHXZ"
	mov	edx, dword ptr [rbp - 44]       # 4-byte Reload
	mov	ecx, eax
	call	"?eq_int_type@?$_Narrow_char_traits@DH@std@@SA_NHH@Z"
	test	al, 1
	jne	.LBB94_11
	jmp	.LBB94_12
.LBB94_11:
	mov	eax, dword ptr [rbp + 4]
	or	eax, 4
	mov	dword ptr [rbp + 4], eax
	jmp	.LBB94_13
.LBB94_12:                              #   in Loop: Header=BB94_8 Depth=1
	mov	rax, qword ptr [rbp - 16]
	add	rax, -1
	mov	qword ptr [rbp - 16], rax
	jmp	.LBB94_8
.LBB94_13:
	jmp	.LBB94_14
.LBB94_14:
	cmp	dword ptr [rbp + 4], 0
	jne	.LBB94_18
# %bb.15:
	mov	rcx, qword ptr [rbp + 8]
	mov	rax, qword ptr [rcx]
	movsxd	rax, dword ptr [rax + 4]
	add	rcx, rax
	call	"?rdbuf@?$basic_ios@DU?$char_traits@D@std@@@std@@QEBAPEAV?$basic_streambuf@DU?$char_traits@D@std@@@2@XZ"
	mov	rcx, rax
	mov	r8, qword ptr [rbp - 8]
	mov	rdx, qword ptr [rbp + 16]
.Ltmp92:
	call	"?sputn@?$basic_streambuf@DU?$char_traits@D@std@@@std@@QEAA_JPEBD_J@Z"
.Ltmp93:
	mov	qword ptr [rbp - 64], rax       # 8-byte Spill
	jmp	.LBB94_16
.LBB94_16:
	mov	rax, qword ptr [rbp - 64]       # 8-byte Reload
	cmp	rax, qword ptr [rbp - 8]
	je	.LBB94_18
# %bb.17:
	mov	eax, dword ptr [rbp + 4]
	or	eax, 4
	mov	dword ptr [rbp + 4], eax
.LBB94_18:
	cmp	dword ptr [rbp + 4], 0
	jne	.LBB94_30
# %bb.19:
	jmp	.LBB94_20
.LBB94_20:                              # =>This Inner Loop Header: Depth=1
	xor	eax, eax
                                        # kill: def $rax killed $eax
	cmp	rax, qword ptr [rbp - 16]
	jge	.LBB94_29
# %bb.21:                               #   in Loop: Header=BB94_20 Depth=1
	mov	rcx, qword ptr [rbp + 8]
	mov	rax, qword ptr [rcx]
	movsxd	rax, dword ptr [rax + 4]
	add	rcx, rax
	call	"?rdbuf@?$basic_ios@DU?$char_traits@D@std@@@std@@QEBAPEAV?$basic_streambuf@DU?$char_traits@D@std@@@2@XZ"
	mov	qword ptr [rbp - 80], rax       # 8-byte Spill
	mov	rcx, qword ptr [rbp + 8]
