; ================================================================================
; HUMAN READABLE ASSEMBLY VERSION
; ICPC 2012 WF Problem J - Spherical Flight Path
; ================================================================================
;
; ALGORITHM: Calculate shortest flight path on sphere using great circles
; INPUT: Sequence of waypoints (latitude, longitude)
; OUTPUT: Total distance in kilometers
;
; KEY COMPONENTS:
; 1. Point structure with x, y, z coordinates (24 bytes)
; 2. Vector operations (add, subtract, multiply, normalize)
; 3. Spherical coordinate conversion
; 4. Great circle distance calculation
; 5. Main loop to process waypoints
;
; REGISTER USAGE:
; xmm0-xmm3: Floating point calculations
; rcx, rdx, r8, r9: Function arguments
; rax: Return values
; rsp: Stack pointer
;
; MEMORY LAYOUT:
; Point structure: [x:8][y:8][z:8] = 24 bytes
; Double precision: 8 bytes per coordinate
;

    .text
.globl	@feat.00
    .intel_syntax noprefix
; ----------------------------------------
; FUNCTION: add_two_points
; ----------------------------------------
; Adds two 3D points: result = point1 + point2
.globl add_two_points
    .p2align	4, 0x90
add_two_points:
; Begin add_two_points
    .seh_proc "add_two_points"
    sub	rsp, 24
    .seh_stackalloc 24
    .seh_endprologue
    mov	rax, rcx
    mov	qword ptr [rsp + 16], rcx                      ; Move 64-bit value
    mov	qword ptr [rsp + 8], r8                        ; Move 64-bit value
    mov	qword ptr [rsp], rdx                           ; Move 64-bit value
    mov	rdx, qword ptr [rsp]                           ; Move 64-bit value
    movsd	xmm0, qword ptr [rdx]           # xmm0 = mem[0],zero ; Load 64-bit double
    mov	rdx, qword ptr [rsp + 8]                       ; Move 64-bit value
    addsd	xmm0, qword ptr [rdx]                        ; Add two doubles
    movsd	qword ptr [rcx], xmm0                        ; Load 64-bit double
    mov	rdx, qword ptr [rsp]                           ; Move 64-bit value
    movsd	xmm0, qword ptr [rdx + 8]       # xmm0 = mem[0],zero ; Load 64-bit double
    mov	rdx, qword ptr [rsp + 8]                       ; Move 64-bit value
    addsd	xmm0, qword ptr [rdx + 8]                    ; Add two doubles
    movsd	qword ptr [rcx + 8], xmm0                    ; Load 64-bit double
    mov	rdx, qword ptr [rsp]                           ; Move 64-bit value
    movsd	xmm0, qword ptr [rdx + 16]      # xmm0 = mem[0],zero ; Load 64-bit double
    mov	rdx, qword ptr [rsp + 8]                       ; Move 64-bit value
    addsd	xmm0, qword ptr [rdx + 16]                   ; Add two doubles
    movsd	qword ptr [rcx + 16], xmm0                   ; Load 64-bit double
    add	rsp, 24
    ret                                                ; Return from function
    .seh_endproc
; End add_two_points

; ----------------------------------------
; FUNCTION: subtract_two_points
; ----------------------------------------
; Subtracts two 3D points: result = point1 - point2
.globl subtract_two_points
    .p2align	4, 0x90
subtract_two_points:
; Begin subtract_two_points
    .seh_proc "subtract_two_points"
    sub	rsp, 24
    .seh_stackalloc 24
    .seh_endprologue
    mov	rax, rcx
    mov	qword ptr [rsp + 16], rcx                      ; Move 64-bit value
    mov	qword ptr [rsp + 8], r8                        ; Move 64-bit value
    mov	qword ptr [rsp], rdx                           ; Move 64-bit value
    mov	rdx, qword ptr [rsp]                           ; Move 64-bit value
    movsd	xmm0, qword ptr [rdx]           # xmm0 = mem[0],zero ; Load 64-bit double
    mov	rdx, qword ptr [rsp + 8]                       ; Move 64-bit value
    subsd	xmm0, qword ptr [rdx]                        ; Subtract two doubles
    movsd	qword ptr [rcx], xmm0                        ; Load 64-bit double
    mov	rdx, qword ptr [rsp]                           ; Move 64-bit value
    movsd	xmm0, qword ptr [rdx + 8]       # xmm0 = mem[0],zero ; Load 64-bit double
    mov	rdx, qword ptr [rsp + 8]                       ; Move 64-bit value
    subsd	xmm0, qword ptr [rdx + 8]                    ; Subtract two doubles
    movsd	qword ptr [rcx + 8], xmm0                    ; Load 64-bit double
    mov	rdx, qword ptr [rsp]                           ; Move 64-bit value
    movsd	xmm0, qword ptr [rdx + 16]      # xmm0 = mem[0],zero ; Load 64-bit double
    mov	rdx, qword ptr [rsp + 8]                       ; Move 64-bit value
    subsd	xmm0, qword ptr [rdx + 16]                   ; Subtract two doubles
    movsd	qword ptr [rcx + 16], xmm0                   ; Load 64-bit double
    add	rsp, 24
    ret                                                ; Return from function
    .seh_endproc
; End subtract_two_points

.globl	"??D@YA?AUPoint@@AEBU0@O@Z"     # -- Begin function ??D@YA?AUPoint@@AEBU0@O@Z
    .p2align	4, 0x90
    "??D@YA?AUPoint@@AEBU0@O@Z":            # @"??D@YA?AUPoint@@AEBU0@O@Z"
    .seh_proc "??D@YA?AUPoint@@AEBU0@O@Z"
# %bb.0:
    sub	rsp, 24
    .seh_stackalloc 24
    .seh_endprologue
    mov	rax, rcx
    mov	qword ptr [rsp + 16], rcx                      ; Move 64-bit value
    movsd	qword ptr [rsp + 8], xmm2                    ; Load 64-bit double
    mov	qword ptr [rsp], rdx                           ; Move 64-bit value
    mov	rdx, qword ptr [rsp]                           ; Move 64-bit value
    movsd	xmm0, qword ptr [rdx]           # xmm0 = mem[0],zero ; Load 64-bit double
    mulsd	xmm0, qword ptr [rsp + 8]                    ; Multiply two doubles
    movsd	qword ptr [rcx], xmm0                        ; Load 64-bit double
    mov	rdx, qword ptr [rsp]                           ; Move 64-bit value
    movsd	xmm0, qword ptr [rdx + 8]       # xmm0 = mem[0],zero ; Load 64-bit double
    mulsd	xmm0, qword ptr [rsp + 8]                    ; Multiply two doubles
    movsd	qword ptr [rcx + 8], xmm0                    ; Load 64-bit double
    mov	rdx, qword ptr [rsp]                           ; Move 64-bit value
    movsd	xmm0, qword ptr [rdx + 16]      # xmm0 = mem[0],zero ; Load 64-bit double
    mulsd	xmm0, qword ptr [rsp + 8]                    ; Multiply two doubles
    movsd	qword ptr [rcx + 16], xmm0                   ; Load 64-bit double
    add	rsp, 24
    ret                                                ; Return from function
    .seh_endproc
.globl	"??D@YA?AUPoint@@OAEBU0@@Z"     # -- Begin function ??D@YA?AUPoint@@OAEBU0@@Z
    .p2align	4, 0x90
    "??D@YA?AUPoint@@OAEBU0@@Z":            # @"??D@YA?AUPoint@@OAEBU0@@Z"
    .seh_proc "??D@YA?AUPoint@@OAEBU0@@Z"
# %bb.0:
    sub	rsp, 24
    .seh_stackalloc 24
    .seh_endprologue
    mov	rax, rcx
    mov	qword ptr [rsp + 16], rcx                      ; Move 64-bit value
    mov	qword ptr [rsp + 8], r8                        ; Move 64-bit value
    movsd	qword ptr [rsp], xmm1                        ; Load 64-bit double
    mov	rdx, qword ptr [rsp + 8]                       ; Move 64-bit value
    movsd	xmm0, qword ptr [rdx]           # xmm0 = mem[0],zero ; Load 64-bit double
    mulsd	xmm0, qword ptr [rsp]                        ; Multiply two doubles
    movsd	qword ptr [rcx], xmm0                        ; Load 64-bit double
    mov	rdx, qword ptr [rsp + 8]                       ; Move 64-bit value
    movsd	xmm0, qword ptr [rdx + 8]       # xmm0 = mem[0],zero ; Load 64-bit double
    mulsd	xmm0, qword ptr [rsp]                        ; Multiply two doubles
    movsd	qword ptr [rcx + 8], xmm0                    ; Load 64-bit double
    mov	rdx, qword ptr [rsp + 8]                       ; Move 64-bit value
    movsd	xmm0, qword ptr [rdx + 16]      # xmm0 = mem[0],zero ; Load 64-bit double
    mulsd	xmm0, qword ptr [rsp]                        ; Multiply two doubles
    movsd	qword ptr [rcx + 16], xmm0                   ; Load 64-bit double
    add	rsp, 24
    ret                                                ; Return from function
    .seh_endproc
.globl	"??K@YA?AUPoint@@AEBU0@O@Z"     # -- Begin function ??K@YA?AUPoint@@AEBU0@O@Z
    .p2align	4, 0x90
    "??K@YA?AUPoint@@AEBU0@O@Z":            # @"??K@YA?AUPoint@@AEBU0@O@Z"
    .seh_proc "??K@YA?AUPoint@@AEBU0@O@Z"
# %bb.0:
    sub	rsp, 24
    .seh_stackalloc 24
    .seh_endprologue
    mov	rax, rcx
    mov	qword ptr [rsp + 16], rcx                      ; Move 64-bit value
    movsd	qword ptr [rsp + 8], xmm2                    ; Load 64-bit double
    mov	qword ptr [rsp], rdx                           ; Move 64-bit value
    mov	rdx, qword ptr [rsp]                           ; Move 64-bit value
    movsd	xmm0, qword ptr [rdx]           # xmm0 = mem[0],zero ; Load 64-bit double
    divsd	xmm0, qword ptr [rsp + 8]                    ; Divide two doubles
    movsd	qword ptr [rcx], xmm0                        ; Load 64-bit double
    mov	rdx, qword ptr [rsp]                           ; Move 64-bit value
    movsd	xmm0, qword ptr [rdx + 8]       # xmm0 = mem[0],zero ; Load 64-bit double
    divsd	xmm0, qword ptr [rsp + 8]                    ; Divide two doubles
    movsd	qword ptr [rcx + 8], xmm0                    ; Load 64-bit double
    mov	rdx, qword ptr [rsp]                           ; Move 64-bit value
    movsd	xmm0, qword ptr [rdx + 16]      # xmm0 = mem[0],zero ; Load 64-bit double
    divsd	xmm0, qword ptr [rsp + 8]                    ; Divide two doubles
    movsd	qword ptr [rcx + 16], xmm0                   ; Load 64-bit double
    add	rsp, 24
    ret                                                ; Return from function
    .seh_endproc
.globl	__real@40b8e20000000000         # -- Begin function ?lat_lon_to_xyz@@YA?AUPoint@@OO@Z
    .section	.rdata,"dr",discard,__real@40b8e20000000000
    .p2align	3, 0x0
    __real@40b8e20000000000:
    .quad	0x40b8e20000000000              # double 6370
.globl	__real@4066800000000000
    .section	.rdata,"dr",discard,__real@4066800000000000
    .p2align	3, 0x0
    __real@4066800000000000:
    .quad	0x4066800000000000              # double 180
.globl	__real@400921fb54442d18
    .section	.rdata,"dr",discard,__real@400921fb54442d18
    .p2align	3, 0x0
    __real@400921fb54442d18:
    .quad	0x400921fb54442d18              # double 3.1415926535897931
    .text
.globl	"?lat_lon_to_xyz@@YA?AUPoint@@OO@Z"
    .p2align	4, 0x90
    "?lat_lon_to_xyz@@YA?AUPoint@@OO@Z":    # @"?lat_lon_to_xyz@@YA?AUPoint@@OO@Z"
    .seh_proc "?lat_lon_to_xyz@@YA?AUPoint@@OO@Z"
# %bb.0:
    sub	rsp, 136
    .seh_stackalloc 136
    .seh_endprologue
    mov	qword ptr [rsp + 56], rcx       # 8-byte Spill ; Move 64-bit value
    mov	rax, rcx
    mov	qword ptr [rsp + 64], rax       # 8-byte Spill ; Move 64-bit value
    mov	qword ptr [rsp + 128], rcx                     ; Move 64-bit value
    movsd	qword ptr [rsp + 120], xmm2                  ; Load 64-bit double
    movsd	qword ptr [rsp + 112], xmm1                  ; Load 64-bit double
    movsd	xmm0, qword ptr [rip + __real@400921fb54442d18] # xmm0 = [3.1415926535897931E+0,0.0E+0] ; Load 64-bit double
    mulsd	xmm0, qword ptr [rsp + 112]                  ; Multiply two doubles
    movsd	xmm1, qword ptr [rip + __real@4066800000000000] # xmm1 = [1.8E+2,0.0E+0] ; Load 64-bit double
    divsd	xmm0, xmm1                                   ; Divide two doubles
    movsd	qword ptr [rsp + 104], xmm0                  ; Load 64-bit double
    movsd	xmm0, qword ptr [rip + __real@400921fb54442d18] # xmm0 = [3.1415926535897931E+0,0.0E+0] ; Load 64-bit double
    mulsd	xmm0, qword ptr [rsp + 120]                  ; Multiply two doubles
    movsd	xmm1, qword ptr [rip + __real@4066800000000000] # xmm1 = [1.8E+2,0.0E+0] ; Load 64-bit double
    divsd	xmm0, xmm1                                   ; Divide two doubles
    movsd	qword ptr [rsp + 96], xmm0                   ; Load 64-bit double
    movsd	xmm0, qword ptr [rsp + 104]     # xmm0 = mem[0],zero ; Load 64-bit double
    call	"?cos@@YAOO@Z"                                ; Function call
    movaps	xmm1, xmm0
    movsd	xmm0, qword ptr [rip + __real@40b8e20000000000] # xmm0 = [6.37E+3,0.0E+0] ; Load 64-bit double
    mulsd	xmm0, xmm1                                   ; Multiply two doubles
    movsd	qword ptr [rsp + 40], xmm0      # 8-byte Spill ; Load 64-bit double
    movsd	xmm0, qword ptr [rsp + 96]      # xmm0 = mem[0],zero ; Load 64-bit double
    call	"?cos@@YAOO@Z"                                ; Function call
    movaps	xmm1, xmm0
    movsd	xmm0, qword ptr [rsp + 40]      # 8-byte Reload ; Load 64-bit double
# xmm0 = mem[0],zero
    mulsd	xmm0, xmm1                                   ; Multiply two doubles
    movsd	qword ptr [rsp + 88], xmm0                   ; Load 64-bit double
    movsd	xmm0, qword ptr [rsp + 104]     # xmm0 = mem[0],zero ; Load 64-bit double
    call	"?cos@@YAOO@Z"                                ; Function call
    movaps	xmm1, xmm0
    movsd	xmm0, qword ptr [rip + __real@40b8e20000000000] # xmm0 = [6.37E+3,0.0E+0] ; Load 64-bit double
    mulsd	xmm0, xmm1                                   ; Multiply two doubles
    movsd	qword ptr [rsp + 48], xmm0      # 8-byte Spill ; Load 64-bit double
    movsd	xmm0, qword ptr [rsp + 96]      # xmm0 = mem[0],zero ; Load 64-bit double
    call	"?sin@@YAOO@Z"                                ; Function call
    movaps	xmm1, xmm0
    movsd	xmm0, qword ptr [rsp + 48]      # 8-byte Reload ; Load 64-bit double
# xmm0 = mem[0],zero
    mulsd	xmm0, xmm1                                   ; Multiply two doubles
    movsd	qword ptr [rsp + 80], xmm0                   ; Load 64-bit double
    movsd	xmm0, qword ptr [rsp + 104]     # xmm0 = mem[0],zero ; Load 64-bit double
    call	"?sin@@YAOO@Z"                                ; Function call
    mov	rcx, qword ptr [rsp + 56]       # 8-byte Reload ; Move 64-bit value
    mov	rax, qword ptr [rsp + 64]       # 8-byte Reload ; Move 64-bit value
    movaps	xmm1, xmm0
    movsd	xmm0, qword ptr [rip + __real@40b8e20000000000] # xmm0 = [6.37E+3,0.0E+0] ; Load 64-bit double
    mulsd	xmm0, xmm1                                   ; Multiply two doubles
    movsd	qword ptr [rsp + 72], xmm0                   ; Load 64-bit double
    movsd	xmm0, qword ptr [rsp + 88]      # xmm0 = mem[0],zero ; Load 64-bit double
    movsd	qword ptr [rcx], xmm0                        ; Load 64-bit double
    movsd	xmm0, qword ptr [rsp + 80]      # xmm0 = mem[0],zero ; Load 64-bit double
    movsd	qword ptr [rcx + 8], xmm0                    ; Load 64-bit double
    movsd	xmm0, qword ptr [rsp + 72]      # xmm0 = mem[0],zero ; Load 64-bit double
    movsd	qword ptr [rcx + 16], xmm0                   ; Load 64-bit double
    add	rsp, 136
    ret                                                ; Return from function
    .seh_endproc
    .section	.text,"xr",discard,"?cos@@YAOO@Z"
.globl	"?cos@@YAOO@Z"                  # -- Begin function ?cos@@YAOO@Z
    .p2align	4, 0x90
    "?cos@@YAOO@Z":                         # @"?cos@@YAOO@Z"
    .seh_proc "?cos@@YAOO@Z"
# %bb.0:
    sub	rsp, 40
    .seh_stackalloc 40
    .seh_endprologue
    movsd	qword ptr [rsp + 32], xmm0                   ; Load 64-bit double
    movsd	xmm0, qword ptr [rsp + 32]      # xmm0 = mem[0],zero ; Load 64-bit double
    call	cosl                                          ; Function call
    nop
    add	rsp, 40
    ret                                                ; Return from function
    .seh_endproc
    .section	.text,"xr",discard,"?sin@@YAOO@Z"
.globl	"?sin@@YAOO@Z"                  # -- Begin function ?sin@@YAOO@Z
    .p2align	4, 0x90
    "?sin@@YAOO@Z":                         # @"?sin@@YAOO@Z"
    .seh_proc "?sin@@YAOO@Z"
# %bb.0:
    sub	rsp, 40
    .seh_stackalloc 40
    .seh_endprologue
    movsd	qword ptr [rsp + 32], xmm0                   ; Load 64-bit double
    movsd	xmm0, qword ptr [rsp + 32]      # xmm0 = mem[0],zero ; Load 64-bit double
    call	sinl                                          ; Function call
    nop
    add	rsp, 40
    ret                                                ; Return from function
    .seh_endproc
    .text
.globl	"?dot@@YAOAEBUPoint@@0@Z"       # -- Begin function ?dot@@YAOAEBUPoint@@0@Z
    .p2align	4, 0x90
    "?dot@@YAOAEBUPoint@@0@Z":              # @"?dot@@YAOAEBUPoint@@0@Z"
    .seh_proc "?dot@@YAOAEBUPoint@@0@Z"
# %bb.0:
    sub	rsp, 16
    .seh_stackalloc 16
    .seh_endprologue
    mov	qword ptr [rsp + 8], rdx                       ; Move 64-bit value
    mov	qword ptr [rsp], rcx                           ; Move 64-bit value
    mov	rax, qword ptr [rsp]                           ; Move 64-bit value
    movsd	xmm1, qword ptr [rax]           # xmm1 = mem[0],zero ; Load 64-bit double
    mov	rax, qword ptr [rsp + 8]                       ; Move 64-bit value
    movsd	xmm2, qword ptr [rax]           # xmm2 = mem[0],zero ; Load 64-bit double
    mov	rax, qword ptr [rsp]                           ; Move 64-bit value
    movsd	xmm0, qword ptr [rax + 8]       # xmm0 = mem[0],zero ; Load 64-bit double
    mov	rax, qword ptr [rsp + 8]                       ; Move 64-bit value
    mulsd	xmm0, qword ptr [rax + 8]                    ; Multiply two doubles
    mulsd	xmm1, xmm2                                   ; Multiply two doubles
    addsd	xmm1, xmm0                                   ; Add two doubles
    mov	rax, qword ptr [rsp]                           ; Move 64-bit value
    movsd	xmm0, qword ptr [rax + 16]      # xmm0 = mem[0],zero ; Load 64-bit double
    mov	rax, qword ptr [rsp + 8]                       ; Move 64-bit value
    movsd	xmm2, qword ptr [rax + 16]      # xmm2 = mem[0],zero ; Load 64-bit double
    mulsd	xmm0, xmm2                                   ; Multiply two doubles
    addsd	xmm0, xmm1                                   ; Add two doubles
    add	rsp, 16
    ret                                                ; Return from function
    .seh_endproc
.globl	"?cross@@YA?AUPoint@@AEBU1@0@Z" # -- Begin function ?cross@@YA?AUPoint@@AEBU1@0@Z
    .p2align	4, 0x90
    "?cross@@YA?AUPoint@@AEBU1@0@Z":        # @"?cross@@YA?AUPoint@@AEBU1@0@Z"
    .seh_proc "?cross@@YA?AUPoint@@AEBU1@0@Z"
# %bb.0:
    sub	rsp, 24
    .seh_stackalloc 24
    .seh_endprologue
    mov	rax, rcx
    mov	qword ptr [rsp + 16], rcx                      ; Move 64-bit value
    mov	qword ptr [rsp + 8], r8                        ; Move 64-bit value
    mov	qword ptr [rsp], rdx                           ; Move 64-bit value
    mov	rdx, qword ptr [rsp]                           ; Move 64-bit value
    movsd	xmm0, qword ptr [rdx + 8]       # xmm0 = mem[0],zero ; Load 64-bit double
    mov	rdx, qword ptr [rsp + 8]                       ; Move 64-bit value
    movsd	xmm2, qword ptr [rdx + 16]      # xmm2 = mem[0],zero ; Load 64-bit double
    mov	rdx, qword ptr [rsp]                           ; Move 64-bit value
    movsd	xmm1, qword ptr [rdx + 16]      # xmm1 = mem[0],zero ; Load 64-bit double
    mov	rdx, qword ptr [rsp + 8]                       ; Move 64-bit value
    mulsd	xmm1, qword ptr [rdx + 8]                    ; Multiply two doubles
    movq	rdx, xmm1
    movabs	r8, -9223372036854775808
    xor	rdx, r8
    movq	xmm1, rdx
    mulsd	xmm0, xmm2                                   ; Multiply two doubles
    addsd	xmm0, xmm1                                   ; Add two doubles
    movsd	qword ptr [rcx], xmm0                        ; Load 64-bit double
    mov	rdx, qword ptr [rsp]                           ; Move 64-bit value
    movsd	xmm0, qword ptr [rdx + 16]      # xmm0 = mem[0],zero ; Load 64-bit double
    mov	rdx, qword ptr [rsp + 8]                       ; Move 64-bit value
    movsd	xmm2, qword ptr [rdx]           # xmm2 = mem[0],zero ; Load 64-bit double
    mov	rdx, qword ptr [rsp]                           ; Move 64-bit value
    movsd	xmm1, qword ptr [rdx]           # xmm1 = mem[0],zero ; Load 64-bit double
    mov	rdx, qword ptr [rsp + 8]                       ; Move 64-bit value
    mulsd	xmm1, qword ptr [rdx + 16]                   ; Multiply two doubles
    movq	rdx, xmm1
    movabs	r8, -9223372036854775808
    xor	rdx, r8
    movq	xmm1, rdx
    mulsd	xmm0, xmm2                                   ; Multiply two doubles
    addsd	xmm0, xmm1                                   ; Add two doubles
    movsd	qword ptr [rcx + 8], xmm0                    ; Load 64-bit double
    mov	rdx, qword ptr [rsp]                           ; Move 64-bit value
    movsd	xmm0, qword ptr [rdx]           # xmm0 = mem[0],zero ; Load 64-bit double
    mov	rdx, qword ptr [rsp + 8]                       ; Move 64-bit value
    movsd	xmm2, qword ptr [rdx + 8]       # xmm2 = mem[0],zero ; Load 64-bit double
    mov	rdx, qword ptr [rsp]                           ; Move 64-bit value
    movsd	xmm1, qword ptr [rdx + 8]       # xmm1 = mem[0],zero ; Load 64-bit double
    mov	rdx, qword ptr [rsp + 8]                       ; Move 64-bit value
    mulsd	xmm1, qword ptr [rdx]                        ; Multiply two doubles
    movq	rdx, xmm1
    movabs	r8, -9223372036854775808
    xor	rdx, r8
    movq	xmm1, rdx
    mulsd	xmm0, xmm2                                   ; Multiply two doubles
    addsd	xmm0, xmm1                                   ; Add two doubles
    movsd	qword ptr [rcx + 16], xmm0                   ; Load 64-bit double
    add	rsp, 24
    ret                                                ; Return from function
    .seh_endproc
.globl	"?magnitude@@YAOAEBUPoint@@@Z"  # -- Begin function ?magnitude@@YAOAEBUPoint@@@Z
    .p2align	4, 0x90
    "?magnitude@@YAOAEBUPoint@@@Z":         # @"?magnitude@@YAOAEBUPoint@@@Z"
    .seh_proc "?magnitude@@YAOAEBUPoint@@@Z"
# %bb.0:
    sub	rsp, 40
    .seh_stackalloc 40
    .seh_endprologue
    mov	qword ptr [rsp + 32], rcx                      ; Move 64-bit value
    mov	rdx, qword ptr [rsp + 32]                      ; Move 64-bit value
    mov	rcx, qword ptr [rsp + 32]                      ; Move 64-bit value
    call	"?dot@@YAOAEBUPoint@@0@Z"                     ; Function call
    call	"?sqrt@@YAOO@Z"                               ; Function call
    nop
    add	rsp, 40
    ret                                                ; Return from function
    .seh_endproc
    .section	.text,"xr",discard,"?sqrt@@YAOO@Z"
.globl	"?sqrt@@YAOO@Z"                 # -- Begin function ?sqrt@@YAOO@Z
    .p2align	4, 0x90
    "?sqrt@@YAOO@Z":                        # @"?sqrt@@YAOO@Z"
    .seh_proc "?sqrt@@YAOO@Z"
# %bb.0:
    sub	rsp, 40
    .seh_stackalloc 40
    .seh_endprologue
    movsd	qword ptr [rsp + 32], xmm0                   ; Load 64-bit double
    movsd	xmm0, qword ptr [rsp + 32]      # xmm0 = mem[0],zero ; Load 64-bit double
    call	sqrtl                                         ; Function call
    nop
    add	rsp, 40
    ret                                                ; Return from function
    .seh_endproc
.globl	__real@3e112e0be826d695         # -- Begin function ?normalize@@YA?AUPoint@@AEBU1@@Z
    .section	.rdata,"dr",discard,__real@3e112e0be826d695
    .p2align	3, 0x0
    __real@3e112e0be826d695:
    .quad	0x3e112e0be826d695              # double 1.0000000000000001E-9
    .text
.globl	"?normalize@@YA?AUPoint@@AEBU1@@Z"
    .p2align	4, 0x90
    "?normalize@@YA?AUPoint@@AEBU1@@Z":     # @"?normalize@@YA?AUPoint@@AEBU1@@Z"
    .seh_proc "?normalize@@YA?AUPoint@@AEBU1@@Z"
# %bb.0:
    sub	rsp, 72
    .seh_stackalloc 72
    .seh_endprologue
    mov	qword ptr [rsp + 32], rcx       # 8-byte Spill ; Move 64-bit value
    mov	rax, rcx
    mov	qword ptr [rsp + 40], rax       # 8-byte Spill ; Move 64-bit value
    mov	qword ptr [rsp + 64], rcx                      ; Move 64-bit value
    mov	qword ptr [rsp + 56], rdx                      ; Move 64-bit value
    mov	rcx, qword ptr [rsp + 56]                      ; Move 64-bit value
    call	"?magnitude@@YAOAEBUPoint@@@Z"                ; Function call
    movsd	qword ptr [rsp + 48], xmm0                   ; Load 64-bit double
    movsd	xmm0, qword ptr [rip + __real@3e112e0be826d695] # xmm0 = [1.0000000000000001E-9,0.0E+0] ; Load 64-bit double
    ucomisd	xmm0, qword ptr [rsp + 48]
    jbe	.LBB12_2                                       ; Jump instruction
# %bb.1:
    mov	rcx, qword ptr [rsp + 32]       # 8-byte Reload ; Move 64-bit value
    xor	edx, edx
    mov	r8d, 24
    call	memset                                        ; Function call
    jmp	.LBB12_3                                       ; Jump instruction
    .LBB12_2:
    mov	rcx, qword ptr [rsp + 32]       # 8-byte Reload ; Move 64-bit value
    movsd	xmm2, qword ptr [rsp + 48]      # xmm2 = mem[0],zero ; Load 64-bit double
    mov	rdx, qword ptr [rsp + 56]                      ; Move 64-bit value
    call	"??K@YA?AUPoint@@AEBU0@O@Z"                   ; Function call
    .LBB12_3:
    mov	rax, qword ptr [rsp + 40]       # 8-byte Reload ; Move 64-bit value
    add	rsp, 72
    ret                                                ; Return from function
    .seh_endproc
.globl	__real@bff0000000000000         # -- Begin function ?dist_xyz@@YAOAEBUPoint@@0@Z
    .section	.rdata,"dr",discard,__real@bff0000000000000
    .p2align	3, 0x0
    __real@bff0000000000000:
    .quad	0xbff0000000000000              # double -1
.globl	__real@3ff0000000000000
    .section	.rdata,"dr",discard,__real@3ff0000000000000
    .p2align	3, 0x0
    __real@3ff0000000000000:
    .quad	0x3ff0000000000000              # double 1
    .text
.globl	"?dist_xyz@@YAOAEBUPoint@@0@Z"
    .p2align	4, 0x90
    "?dist_xyz@@YAOAEBUPoint@@0@Z":         # @"?dist_xyz@@YAOAEBUPoint@@0@Z"
    .seh_proc "?dist_xyz@@YAOAEBUPoint@@0@Z"
# %bb.0:
    sub	rsp, 136
    .seh_stackalloc 136
    .seh_endprologue
    mov	qword ptr [rsp + 128], rdx                     ; Move 64-bit value
    mov	qword ptr [rsp + 120], rcx                     ; Move 64-bit value
    mov	rdx, qword ptr [rsp + 120]                     ; Move 64-bit value
    lea	rcx, [rsp + 96]
    call	"?normalize@@YA?AUPoint@@AEBU1@@Z"            ; Function call
    mov	rdx, qword ptr [rsp + 128]                     ; Move 64-bit value
    lea	rcx, [rsp + 72]
    call	"?normalize@@YA?AUPoint@@AEBU1@@Z"            ; Function call
    lea	rcx, [rsp + 96]
    lea	rdx, [rsp + 72]
    call	"?dot@@YAOAEBUPoint@@0@Z"                     ; Function call
    movsd	qword ptr [rsp + 64], xmm0                   ; Load 64-bit double
    movsd	xmm0, qword ptr [rip + __real@3ff0000000000000] # xmm0 = [1.0E+0,0.0E+0] ; Load 64-bit double
    movsd	qword ptr [rsp + 56], xmm0                   ; Load 64-bit double
    lea	rcx, [rsp + 56]
    lea	rdx, [rsp + 64]
    call	"??$min@O@std@@YAAEBOAEBO0@Z"                 ; Function call
    mov	rdx, rax
    movsd	xmm0, qword ptr [rip + __real@bff0000000000000] # xmm0 = [-1.0E+0,0.0E+0] ; Load 64-bit double
    movsd	qword ptr [rsp + 48], xmm0                   ; Load 64-bit double
    lea	rcx, [rsp + 48]
    call	"??$max@O@std@@YAAEBOAEBO0@Z"                 ; Function call
    movsd	xmm0, qword ptr [rax]           # xmm0 = mem[0],zero ; Load 64-bit double
    movsd	qword ptr [rsp + 64], xmm0                   ; Load 64-bit double
    movsd	xmm0, qword ptr [rsp + 64]      # xmm0 = mem[0],zero ; Load 64-bit double
    call	"?acos@@YAOO@Z"                               ; Function call
    movsd	qword ptr [rsp + 40], xmm0                   ; Load 64-bit double
    movsd	xmm0, qword ptr [rip + __real@40b8e20000000000] # xmm0 = [6.37E+3,0.0E+0] ; Load 64-bit double
    mulsd	xmm0, qword ptr [rsp + 40]                   ; Multiply two doubles
    add	rsp, 136
    ret                                                ; Return from function
    .seh_endproc
    .section	.text,"xr",discard,"??$max@O@std@@YAAEBOAEBO0@Z"
.globl	"??$max@O@std@@YAAEBOAEBO0@Z"   # -- Begin function ??$max@O@std@@YAAEBOAEBO0@Z
    .p2align	4, 0x90
    "??$max@O@std@@YAAEBOAEBO0@Z":          # @"??$max@O@std@@YAAEBOAEBO0@Z"
    .seh_proc "??$max@O@std@@YAAEBOAEBO0@Z"
# %bb.0:
    sub	rsp, 24
    .seh_stackalloc 24
    .seh_endprologue
    mov	qword ptr [rsp + 16], rdx                      ; Move 64-bit value
    mov	qword ptr [rsp + 8], rcx                       ; Move 64-bit value
    mov	rax, qword ptr [rsp + 8]                       ; Move 64-bit value
    movsd	xmm1, qword ptr [rax]           # xmm1 = mem[0],zero ; Load 64-bit double
    mov	rax, qword ptr [rsp + 16]                      ; Move 64-bit value
    movsd	xmm0, qword ptr [rax]           # xmm0 = mem[0],zero ; Load 64-bit double
    ucomisd	xmm0, xmm1
    jbe	.LBB14_2                                       ; Jump instruction
# %bb.1:
    mov	rax, qword ptr [rsp + 16]                      ; Move 64-bit value
    mov	qword ptr [rsp], rax            # 8-byte Spill ; Move 64-bit value
    jmp	.LBB14_3                                       ; Jump instruction
    .LBB14_2:
    mov	rax, qword ptr [rsp + 8]                       ; Move 64-bit value
    mov	qword ptr [rsp], rax            # 8-byte Spill ; Move 64-bit value
    .LBB14_3:
    mov	rax, qword ptr [rsp]            # 8-byte Reload ; Move 64-bit value
    add	rsp, 24
    ret                                                ; Return from function
    .seh_endproc
    .section	.text,"xr",discard,"??$min@O@std@@YAAEBOAEBO0@Z"
.globl	"??$min@O@std@@YAAEBOAEBO0@Z"   # -- Begin function ??$min@O@std@@YAAEBOAEBO0@Z
    .p2align	4, 0x90
    "??$min@O@std@@YAAEBOAEBO0@Z":          # @"??$min@O@std@@YAAEBOAEBO0@Z"
    .seh_proc "??$min@O@std@@YAAEBOAEBO0@Z"
# %bb.0:
    sub	rsp, 24
    .seh_stackalloc 24
    .seh_endprologue
    mov	qword ptr [rsp + 16], rdx                      ; Move 64-bit value
    mov	qword ptr [rsp + 8], rcx                       ; Move 64-bit value
    mov	rax, qword ptr [rsp + 16]                      ; Move 64-bit value
    movsd	xmm1, qword ptr [rax]           # xmm1 = mem[0],zero ; Load 64-bit double
    mov	rax, qword ptr [rsp + 8]                       ; Move 64-bit value
    movsd	xmm0, qword ptr [rax]           # xmm0 = mem[0],zero ; Load 64-bit double
    ucomisd	xmm0, xmm1
    jbe	.LBB15_2                                       ; Jump instruction
# %bb.1:
    mov	rax, qword ptr [rsp + 16]                      ; Move 64-bit value
    mov	qword ptr [rsp], rax            # 8-byte Spill ; Move 64-bit value
    jmp	.LBB15_3                                       ; Jump instruction
    .LBB15_2:
    mov	rax, qword ptr [rsp + 8]                       ; Move 64-bit value
    mov	qword ptr [rsp], rax            # 8-byte Spill ; Move 64-bit value
    .LBB15_3:
    mov	rax, qword ptr [rsp]            # 8-byte Reload ; Move 64-bit value
    add	rsp, 24
    ret                                                ; Return from function
    .seh_endproc
    .section	.text,"xr",discard,"?acos@@YAOO@Z"
.globl	"?acos@@YAOO@Z"                 # -- Begin function ?acos@@YAOO@Z
    .p2align	4, 0x90
    "?acos@@YAOO@Z":                        # @"?acos@@YAOO@Z"
    .seh_proc "?acos@@YAOO@Z"
# %bb.0:
    sub	rsp, 40
    .seh_stackalloc 40
    .seh_endprologue
    movsd	qword ptr [rsp + 32], xmm0                   ; Load 64-bit double
    movsd	xmm0, qword ptr [rsp + 32]      # xmm0 = mem[0],zero ; Load 64-bit double
    call	acosl                                         ; Function call
    nop
    add	rsp, 40
    ret                                                ; Return from function
    .seh_endproc
    .text
.globl	"?point_at_angle_on_great_circle@@YA?AUPoint@@AEBU1@0O@Z" # -- Begin function ?point_at_angle_on_great_circle@@YA?AUPoint@@AEBU1@0O@Z
    .p2align	4, 0x90
    "?point_at_angle_on_great_circle@@YA?AUPoint@@AEBU1@0O@Z": # @"?point_at_angle_on_great_circle@@YA?AUPoint@@AEBU1@0O@Z"
    .seh_proc "?point_at_angle_on_great_circle@@YA?AUPoint@@AEBU1@0O@Z"
# %bb.0:
    sub	rsp, 280
    .seh_stackalloc 280
    .seh_endprologue
    mov	qword ptr [rsp + 32], rcx       # 8-byte Spill ; Move 64-bit value
    mov	rax, rcx
    mov	qword ptr [rsp + 40], rax       # 8-byte Spill ; Move 64-bit value
    mov	qword ptr [rsp + 272], rcx                     ; Move 64-bit value
    movsd	qword ptr [rsp + 264], xmm3                  ; Load 64-bit double
    mov	qword ptr [rsp + 256], r8                      ; Move 64-bit value
    mov	qword ptr [rsp + 248], rdx                     ; Move 64-bit value
    mov	rdx, qword ptr [rsp + 248]                     ; Move 64-bit value
    lea	rcx, [rsp + 224]
    call	"?normalize@@YA?AUPoint@@AEBU1@@Z"            ; Function call
    mov	rdx, qword ptr [rsp + 256]                     ; Move 64-bit value
    lea	rcx, [rsp + 200]
    call	"?normalize@@YA?AUPoint@@AEBU1@@Z"            ; Function call
    lea	rcx, [rsp + 224]
    lea	rdx, [rsp + 200]
    call	"?dot@@YAOAEBUPoint@@0@Z"                     ; Function call
    movsd	qword ptr [rsp + 184], xmm0                  ; Load 64-bit double
    movsd	xmm0, qword ptr [rip + __real@3ff0000000000000] # xmm0 = [1.0E+0,0.0E+0] ; Load 64-bit double
    movsd	qword ptr [rsp + 176], xmm0                  ; Load 64-bit double
    lea	rcx, [rsp + 176]
    lea	rdx, [rsp + 184]
    call	"??$min@O@std@@YAAEBOAEBO0@Z"                 ; Function call
    mov	rdx, rax
    movsd	xmm0, qword ptr [rip + __real@bff0000000000000] # xmm0 = [-1.0E+0,0.0E+0] ; Load 64-bit double
    movsd	qword ptr [rsp + 168], xmm0                  ; Load 64-bit double
    lea	rcx, [rsp + 168]
    call	"??$max@O@std@@YAAEBOAEBO0@Z"                 ; Function call
    movsd	xmm0, qword ptr [rax]           # xmm0 = mem[0],zero ; Load 64-bit double
    call	"?acos@@YAOO@Z"                               ; Function call
    movsd	qword ptr [rsp + 192], xmm0                  ; Load 64-bit double
    movsd	xmm0, qword ptr [rip + __real@3e112e0be826d695] # xmm0 = [1.0000000000000001E-9,0.0E+0] ; Load 64-bit double
    ucomisd	xmm0, qword ptr [rsp + 192]
    jbe	.LBB17_2                                       ; Jump instruction
# %bb.1:
    mov	rax, qword ptr [rsp + 32]       # 8-byte Reload ; Move 64-bit value
    mov	rcx, qword ptr [rsp + 248]                     ; Move 64-bit value
    mov	rdx, qword ptr [rcx]                           ; Move 64-bit value
    mov	qword ptr [rax], rdx                           ; Move 64-bit value
    mov	rdx, qword ptr [rcx + 8]                       ; Move 64-bit value
    mov	qword ptr [rax + 8], rdx                       ; Move 64-bit value
    mov	rcx, qword ptr [rcx + 16]                      ; Move 64-bit value
    mov	qword ptr [rax + 16], rcx                      ; Move 64-bit value
    jmp	.LBB17_3                                       ; Jump instruction
    .LBB17_2:
    lea	rcx, [rsp + 224]
    lea	rdx, [rsp + 200]
    call	"?dot@@YAOAEBUPoint@@0@Z"                     ; Function call
    movaps	xmm2, xmm0
    lea	rcx, [rsp + 96]
    lea	rdx, [rsp + 224]
    call	"??D@YA?AUPoint@@AEBU0@O@Z"                   ; Function call
    lea	rcx, [rsp + 120]
    lea	rdx, [rsp + 200]
    lea	r8, [rsp + 96]
    call	"subtract_two_points"                         ; Function call
    lea	rcx, [rsp + 144]
    lea	rdx, [rsp + 120]
    call	"?normalize@@YA?AUPoint@@AEBU1@@Z"            ; Function call
    movsd	xmm0, qword ptr [rsp + 264]     # xmm0 = mem[0],zero ; Load 64-bit double
    call	"?sin@@YAOO@Z"                                ; Function call
    movaps	xmm2, xmm0
    lea	rcx, [rsp + 72]
    lea	rdx, [rsp + 144]
    call	"??D@YA?AUPoint@@AEBU0@O@Z"                   ; Function call
    movsd	xmm0, qword ptr [rsp + 264]     # xmm0 = mem[0],zero ; Load 64-bit double
    call	"?cos@@YAOO@Z"                                ; Function call
    movaps	xmm2, xmm0
    lea	rcx, [rsp + 48]
    lea	rdx, [rsp + 224]
    call	"??D@YA?AUPoint@@AEBU0@O@Z"                   ; Function call
    mov	rcx, qword ptr [rsp + 32]       # 8-byte Reload ; Move 64-bit value
    lea	rdx, [rsp + 48]
    lea	r8, [rsp + 72]
    call	"add_two_points"                              ; Function call
    .LBB17_3:
    mov	rax, qword ptr [rsp + 40]       # 8-byte Reload ; Move 64-bit value
    add	rsp, 280
    ret                                                ; Return from function
    .seh_endproc
.globl	"?is_on_arc@@YA_NAEBUPoint@@00@Z" # -- Begin function ?is_on_arc@@YA_NAEBUPoint@@00@Z
    .p2align	4, 0x90
    "?is_on_arc@@YA_NAEBUPoint@@00@Z":      # @"?is_on_arc@@YA_NAEBUPoint@@00@Z"
    .seh_proc "?is_on_arc@@YA_NAEBUPoint@@00@Z"
# %bb.0:
    sub	rsp, 88
    .seh_stackalloc 88
    .seh_endprologue
    mov	qword ptr [rsp + 80], r8                       ; Move 64-bit value
    mov	qword ptr [rsp + 72], rdx                      ; Move 64-bit value
    mov	qword ptr [rsp + 64], rcx                      ; Move 64-bit value
    mov	rdx, qword ptr [rsp + 72]                      ; Move 64-bit value
    mov	rcx, qword ptr [rsp + 64]                      ; Move 64-bit value
    call	"?dist_xyz@@YAOAEBUPoint@@0@Z"                ; Function call
    movsd	qword ptr [rsp + 56], xmm0                   ; Load 64-bit double
    mov	rdx, qword ptr [rsp + 80]                      ; Move 64-bit value
    mov	rcx, qword ptr [rsp + 64]                      ; Move 64-bit value
    call	"?dist_xyz@@YAOAEBUPoint@@0@Z"                ; Function call
    movsd	qword ptr [rsp + 48], xmm0                   ; Load 64-bit double
    mov	rdx, qword ptr [rsp + 72]                      ; Move 64-bit value
    mov	rcx, qword ptr [rsp + 80]                      ; Move 64-bit value
    call	"?dist_xyz@@YAOAEBUPoint@@0@Z"                ; Function call
    movsd	qword ptr [rsp + 40], xmm0                   ; Load 64-bit double
    movsd	xmm0, qword ptr [rsp + 48]      # xmm0 = mem[0],zero ; Load 64-bit double
    addsd	xmm0, qword ptr [rsp + 40]                   ; Add two doubles
    subsd	xmm0, qword ptr [rsp + 56]                   ; Subtract two doubles
    call	"?abs@@YAOO@Z"                                ; Function call
    movaps	xmm1, xmm0
    movsd	xmm0, qword ptr [rip + __real@3e112e0be826d695] # xmm0 = [1.0000000000000001E-9,0.0E+0] ; Load 64-bit double
    ucomisd	xmm0, xmm1
    seta	al
    and	al, 1
    add	rsp, 88
    ret                                                ; Return from function
    .seh_endproc
.globl	__xmm@7fffffffffffffff7fffffffffffffff # -- Begin function ?abs@@YAOO@Z
    .section	.rdata,"dr",discard,__xmm@7fffffffffffffff7fffffffffffffff
    .p2align	4, 0x0
    __xmm@7fffffffffffffff7fffffffffffffff:
    .quad	0x7fffffffffffffff              # double NaN
    .quad	0x7fffffffffffffff              # double NaN
    .section	.text,"xr",discard,"?abs@@YAOO@Z"
.globl	"?abs@@YAOO@Z"
    .p2align	4, 0x90
    "?abs@@YAOO@Z":                         # @"?abs@@YAOO@Z"
    .seh_proc "?abs@@YAOO@Z"
# %bb.0:
    push	rax                                           ; Push to stack
    .seh_stackalloc 8
    .seh_endprologue
    movsd	qword ptr [rsp], xmm0                        ; Load 64-bit double
    movsd	xmm0, qword ptr [rsp]           # xmm0 = mem[0],zero ; Load 64-bit double
    movaps	xmm1, xmmword ptr [rip + __xmm@7fffffffffffffff7fffffffffffffff] # xmm1 = [NaN,NaN]
    pand	xmm0, xmm1
    pop	rax                                            ; Pop from stack
    ret                                                ; Return from function
    .seh_endproc
    .text
.globl	"?get_arc_parameter@@YAOAEBUPoint@@00@Z" # -- Begin function ?get_arc_parameter@@YAOAEBUPoint@@00@Z
    .p2align	4, 0x90
    "?get_arc_parameter@@YAOAEBUPoint@@00@Z": # @"?get_arc_parameter@@YAOAEBUPoint@@00@Z"
    .seh_proc "?get_arc_parameter@@YAOAEBUPoint@@00@Z"
# %bb.0:
    sub	rsp, 88
    .seh_stackalloc 88
    .seh_endprologue
    mov	qword ptr [rsp + 72], r8                       ; Move 64-bit value
    mov	qword ptr [rsp + 64], rdx                      ; Move 64-bit value
    mov	qword ptr [rsp + 56], rcx                      ; Move 64-bit value
    mov	rdx, qword ptr [rsp + 64]                      ; Move 64-bit value
    mov	rcx, qword ptr [rsp + 56]                      ; Move 64-bit value
    call	"?dist_xyz@@YAOAEBUPoint@@0@Z"                ; Function call
    movsd	qword ptr [rsp + 48], xmm0                   ; Load 64-bit double
    movsd	xmm0, qword ptr [rip + __real@3e112e0be826d695] # xmm0 = [1.0000000000000001E-9,0.0E+0] ; Load 64-bit double
    ucomisd	xmm0, qword ptr [rsp + 48]
    jbe	.LBB20_2                                       ; Jump instruction
# %bb.1:
    xorps	xmm0, xmm0
    movsd	qword ptr [rsp + 80], xmm0                   ; Load 64-bit double
    jmp	.LBB20_3                                       ; Jump instruction
    .LBB20_2:
    mov	rdx, qword ptr [rsp + 72]                      ; Move 64-bit value
    mov	rcx, qword ptr [rsp + 56]                      ; Move 64-bit value
    call	"?dist_xyz@@YAOAEBUPoint@@0@Z"                ; Function call
    movsd	qword ptr [rsp + 40], xmm0                   ; Load 64-bit double
    movsd	xmm0, qword ptr [rsp + 40]      # xmm0 = mem[0],zero ; Load 64-bit double
    divsd	xmm0, qword ptr [rsp + 48]                   ; Divide two doubles
    movsd	qword ptr [rsp + 80], xmm0                   ; Load 64-bit double
    .LBB20_3:
    movsd	xmm0, qword ptr [rsp + 80]      # xmm0 = mem[0],zero ; Load 64-bit double
    add	rsp, 88
    ret                                                ; Return from function
    .seh_endproc
.globl	__real@3ff000000044b830         # -- Begin function ?get_small_circle_intersections@@YA?AV?$vector@UPoint@@V?$allocator@UPoint@@@std@@@std@@AEBUPoint@@0O@Z
    .section	.rdata,"dr",discard,__real@3ff000000044b830
    .p2align	3, 0x0
    __real@3ff000000044b830:
    .quad	0x3ff000000044b830              # double 1.0000000010000001
.globl	__real@4000000000000000
    .section	.rdata,"dr",discard,__real@4000000000000000
    .p2align	3, 0x0
    __real@4000000000000000:
    .quad	0x4000000000000000              # double 2
.globl	__real@bff000000044b830
    .section	.rdata,"dr",discard,__real@bff000000044b830
    .p2align	3, 0x0
    __real@bff000000044b830:
    .quad	0xbff000000044b830              # double -1.0000000010000001
.globl	__real@3fe0000000000000
    .section	.rdata,"dr",discard,__real@3fe0000000000000
    .p2align	3, 0x0
    __real@3fe0000000000000:
    .quad	0x3fe0000000000000              # double 0.5
    .text
.globl	"?get_small_circle_intersections@@YA?AV?$vector@UPoint@@V?$allocator@UPoint@@@std@@@std@@AEBUPoint@@0O@Z"
    .p2align	4, 0x90
    "?get_small_circle_intersections@@YA?AV?$vector@UPoint@@V?$allocator@UPoint@@@std@@@std@@AEBUPoint@@0O@Z": # @"?get_small_circle_intersections@@YA?AV?$vector@UPoint@@V?$allocator@UPoint@@@std@@@std@@AEBUPoint@@0O@Z"
    .Lfunc_begin0:
    .seh_proc "?get_small_circle_intersections@@YA?AV?$vector@UPoint@@V?$allocator@UPoint@@@std@@@std@@AEBUPoint@@0O@Z"
    .seh_handler __CxxFrameHandler3, @unwind, @except
# %bb.0:
    push	rbp                                           ; Push to stack
    .seh_pushreg rbp                                   ; Push to stack
    sub	rsp, 592
    .seh_stackalloc 592
    lea	rbp, [rsp + 128]
    .seh_setframe rbp, 128
    .seh_endprologue
    mov	qword ptr [rbp + 456], -2                      ; Move 64-bit value
    mov	qword ptr [rbp], rcx            # 8-byte Spill ; Move 64-bit value
    mov	rax, rcx
    mov	qword ptr [rbp - 8], rax        # 8-byte Spill ; Move 64-bit value
    mov	qword ptr [rbp + 448], rcx                     ; Move 64-bit value
    movsd	qword ptr [rbp + 440], xmm3                  ; Load 64-bit double
    mov	qword ptr [rbp + 432], r8                      ; Move 64-bit value
    mov	qword ptr [rbp + 424], rdx                     ; Move 64-bit value
    mov	rdx, qword ptr [rbp + 424]                     ; Move 64-bit value
    lea	rcx, [rbp + 400]
    call	"?normalize@@YA?AUPoint@@AEBU1@@Z"            ; Function call
    mov	rdx, qword ptr [rbp + 432]                     ; Move 64-bit value
    lea	rcx, [rbp + 376]
    call	"?normalize@@YA?AUPoint@@AEBU1@@Z"            ; Function call
    movsd	xmm0, qword ptr [rbp + 440]     # xmm0 = mem[0],zero ; Load 64-bit double
    movsd	xmm1, qword ptr [rip + __real@40b8e20000000000] # xmm1 = [6.37E+3,0.0E+0] ; Load 64-bit double
    divsd	xmm0, xmm1                                   ; Divide two doubles
    movsd	qword ptr [rbp + 368], xmm0                  ; Load 64-bit double
    lea	rcx, [rbp + 400]
    lea	rdx, [rbp + 376]
    call	"?dot@@YAOAEBUPoint@@0@Z"                     ; Function call
    movsd	qword ptr [rbp + 352], xmm0                  ; Load 64-bit double
    movsd	xmm0, qword ptr [rip + __real@3ff0000000000000] # xmm0 = [1.0E+0,0.0E+0] ; Load 64-bit double
    movsd	qword ptr [rbp + 344], xmm0                  ; Load 64-bit double
    lea	rcx, [rbp + 344]
    lea	rdx, [rbp + 352]
    call	"??$min@O@std@@YAAEBOAEBO0@Z"                 ; Function call
    mov	rdx, rax
    movsd	xmm0, qword ptr [rip + __real@bff0000000000000] # xmm0 = [-1.0E+0,0.0E+0] ; Load 64-bit double
    movsd	qword ptr [rbp + 336], xmm0                  ; Load 64-bit double
    lea	rcx, [rbp + 336]
    call	"??$max@O@std@@YAAEBOAEBO0@Z"                 ; Function call
    movsd	xmm0, qword ptr [rax]           # xmm0 = mem[0],zero ; Load 64-bit double
    call	"?acos@@YAOO@Z"                               ; Function call
    mov	rcx, qword ptr [rbp]            # 8-byte Reload ; Move 64-bit value
    movsd	qword ptr [rbp + 360], xmm0                  ; Load 64-bit double
    mov	byte ptr [rbp + 335], 0
    call	"??0?$vector@UPoint@@V?$allocator@UPoint@@@std@@@std@@QEAA@XZ" ; Function call
    movsd	xmm0, qword ptr [rbp + 360]     # xmm0 = mem[0],zero ; Load 64-bit double
    movsd	xmm1, qword ptr [rbp + 368]     # xmm1 = mem[0],zero ; Load 64-bit double
    addsd	xmm1, xmm1                                   ; Add two doubles
    movsd	xmm2, qword ptr [rip + __real@3e112e0be826d695] # xmm2 = [1.0000000000000001E-9,0.0E+0] ; Load 64-bit double
    addsd	xmm1, xmm2                                   ; Add two doubles
    ucomisd	xmm0, xmm1
    jbe	.LBB21_2                                       ; Jump instruction
# %bb.1:
    mov	byte ptr [rbp + 335], 1
    mov	dword ptr [rbp + 328], 1                       ; Move 32-bit value
    jmp	.LBB21_12                                      ; Jump instruction
    .LBB21_2:
    movsd	xmm0, qword ptr [rip + __real@3e112e0be826d695] # xmm0 = [1.0000000000000001E-9,0.0E+0] ; Load 64-bit double
    ucomisd	xmm0, qword ptr [rbp + 360]
    jbe	.LBB21_4                                       ; Jump instruction
# %bb.3:
    mov	byte ptr [rbp + 335], 1
    mov	dword ptr [rbp + 328], 1                       ; Move 32-bit value
    jmp	.LBB21_12                                      ; Jump instruction
    .LBB21_4:
    movsd	xmm0, qword ptr [rbp + 368]     # xmm0 = mem[0],zero ; Load 64-bit double
    call	"?cos@@YAOO@Z"                                ; Function call
    movsd	qword ptr [rbp - 16], xmm0      # 8-byte Spill ; Load 64-bit double
    movsd	xmm0, qword ptr [rbp + 360]     # xmm0 = mem[0],zero ; Load 64-bit double
    movsd	xmm1, qword ptr [rip + __real@4000000000000000] # xmm1 = [2.0E+0,0.0E+0] ; Load 64-bit double
    divsd	xmm0, xmm1                                   ; Divide two doubles
    call	"?cos@@YAOO@Z"                                ; Function call
    movaps	xmm1, xmm0
    movsd	xmm0, qword ptr [rbp - 16]      # 8-byte Reload ; Load 64-bit double
# xmm0 = mem[0],zero
    divsd	xmm0, xmm1                                   ; Divide two doubles
    movsd	qword ptr [rbp + 320], xmm0                  ; Load 64-bit double
    movsd	xmm0, qword ptr [rbp + 320]     # xmm0 = mem[0],zero ; Load 64-bit double
    movsd	xmm1, qword ptr [rip + __real@3ff000000044b830] # xmm1 = [1.0000000010000001E+0,0.0E+0] ; Load 64-bit double
    ucomisd	xmm0, xmm1
    ja	.LBB21_6                                        ; Jump instruction
# %bb.5:
    movsd	xmm0, qword ptr [rip + __real@bff000000044b830] # xmm0 = [-1.0000000010000001E+0,0.0E+0] ; Load 64-bit double
    ucomisd	xmm0, qword ptr [rbp + 320]
    jbe	.LBB21_7                                       ; Jump instruction
    .LBB21_6:
    movsd	xmm0, qword ptr [rip + __real@3ff0000000000000] # xmm0 = [1.0E+0,0.0E+0] ; Load 64-bit double
    movsd	qword ptr [rbp + 312], xmm0                  ; Load 64-bit double
    lea	rcx, [rbp + 312]
    lea	rdx, [rbp + 320]
    call	"??$min@O@std@@YAAEBOAEBO0@Z"                 ; Function call
    mov	rdx, rax
    movsd	xmm0, qword ptr [rip + __real@bff0000000000000] # xmm0 = [-1.0E+0,0.0E+0] ; Load 64-bit double
    movsd	qword ptr [rbp + 304], xmm0                  ; Load 64-bit double
    lea	rcx, [rbp + 304]
    call	"??$max@O@std@@YAAEBOAEBO0@Z"                 ; Function call
    movsd	xmm0, qword ptr [rax]           # xmm0 = mem[0],zero ; Load 64-bit double
    movsd	qword ptr [rbp + 320], xmm0                  ; Load 64-bit double
    .LBB21_7:
    movsd	xmm0, qword ptr [rbp + 320]     # xmm0 = mem[0],zero ; Load 64-bit double
    call	"?acos@@YAOO@Z"                               ; Function call
    movsd	qword ptr [rbp + 296], xmm0                  ; Load 64-bit double
    movsd	xmm3, qword ptr [rbp + 360]     # xmm3 = mem[0],zero ; Load 64-bit double
    movsd	xmm0, qword ptr [rip + __real@3fe0000000000000] # xmm0 = [5.0E-1,0.0E+0] ; Load 64-bit double
    mulsd	xmm3, xmm0                                   ; Multiply two doubles
    lea	rcx, [rbp + 272]
    mov	qword ptr [rbp - 40], rcx       # 8-byte Spill ; Move 64-bit value
    lea	rdx, [rbp + 400]
    mov	qword ptr [rbp - 96], rdx       # 8-byte Spill ; Move 64-bit value
    lea	r8, [rbp + 376]
    mov	qword ptr [rbp - 88], r8        # 8-byte Spill ; Move 64-bit value
    call	"?point_at_angle_on_great_circle@@YA?AUPoint@@AEBU1@0O@Z" ; Function call
    mov	rdx, qword ptr [rbp - 96]       # 8-byte Reload ; Move 64-bit value
    mov	r8, qword ptr [rbp - 88]        # 8-byte Reload ; Move 64-bit value
    lea	rcx, [rbp + 200]
    mov	qword ptr [rbp - 80], rcx       # 8-byte Spill ; Move 64-bit value
    call	"subtract_two_points"                         ; Function call
    mov	r8, qword ptr [rbp - 80]        # 8-byte Reload ; Move 64-bit value
    mov	rdx, qword ptr [rbp - 40]       # 8-byte Reload ; Move 64-bit value
    lea	rcx, [rbp + 224]
    mov	qword ptr [rbp - 72], rcx       # 8-byte Spill ; Move 64-bit value
    call	"?cross@@YA?AUPoint@@AEBU1@0@Z"               ; Function call
    mov	rdx, qword ptr [rbp - 72]       # 8-byte Reload ; Move 64-bit value
    lea	rcx, [rbp + 248]
    mov	qword ptr [rbp - 48], rcx       # 8-byte Spill ; Move 64-bit value
    call	"?normalize@@YA?AUPoint@@AEBU1@@Z"            ; Function call
    movsd	xmm0, qword ptr [rbp + 296]     # xmm0 = mem[0],zero ; Load 64-bit double
    call	"?sin@@YAOO@Z"                                ; Function call
    mov	rdx, qword ptr [rbp - 48]       # 8-byte Reload ; Move 64-bit value
    movaps	xmm2, xmm0
    lea	rcx, [rbp + 152]
    mov	qword ptr [rbp - 56], rcx       # 8-byte Spill ; Move 64-bit value
    call	"??D@YA?AUPoint@@AEBU0@O@Z"                   ; Function call
    movsd	xmm0, qword ptr [rbp + 296]     # xmm0 = mem[0],zero ; Load 64-bit double
    call	"?cos@@YAOO@Z"                                ; Function call
    mov	rdx, qword ptr [rbp - 40]       # 8-byte Reload ; Move 64-bit value
    movaps	xmm2, xmm0
    lea	rcx, [rbp + 128]
    mov	qword ptr [rbp - 64], rcx       # 8-byte Spill ; Move 64-bit value
    call	"??D@YA?AUPoint@@AEBU0@O@Z"                   ; Function call
    mov	rdx, qword ptr [rbp - 64]       # 8-byte Reload ; Move 64-bit value
    mov	r8, qword ptr [rbp - 56]        # 8-byte Reload ; Move 64-bit value
    lea	rcx, [rbp + 176]
    call	"add_two_points"                              ; Function call
    movsd	xmm0, qword ptr [rbp + 296]     # xmm0 = mem[0],zero ; Load 64-bit double
    call	"?sin@@YAOO@Z"                                ; Function call
    mov	rdx, qword ptr [rbp - 48]       # 8-byte Reload ; Move 64-bit value
    movaps	xmm2, xmm0
    lea	rcx, [rbp + 80]
    mov	qword ptr [rbp - 24], rcx       # 8-byte Spill ; Move 64-bit value
    call	"??D@YA?AUPoint@@AEBU0@O@Z"                   ; Function call
    movsd	xmm0, qword ptr [rbp + 296]     # xmm0 = mem[0],zero ; Load 64-bit double
    call	"?cos@@YAOO@Z"                                ; Function call
    mov	rdx, qword ptr [rbp - 40]       # 8-byte Reload ; Move 64-bit value
    movaps	xmm2, xmm0
    lea	rcx, [rbp + 56]
    mov	qword ptr [rbp - 32], rcx       # 8-byte Spill ; Move 64-bit value
    call	"??D@YA?AUPoint@@AEBU0@O@Z"                   ; Function call
    mov	rdx, qword ptr [rbp - 32]       # 8-byte Reload ; Move 64-bit value
    mov	r8, qword ptr [rbp - 24]        # 8-byte Reload ; Move 64-bit value
    lea	rcx, [rbp + 104]
    call	"subtract_two_points"                         ; Function call
    mov	rcx, qword ptr [rbp]            # 8-byte Reload ; Move 64-bit value
    movsd	xmm0, qword ptr [rbp + 176]     # xmm0 = mem[0],zero ; Load 64-bit double
    movsd	xmm1, qword ptr [rip + __real@40b8e20000000000] # xmm1 = [6.37E+3,0.0E+0] ; Load 64-bit double
    mulsd	xmm0, xmm1                                   ; Multiply two doubles
    movsd	qword ptr [rbp + 32], xmm0                   ; Load 64-bit double
    movsd	xmm0, qword ptr [rbp + 184]     # xmm0 = mem[0],zero ; Load 64-bit double
    mulsd	xmm0, xmm1                                   ; Multiply two doubles
    movsd	qword ptr [rbp + 40], xmm0                   ; Load 64-bit double
    movsd	xmm0, qword ptr [rbp + 192]     # xmm0 = mem[0],zero ; Load 64-bit double
    mulsd	xmm0, xmm1                                   ; Multiply two doubles
    movsd	qword ptr [rbp + 48], xmm0                   ; Load 64-bit double
    .Ltmp0:
    lea	rdx, [rbp + 32]
    call	"?push_back@?$vector@UPoint@@V?$allocator@UPoint@@@std@@@std@@QEAAX$$QEAUPoint@@@Z" ; Push to stack
    .Ltmp1:
    jmp	.LBB21_8                                       ; Jump instruction
    .LBB21_8:
    movsd	xmm0, qword ptr [rbp + 296]     # xmm0 = mem[0],zero ; Load 64-bit double
    movsd	xmm1, qword ptr [rip + __real@3e112e0be826d695] # xmm1 = [1.0000000000000001E-9,0.0E+0] ; Load 64-bit double
    ucomisd	xmm0, xmm1
    jbe	.LBB21_11                                      ; Jump instruction
# %bb.9:
    mov	rcx, qword ptr [rbp]            # 8-byte Reload ; Move 64-bit value
    movsd	xmm0, qword ptr [rbp + 104]     # xmm0 = mem[0],zero ; Load 64-bit double
    movsd	xmm1, qword ptr [rip + __real@40b8e20000000000] # xmm1 = [6.37E+3,0.0E+0] ; Load 64-bit double
    mulsd	xmm0, xmm1                                   ; Multiply two doubles
    movsd	qword ptr [rbp + 8], xmm0                    ; Load 64-bit double
    movsd	xmm0, qword ptr [rbp + 112]     # xmm0 = mem[0],zero ; Load 64-bit double
    mulsd	xmm0, xmm1                                   ; Multiply two doubles
    movsd	qword ptr [rbp + 16], xmm0                   ; Load 64-bit double
    movsd	xmm0, qword ptr [rbp + 120]     # xmm0 = mem[0],zero ; Load 64-bit double
    mulsd	xmm0, xmm1                                   ; Multiply two doubles
    movsd	qword ptr [rbp + 24], xmm0                   ; Load 64-bit double
    .Ltmp2:
    lea	rdx, [rbp + 8]
    call	"?push_back@?$vector@UPoint@@V?$allocator@UPoint@@@std@@@std@@QEAAX$$QEAUPoint@@@Z" ; Push to stack
    .Ltmp3:
    jmp	.LBB21_10                                      ; Jump instruction
    .LBB21_10:
    jmp	.LBB21_11                                      ; Jump instruction
    .LBB21_11:
    mov	byte ptr [rbp + 335], 1
    mov	dword ptr [rbp + 328], 1                       ; Move 32-bit value
    .LBB21_12:
    test	byte ptr [rbp + 335], 1                       ; Test values
    jne	.LBB21_14                                      ; Jump instruction
# %bb.13:
    mov	rcx, qword ptr [rbp]            # 8-byte Reload ; Move 64-bit value
    call	"??1?$vector@UPoint@@V?$allocator@UPoint@@@std@@@std@@QEAA@XZ" ; Function call
    .LBB21_14:
    mov	rax, qword ptr [rbp - 8]        # 8-byte Reload ; Move 64-bit value
    add	rsp, 592
    pop	rbp                                            ; Pop from stack
    ret                                                ; Return from function
    .seh_handlerdata
    .long	("$cppxdata$?get_small_circle_intersections@@YA?AV?$vector@UPoint@@V?$allocator@UPoint@@@std@@@std@@AEBUPoint@@0O@Z")@IMGREL
    .text
    .seh_endproc
    .p2align	4, 0x90
    "?dtor$15@?0??get_small_circle_intersections@@YA?AV?$vector@UPoint@@V?$allocator@UPoint@@@std@@@std@@AEBUPoint@@0O@Z@4HA":
    .seh_proc "?dtor$15@?0??get_small_circle_intersections@@YA?AV?$vector@UPoint@@V?$allocator@UPoint@@@std@@@std@@AEBUPoint@@0O@Z@4HA"
    .LBB21_15:
    mov	qword ptr [rsp + 16], rdx                      ; Move 64-bit value
    push	rbp                                           ; Push to stack
    .seh_pushreg rbp                                   ; Push to stack
    sub	rsp, 32
    .seh_stackalloc 32
    lea	rbp, [rdx + 128]
    .seh_endprologue
    mov	rcx, qword ptr [rbp]            # 8-byte Reload ; Move 64-bit value
    call	"??1?$vector@UPoint@@V?$allocator@UPoint@@@std@@@std@@QEAA@XZ" ; Function call
    nop
    add	rsp, 32
    pop	rbp                                            ; Pop from stack
    ret                                     # CLEANUPRET ; Return from function
    .Lfunc_end0:
    .seh_handlerdata
    .text
    .seh_endproc
    .section	.xdata,"dr"
    .p2align	2, 0x0
    "$cppxdata$?get_small_circle_intersections@@YA?AV?$vector@UPoint@@V?$allocator@UPoint@@@std@@@std@@AEBUPoint@@0O@Z":
    .long	429065506                       # MagicNumber
    .long	1                               # MaxState
    .long	("$stateUnwindMap$?get_small_circle_intersections@@YA?AV?$vector@UPoint@@V?$allocator@UPoint@@@std@@@std@@AEBUPoint@@0O@Z")@IMGREL # UnwindMap
    .long	0                               # NumTryBlocks
    .long	0                               # TryBlockMap
    .long	3                               # IPMapEntries
    .long	("$ip2state$?get_small_circle_intersections@@YA?AV?$vector@UPoint@@V?$allocator@UPoint@@@std@@@std@@AEBUPoint@@0O@Z")@IMGREL # IPToStateXData
    .long	584                             # UnwindHelp
    .long	0                               # ESTypeList
    .long	1                               # EHFlags
    "$stateUnwindMap$?get_small_circle_intersections@@YA?AV?$vector@UPoint@@V?$allocator@UPoint@@@std@@@std@@AEBUPoint@@0O@Z":
    .long	-1                              # ToState
    .long	"?dtor$15@?0??get_small_circle_intersections@@YA?AV?$vector@UPoint@@V?$allocator@UPoint@@@std@@@std@@AEBUPoint@@0O@Z@4HA"@IMGREL # Action
    "$ip2state$?get_small_circle_intersections@@YA?AV?$vector@UPoint@@V?$allocator@UPoint@@@std@@@std@@AEBUPoint@@0O@Z":
    .long	.Lfunc_begin0@IMGREL            # IP
    .long	-1                              # ToState
    .long	.Ltmp0@IMGREL+1                 # IP
    .long	0                               # ToState
    .long	.Ltmp3@IMGREL+1                 # IP
    .long	-1                              # ToState
    .text
    .section	.text,"xr",discard,"??0?$vector@UPoint@@V?$allocator@UPoint@@@std@@@std@@QEAA@XZ"
.globl	"??0?$vector@UPoint@@V?$allocator@UPoint@@@std@@@std@@QEAA@XZ" # -- Begin function ??0?$vector@UPoint@@V?$allocator@UPoint@@@std@@@std@@QEAA@XZ
    .p2align	4, 0x90
    "??0?$vector@UPoint@@V?$allocator@UPoint@@@std@@@std@@QEAA@XZ": # @"??0?$vector@UPoint@@V?$allocator@UPoint@@@std@@@std@@QEAA@XZ"
    .seh_proc "??0?$vector@UPoint@@V?$allocator@UPoint@@@std@@@std@@QEAA@XZ"
# %bb.0:
    sub	rsp, 56
    .seh_stackalloc 56
    .seh_endprologue
    mov	qword ptr [rsp + 48], rcx                      ; Move 64-bit value
    mov	rcx, qword ptr [rsp + 48]                      ; Move 64-bit value
    mov	qword ptr [rsp + 32], rcx       # 8-byte Spill ; Move 64-bit value
    mov	dl, byte ptr [rsp + 47]
    call	"??$?0$$V@?$_Compressed_pair@V?$allocator@UPoint@@@std@@V?$_Vector_val@U?$_Simple_types@UPoint@@@std@@@2@$00@std@@QEAA@U_Zero_then_variadic_args_t@1@@Z" ; Function call
    mov	rcx, qword ptr [rsp + 32]       # 8-byte Reload ; Move 64-bit value
    lea	rdx, [rip + "?_Fake_alloc@std@@3U_Fake_allocator@1@B"]
    call	"?_Alloc_proxy@_Container_base0@std@@QEAAXAEBU_Fake_allocator@2@@Z" ; Function call
    mov	rax, qword ptr [rsp + 32]       # 8-byte Reload ; Move 64-bit value
    add	rsp, 56
    ret                                                ; Return from function
    .seh_endproc
    .section	.text,"xr",discard,"?push_back@?$vector@UPoint@@V?$allocator@UPoint@@@std@@@std@@QEAAX$$QEAUPoint@@@Z" ; Push to stack
.globl	"?push_back@?$vector@UPoint@@V?$allocator@UPoint@@@std@@@std@@QEAAX$$QEAUPoint@@@Z" # -- Begin function ?push_back@?$vector@UPoint@@V?$allocator@UPoint@@@std@@@std@@QEAAX$$QEAUPoint@@@Z
    .p2align	4, 0x90
    "?push_back@?$vector@UPoint@@V?$allocator@UPoint@@@std@@@std@@QEAAX$$QEAUPoint@@@Z": # @"?push_back@?$vector@UPoint@@V?$allocator@UPoint@@@std@@@std@@QEAAX$$QEAUPoint@@@Z" ; Push to stack
    .seh_proc "?push_back@?$vector@UPoint@@V?$allocator@UPoint@@@std@@@std@@QEAAX$$QEAUPoint@@@Z" ; Push to stack
# %bb.0:
    sub	rsp, 56
    .seh_stackalloc 56
    .seh_endprologue
    mov	qword ptr [rsp + 48], rdx                      ; Move 64-bit value
    mov	qword ptr [rsp + 40], rcx                      ; Move 64-bit value
    mov	rcx, qword ptr [rsp + 40]                      ; Move 64-bit value
    mov	rdx, qword ptr [rsp + 48]                      ; Move 64-bit value
    call	"??$_Emplace_one_at_back@UPoint@@@?$vector@UPoint@@V?$allocator@UPoint@@@std@@@std@@AEAAAEAUPoint@@$$QEAU2@@Z" ; Function call
    nop
    add	rsp, 56
    ret                                                ; Return from function
    .seh_endproc
    .section	.text,"xr",discard,"??1?$vector@UPoint@@V?$allocator@UPoint@@@std@@@std@@QEAA@XZ"
.globl	"??1?$vector@UPoint@@V?$allocator@UPoint@@@std@@@std@@QEAA@XZ" # -- Begin function ??1?$vector@UPoint@@V?$allocator@UPoint@@@std@@@std@@QEAA@XZ
    .p2align	4, 0x90
    "??1?$vector@UPoint@@V?$allocator@UPoint@@@std@@@std@@QEAA@XZ": # @"??1?$vector@UPoint@@V?$allocator@UPoint@@@std@@@std@@QEAA@XZ"
    .seh_proc "??1?$vector@UPoint@@V?$allocator@UPoint@@@std@@@std@@QEAA@XZ"
# %bb.0:
    sub	rsp, 40
    .seh_stackalloc 40
    .seh_endprologue
    mov	qword ptr [rsp + 32], rcx                      ; Move 64-bit value
    mov	rcx, qword ptr [rsp + 32]                      ; Move 64-bit value
    call	"?_Tidy@?$vector@UPoint@@V?$allocator@UPoint@@@std@@@std@@AEAAXXZ" ; Function call
    nop
    add	rsp, 40
    ret                                                ; Return from function
    .seh_endproc
    .text
.globl	"?get_covered_intervals@@YA?AV?$vector@U?$pair@OO@std@@V?$allocator@U?$pair@OO@std@@@2@@std@@AEBUPoint@@00O@Z" # -- Begin function ?get_covered_intervals@@YA?AV?$vector@U?$pair@OO@std@@V?$allocator@U?$pair@OO@std@@@2@@std@@AEBUPoint@@00O@Z
    .p2align	4, 0x90
    "?get_covered_intervals@@YA?AV?$vector@U?$pair@OO@std@@V?$allocator@U?$pair@OO@std@@@2@@std@@AEBUPoint@@00O@Z": # @"?get_covered_intervals@@YA?AV?$vector@U?$pair@OO@std@@V?$allocator@U?$pair@OO@std@@@2@@std@@AEBUPoint@@00O@Z"
    .Lfunc_begin1:
    .seh_proc "?get_covered_intervals@@YA?AV?$vector@U?$pair@OO@std@@V?$allocator@U?$pair@OO@std@@@2@@std@@AEBUPoint@@00O@Z"
    .seh_handler __CxxFrameHandler3, @unwind, @except
# %bb.0:
    push	rbp                                           ; Push to stack
    .seh_pushreg rbp                                   ; Push to stack
    sub	rsp, 1200
    .seh_stackalloc 1200
    lea	rbp, [rsp + 128]
    .seh_setframe rbp, 128
    .seh_endprologue
    mov	qword ptr [rbp + 1064], -2                     ; Move 64-bit value
    mov	qword ptr [rbp + 24], rcx       # 8-byte Spill ; Move 64-bit value
    mov	rax, rcx
    mov	qword ptr [rbp + 32], rax       # 8-byte Spill ; Move 64-bit value
    movsd	xmm0, qword ptr [rbp + 1120]    # xmm0 = mem[0],zero ; Load 64-bit double
    mov	qword ptr [rbp + 1056], rcx                    ; Move 64-bit value
    mov	qword ptr [rbp + 1048], r9                     ; Move 64-bit value
    mov	qword ptr [rbp + 1040], r8                     ; Move 64-bit value
    mov	qword ptr [rbp + 1032], rdx                    ; Move 64-bit value
    movsd	xmm0, qword ptr [rbp + 1120]    # xmm0 = mem[0],zero ; Load 64-bit double
    movsd	xmm1, qword ptr [rip + __real@40b8e20000000000] # xmm1 = [6.37E+3,0.0E+0] ; Load 64-bit double
    divsd	xmm0, xmm1                                   ; Divide two doubles
    movsd	qword ptr [rbp + 1024], xmm0                 ; Load 64-bit double
    mov	rdx, qword ptr [rbp + 1032]                    ; Move 64-bit value
    lea	rcx, [rbp + 1000]
    call	"?normalize@@YA?AUPoint@@AEBU1@@Z"            ; Function call
    mov	rdx, qword ptr [rbp + 1040]                    ; Move 64-bit value
    lea	rcx, [rbp + 976]
    call	"?normalize@@YA?AUPoint@@AEBU1@@Z"            ; Function call
    mov	rdx, qword ptr [rbp + 1048]                    ; Move 64-bit value
    lea	rcx, [rbp + 952]
    call	"?normalize@@YA?AUPoint@@AEBU1@@Z"            ; Function call
    lea	rcx, [rbp + 1000]
    lea	rdx, [rbp + 976]
    call	"?dot@@YAOAEBUPoint@@0@Z"                     ; Function call
    movsd	qword ptr [rbp + 936], xmm0                  ; Load 64-bit double
    movsd	xmm0, qword ptr [rip + __real@3ff0000000000000] # xmm0 = [1.0E+0,0.0E+0] ; Load 64-bit double
    movsd	qword ptr [rbp + 928], xmm0                  ; Load 64-bit double
    lea	rcx, [rbp + 928]
    lea	rdx, [rbp + 936]
    call	"??$min@O@std@@YAAEBOAEBO0@Z"                 ; Function call
    mov	rdx, rax
    movsd	xmm0, qword ptr [rip + __real@bff0000000000000] # xmm0 = [-1.0E+0,0.0E+0] ; Load 64-bit double
    movsd	qword ptr [rbp + 920], xmm0                  ; Load 64-bit double
    lea	rcx, [rbp + 920]
    call	"??$max@O@std@@YAAEBOAEBO0@Z"                 ; Function call
    movsd	xmm0, qword ptr [rax]           # xmm0 = mem[0],zero ; Load 64-bit double
    call	"?acos@@YAOO@Z"                               ; Function call
    movsd	qword ptr [rbp + 944], xmm0                  ; Load 64-bit double
    movsd	xmm0, qword ptr [rip + __real@3e112e0be826d695] # xmm0 = [1.0000000000000001E-9,0.0E+0] ; Load 64-bit double
    ucomisd	xmm0, qword ptr [rbp + 944]
    jbe	.LBB25_4                                       ; Jump instruction
# %bb.1:
    mov	rdx, qword ptr [rbp + 1048]                    ; Move 64-bit value
    mov	rcx, qword ptr [rbp + 1032]                    ; Move 64-bit value
    call	"?dist_xyz@@YAOAEBUPoint@@0@Z"                ; Function call
    movaps	xmm1, xmm0
    movsd	xmm0, qword ptr [rip + __real@3e112e0be826d695] # xmm0 = [1.0000000000000001E-9,0.0E+0] ; Load 64-bit double
    addsd	xmm0, qword ptr [rbp + 1120]                 ; Add two doubles
    ucomisd	xmm0, xmm1
    jb	.LBB25_3                                        ; Jump instruction
# %bb.2:
    xorps	xmm0, xmm0
    movsd	qword ptr [rbp + 880], xmm0                  ; Load 64-bit double
    movsd	xmm0, qword ptr [rip + __real@3ff0000000000000] # xmm0 = [1.0E+0,0.0E+0] ; Load 64-bit double
    movsd	qword ptr [rbp + 872], xmm0                  ; Load 64-bit double
    lea	rcx, [rbp + 888]
    lea	rdx, [rbp + 880]
    lea	r8, [rbp + 872]
    call	"??$?0NN$0A@@?$pair@OO@std@@QEAA@$$QEAN0@Z"   ; Function call
    lea	rax, [rbp + 888]
    mov	qword ptr [rbp + 904], rax                     ; Move 64-bit value
    lea	rax, [rbp + 888]
    add	rax, 16
    mov	qword ptr [rbp + 912], rax                     ; Move 64-bit value
    lea	rcx, [rbp + 871]
    call	"??0?$allocator@U?$pair@OO@std@@@std@@QEAA@XZ" ; Function call
    mov	rcx, qword ptr [rbp + 24]       # 8-byte Reload ; Move 64-bit value
    lea	rdx, [rbp + 904]
    lea	r8, [rbp + 871]
    call	"??0?$vector@U?$pair@OO@std@@V?$allocator@U?$pair@OO@std@@@2@@std@@QEAA@V?$initializer_list@U?$pair@OO@std@@@1@AEBV?$allocator@U?$pair@OO@std@@@1@@Z" ; Function call
    jmp	.LBB25_44                                      ; Jump instruction
    .LBB25_3:
    mov	rcx, qword ptr [rbp + 24]       # 8-byte Reload ; Move 64-bit value
    call	"??0?$vector@U?$pair@OO@std@@V?$allocator@U?$pair@OO@std@@@2@@std@@QEAA@XZ" ; Function call
    jmp	.LBB25_44                                      ; Jump instruction
    .LBB25_4:
    lea	rcx, [rbp + 816]
    mov	qword ptr [rbp - 24], rcx       # 8-byte Spill ; Move 64-bit value
    lea	rdx, [rbp + 1000]
    lea	r8, [rbp + 976]
    call	"?cross@@YA?AUPoint@@AEBU1@0@Z"               ; Function call
    mov	rdx, qword ptr [rbp - 24]       # 8-byte Reload ; Move 64-bit value
    lea	rcx, [rbp + 840]
    mov	qword ptr [rbp + 8], rcx        # 8-byte Spill ; Move 64-bit value
    call	"?normalize@@YA?AUPoint@@AEBU1@@Z"            ; Function call
    mov	rdx, qword ptr [rbp + 8]        # 8-byte Reload ; Move 64-bit value
    lea	rcx, [rbp + 952]
    mov	qword ptr [rbp], rcx            # 8-byte Spill ; Move 64-bit value
    call	"?dot@@YAOAEBUPoint@@0@Z"                     ; Function call
    mov	rdx, qword ptr [rbp + 8]        # 8-byte Reload ; Move 64-bit value
    movaps	xmm2, xmm0
    lea	rcx, [rbp + 760]
    mov	qword ptr [rbp - 16], rcx       # 8-byte Spill ; Move 64-bit value
    call	"??D@YA?AUPoint@@AEBU0@O@Z"                   ; Function call
    mov	r8, qword ptr [rbp - 16]        # 8-byte Reload ; Move 64-bit value
    mov	rdx, qword ptr [rbp]            # 8-byte Reload ; Move 64-bit value
    lea	rcx, [rbp + 784]
    mov	qword ptr [rbp - 8], rcx        # 8-byte Spill ; Move 64-bit value
    call	"subtract_two_points"                         ; Function call
    mov	rdx, qword ptr [rbp - 8]        # 8-byte Reload ; Move 64-bit value
    lea	rcx, [rbp + 736]
    call	"?normalize@@YA?AUPoint@@AEBU1@@Z"            ; Function call
    mov	rcx, qword ptr [rbp]            # 8-byte Reload ; Move 64-bit value
    mov	rdx, qword ptr [rbp + 8]        # 8-byte Reload ; Move 64-bit value
    mov	rax, qword ptr [rbp + 752]                     ; Move 64-bit value
    mov	qword ptr [rbp + 800], rax                     ; Move 64-bit value
    movups	xmm0, xmmword ptr [rbp + 736]
    movaps	xmmword ptr [rbp + 784], xmm0
    call	"?dot@@YAOAEBUPoint@@0@Z"                     ; Function call
    call	"?abs@@YAOO@Z"                                ; Function call
    movsd	qword ptr [rbp + 720], xmm0                  ; Load 64-bit double
    movabs	rax, 4607182418800017408
    mov	qword ptr [rbp + 712], rax                     ; Move 64-bit value
    lea	rcx, [rbp + 712]
    lea	rdx, [rbp + 720]
    call	"??$min@O@std@@YAAEBOAEBO0@Z"                 ; Function call
    mov	rdx, rax
    movabs	rax, -4616189618054758400
    mov	qword ptr [rbp + 704], rax                     ; Move 64-bit value
    lea	rcx, [rbp + 704]
    call	"??$max@O@std@@YAAEBOAEBO0@Z"                 ; Function call
    movsd	xmm0, qword ptr [rax]           # xmm0 = mem[0],zero ; Load 64-bit double
    call	"?acos@@YAOO@Z"                               ; Function call
    movsd	qword ptr [rbp + 728], xmm0                  ; Load 64-bit double
    lea	rcx, [rbp + 680]
    mov	qword ptr [rbp + 16], rcx       # 8-byte Spill ; Move 64-bit value
    call	"??0?$vector@OV?$allocator@O@std@@@std@@QEAA@XZ" ; Function call
    mov	rcx, qword ptr [rbp + 16]       # 8-byte Reload ; Move 64-bit value
    mov	qword ptr [rbp + 672], 0                       ; Move 64-bit value
    .Ltmp4:
    lea	rdx, [rbp + 672]
    call	"?push_back@?$vector@OV?$allocator@O@std@@@std@@QEAAX$$QEAO@Z" ; Push to stack
    .Ltmp5:
    jmp	.LBB25_5                                       ; Jump instruction
    .LBB25_5:
    movabs	rax, 4607182418800017408
    mov	qword ptr [rbp + 664], rax                     ; Move 64-bit value
    .Ltmp6:
    lea	rcx, [rbp + 680]
    lea	rdx, [rbp + 664]
    call	"?push_back@?$vector@OV?$allocator@O@std@@@std@@QEAAX$$QEAO@Z" ; Push to stack
    .Ltmp7:
    jmp	.LBB25_6                                       ; Jump instruction
    .LBB25_6:
    movsd	xmm1, qword ptr [rbp + 728]     # xmm1 = mem[0],zero ; Load 64-bit double
    movsd	xmm0, qword ptr [rip + __real@3e112e0be826d695] # xmm0 = [1.0000000000000001E-9,0.0E+0] ; Load 64-bit double
    addsd	xmm0, qword ptr [rbp + 1024]                 ; Add two doubles
    ucomisd	xmm0, xmm1
    jb	.LBB25_24                                       ; Jump instruction
# %bb.7:
    movsd	xmm0, qword ptr [rbp + 728]     # xmm0 = mem[0],zero ; Load 64-bit double
    subsd	xmm0, qword ptr [rbp + 1024]                 ; Subtract two doubles
    call	"?abs@@YAOO@Z"                                ; Function call
    movaps	xmm1, xmm0
    movsd	xmm0, qword ptr [rip + __real@3e112e0be826d695] # xmm0 = [1.0000000000000001E-9,0.0E+0] ; Load 64-bit double
    ucomisd	xmm0, xmm1
    jbe	.LBB25_9                                       ; Jump instruction
# %bb.8:
    xorps	xmm0, xmm0
    movsd	qword ptr [rbp + 656], xmm0                  ; Load 64-bit double
    jmp	.LBB25_23                                      ; Jump instruction
    .LBB25_9:
    movsd	xmm0, qword ptr [rbp + 1024]    # xmm0 = mem[0],zero ; Load 64-bit double
    call	"?cos@@YAOO@Z"                                ; Function call
    movsd	qword ptr [rbp - 32], xmm0      # 8-byte Spill ; Load 64-bit double
    movsd	xmm0, qword ptr [rbp + 728]     # xmm0 = mem[0],zero ; Load 64-bit double
    call	"?cos@@YAOO@Z"                                ; Function call
    movaps	xmm1, xmm0
    movsd	xmm0, qword ptr [rbp - 32]      # 8-byte Reload ; Load 64-bit double
# xmm0 = mem[0],zero
    divsd	xmm0, xmm1                                   ; Divide two doubles
    movsd	qword ptr [rbp + 648], xmm0                  ; Load 64-bit double
    movsd	xmm0, qword ptr [rbp + 648]     # xmm0 = mem[0],zero ; Load 64-bit double
    movsd	xmm1, qword ptr [rip + __real@bff000000044b830] # xmm1 = [-1.0000000010000001E+0,0.0E+0] ; Load 64-bit double
    ucomisd	xmm0, xmm1
    jb	.LBB25_19                                       ; Jump instruction
# %bb.10:
    movsd	xmm0, qword ptr [rip + __real@3ff000000044b830] # xmm0 = [1.0000000010000001E+0,0.0E+0] ; Load 64-bit double
    ucomisd	xmm0, qword ptr [rbp + 648]
    jb	.LBB25_19                                       ; Jump instruction
# %bb.11:
    movsd	xmm0, qword ptr [rip + __real@3ff0000000000000] # xmm0 = [1.0E+0,0.0E+0] ; Load 64-bit double
    movsd	qword ptr [rbp + 640], xmm0                  ; Load 64-bit double
    lea	rcx, [rbp + 640]
    lea	rdx, [rbp + 648]
    call	"??$min@O@std@@YAAEBOAEBO0@Z"                 ; Function call
    mov	rdx, rax
    movsd	xmm0, qword ptr [rip + __real@bff0000000000000] # xmm0 = [-1.0E+0,0.0E+0] ; Load 64-bit double
    movsd	qword ptr [rbp + 632], xmm0                  ; Load 64-bit double
    lea	rcx, [rbp + 632]
    call	"??$max@O@std@@YAAEBOAEBO0@Z"                 ; Function call
    movsd	xmm0, qword ptr [rax]           # xmm0 = mem[0],zero ; Load 64-bit double
    call	"?acos@@YAOO@Z"                               ; Function call
    movsd	qword ptr [rbp + 656], xmm0                  ; Load 64-bit double
    lea	rcx, [rbp + 584]
    lea	rdx, [rbp + 840]
    lea	r8, [rbp + 784]
    call	"?cross@@YA?AUPoint@@AEBU1@0@Z"               ; Function call
    lea	rcx, [rbp + 608]
    lea	rdx, [rbp + 584]
    call	"?normalize@@YA?AUPoint@@AEBU1@@Z"            ; Function call
    movsd	xmm0, qword ptr [rbp + 656]     # xmm0 = mem[0],zero ; Load 64-bit double
    call	"?sin@@YAOO@Z"                                ; Function call
    movaps	xmm2, xmm0
    lea	rcx, [rbp + 536]
    lea	rdx, [rbp + 608]
    call	"??D@YA?AUPoint@@AEBU0@O@Z"                   ; Function call
    movsd	xmm0, qword ptr [rbp + 656]     # xmm0 = mem[0],zero ; Load 64-bit double
    call	"?cos@@YAOO@Z"                                ; Function call
    movaps	xmm2, xmm0
    lea	rcx, [rbp + 512]
    lea	rdx, [rbp + 784]
    call	"??D@YA?AUPoint@@AEBU0@O@Z"                   ; Function call
    lea	rcx, [rbp + 560]
    lea	rdx, [rbp + 512]
    lea	r8, [rbp + 536]
    call	"add_two_points"                              ; Function call
    movsd	xmm0, qword ptr [rbp + 656]     # xmm0 = mem[0],zero ; Load 64-bit double
    call	"?sin@@YAOO@Z"                                ; Function call
    movaps	xmm2, xmm0
    lea	rcx, [rbp + 464]
    lea	rdx, [rbp + 608]
    call	"??D@YA?AUPoint@@AEBU0@O@Z"                   ; Function call
    movsd	xmm0, qword ptr [rbp + 656]     # xmm0 = mem[0],zero ; Load 64-bit double
    call	"?cos@@YAOO@Z"                                ; Function call
    movaps	xmm2, xmm0
    lea	rcx, [rbp + 440]
    lea	rdx, [rbp + 784]
    call	"??D@YA?AUPoint@@AEBU0@O@Z"                   ; Function call
    lea	rcx, [rbp + 488]
    lea	rdx, [rbp + 440]
    lea	r8, [rbp + 464]
    call	"subtract_two_points"                         ; Function call
    movsd	xmm0, qword ptr [rip + __real@40b8e20000000000] # xmm0 = [6.37E+3,0.0E+0] ; Load 64-bit double
    mulsd	xmm0, qword ptr [rbp + 560]                  ; Multiply two doubles
    movsd	qword ptr [rbp + 416], xmm0                  ; Load 64-bit double
    movsd	xmm0, qword ptr [rip + __real@40b8e20000000000] # xmm0 = [6.37E+3,0.0E+0] ; Load 64-bit double
    mulsd	xmm0, qword ptr [rbp + 568]                  ; Multiply two doubles
    movsd	qword ptr [rbp + 424], xmm0                  ; Load 64-bit double
    movsd	xmm0, qword ptr [rip + __real@40b8e20000000000] # xmm0 = [6.37E+3,0.0E+0] ; Load 64-bit double
    mulsd	xmm0, qword ptr [rbp + 576]                  ; Multiply two doubles
    movsd	qword ptr [rbp + 432], xmm0                  ; Load 64-bit double
    movsd	xmm0, qword ptr [rip + __real@40b8e20000000000] # xmm0 = [6.37E+3,0.0E+0] ; Load 64-bit double
    mulsd	xmm0, qword ptr [rbp + 488]                  ; Multiply two doubles
    movsd	qword ptr [rbp + 392], xmm0                  ; Load 64-bit double
    movsd	xmm0, qword ptr [rip + __real@40b8e20000000000] # xmm0 = [6.37E+3,0.0E+0] ; Load 64-bit double
    mulsd	xmm0, qword ptr [rbp + 496]                  ; Multiply two doubles
    movsd	qword ptr [rbp + 400], xmm0                  ; Load 64-bit double
    movsd	xmm0, qword ptr [rip + __real@40b8e20000000000] # xmm0 = [6.37E+3,0.0E+0] ; Load 64-bit double
    mulsd	xmm0, qword ptr [rbp + 504]                  ; Multiply two doubles
    movsd	qword ptr [rbp + 408], xmm0                  ; Load 64-bit double
    mov	rdx, qword ptr [rbp + 1040]                    ; Move 64-bit value
    mov	rcx, qword ptr [rbp + 1032]                    ; Move 64-bit value
    lea	r8, [rbp + 416]
    call	"?is_on_arc@@YA_NAEBUPoint@@00@Z"             ; Function call
    test	al, 1                                         ; Test values
    jne	.LBB25_12                                      ; Jump instruction
    jmp	.LBB25_14                                      ; Jump instruction
    .LBB25_12:
    mov	rdx, qword ptr [rbp + 1040]                    ; Move 64-bit value
    mov	rcx, qword ptr [rbp + 1032]                    ; Move 64-bit value
    lea	r8, [rbp + 416]
    call	"?get_arc_parameter@@YAOAEBUPoint@@00@Z"      ; Function call
    movsd	qword ptr [rbp + 384], xmm0                  ; Load 64-bit double
    .Ltmp12:
    lea	rcx, [rbp + 680]
    lea	rdx, [rbp + 384]
    call	"?push_back@?$vector@OV?$allocator@O@std@@@std@@QEAAX$$QEAO@Z" ; Push to stack
    .Ltmp13:
    jmp	.LBB25_13                                      ; Jump instruction
    .LBB25_13:
    jmp	.LBB25_14                                      ; Jump instruction
    .LBB25_14:
    movsd	xmm0, qword ptr [rbp + 656]     # xmm0 = mem[0],zero ; Load 64-bit double
    movsd	xmm1, qword ptr [rip + __real@3e112e0be826d695] # xmm1 = [1.0000000000000001E-9,0.0E+0] ; Load 64-bit double
    ucomisd	xmm0, xmm1
    jbe	.LBB25_18                                      ; Jump instruction
# %bb.15:
    mov	rdx, qword ptr [rbp + 1040]                    ; Move 64-bit value
    mov	rcx, qword ptr [rbp + 1032]                    ; Move 64-bit value
    lea	r8, [rbp + 392]
    call	"?is_on_arc@@YA_NAEBUPoint@@00@Z"             ; Function call
    test	al, 1                                         ; Test values
    jne	.LBB25_16                                      ; Jump instruction
    jmp	.LBB25_18                                      ; Jump instruction
    .LBB25_16:
    mov	rdx, qword ptr [rbp + 1040]                    ; Move 64-bit value
    mov	rcx, qword ptr [rbp + 1032]                    ; Move 64-bit value
    lea	r8, [rbp + 392]
    call	"?get_arc_parameter@@YAOAEBUPoint@@00@Z"      ; Function call
    movsd	qword ptr [rbp + 376], xmm0                  ; Load 64-bit double
    .Ltmp14:
    lea	rcx, [rbp + 680]
    lea	rdx, [rbp + 376]
    call	"?push_back@?$vector@OV?$allocator@O@std@@@std@@QEAAX$$QEAO@Z" ; Push to stack
    .Ltmp15:
    jmp	.LBB25_17                                      ; Jump instruction
    .LBB25_17:
    jmp	.LBB25_18                                      ; Jump instruction
    .LBB25_18:
    jmp	.LBB25_23                                      ; Jump instruction
    .LBB25_19:
    movsd	xmm0, qword ptr [rbp + 944]     # xmm0 = mem[0],zero ; Load 64-bit double
    movsd	xmm1, qword ptr [rip + __real@4000000000000000] # xmm1 = [2.0E+0,0.0E+0] ; Load 64-bit double
    divsd	xmm0, xmm1                                   ; Divide two doubles
    movsd	qword ptr [rbp + 368], xmm0                  ; Load 64-bit double
    movsd	xmm3, qword ptr [rbp + 368]     # xmm3 = mem[0],zero ; Load 64-bit double
    mov	r8, qword ptr [rbp + 1040]                     ; Move 64-bit value
    mov	rdx, qword ptr [rbp + 1032]                    ; Move 64-bit value
    lea	rcx, [rbp + 344]
    call	"?point_at_angle_on_great_circle@@YA?AUPoint@@AEBU1@0O@Z" ; Function call
    mov	rdx, qword ptr [rbp + 1048]                    ; Move 64-bit value
    lea	rcx, [rbp + 344]
    call	"?dist_xyz@@YAOAEBUPoint@@0@Z"                ; Function call
    movaps	xmm1, xmm0
    movsd	xmm0, qword ptr [rip + __real@3e112e0be826d695] # xmm0 = [1.0000000000000001E-9,0.0E+0] ; Load 64-bit double
    addsd	xmm0, qword ptr [rbp + 1120]                 ; Add two doubles
    ucomisd	xmm0, xmm1
    jb	.LBB25_22                                       ; Jump instruction
# %bb.20:
    mov	qword ptr [rbp + 304], 0                       ; Move 64-bit value
    movabs	rax, 4607182418800017408
    mov	qword ptr [rbp + 296], rax                     ; Move 64-bit value
    lea	rcx, [rbp + 312]
    mov	qword ptr [rbp - 48], rcx       # 8-byte Spill ; Move 64-bit value
    lea	rdx, [rbp + 304]
    lea	r8, [rbp + 296]
    call	"??$?0NN$0A@@?$pair@OO@std@@QEAA@$$QEAN0@Z"   ; Function call
# kill: def $rcx killed $rax
    mov	rax, qword ptr [rbp - 48]       # 8-byte Reload ; Move 64-bit value
    mov	qword ptr [rbp + 328], rax                     ; Move 64-bit value
    lea	rax, [rbp + 328]
    mov	qword ptr [rbp + 336], rax                     ; Move 64-bit value
    lea	rcx, [rbp + 295]
    mov	qword ptr [rbp - 40], rcx       # 8-byte Spill ; Move 64-bit value
    call	"??0?$allocator@U?$pair@OO@std@@@std@@QEAA@XZ" ; Function call
    mov	rcx, qword ptr [rbp + 24]       # 8-byte Reload ; Move 64-bit value
    mov	r8, qword ptr [rbp - 40]        # 8-byte Reload ; Move 64-bit value
    .Ltmp10:
    lea	rdx, [rbp + 328]
    call	"??0?$vector@U?$pair@OO@std@@V?$allocator@U?$pair@OO@std@@@2@@std@@QEAA@V?$initializer_list@U?$pair@OO@std@@@1@AEBV?$allocator@U?$pair@OO@std@@@1@@Z" ; Function call
    .Ltmp11:
    jmp	.LBB25_21                                      ; Jump instruction
    .LBB25_21:
    mov	dword ptr [rbp + 288], 1                       ; Move 32-bit value
    jmp	.LBB25_42                                      ; Jump instruction
    .LBB25_22:
    mov	rcx, qword ptr [rbp + 24]       # 8-byte Reload ; Move 64-bit value
    call	"??0?$vector@U?$pair@OO@std@@V?$allocator@U?$pair@OO@std@@@2@@std@@QEAA@XZ" ; Function call
    mov	dword ptr [rbp + 288], 1                       ; Move 32-bit value
    jmp	.LBB25_42                                      ; Jump instruction
    .LBB25_23:
    lea	rcx, [rbp + 680]
    mov	qword ptr [rbp - 56], rcx       # 8-byte Spill ; Move 64-bit value
    lea	rdx, [rbp + 192]
    call	"?end@?$vector@OV?$allocator@O@std@@@std@@QEAA?AV?$_Vector_iterator@V?$_Vector_val@U?$_Simple_types@O@std@@@std@@@2@XZ" ; Function call
    mov	rcx, qword ptr [rbp - 56]       # 8-byte Reload ; Move 64-bit value
    lea	rdx, [rbp + 184]
    call	"?begin@?$vector@OV?$allocator@O@std@@@std@@QEAA?AV?$_Vector_iterator@V?$_Vector_val@U?$_Simple_types@O@std@@@std@@@2@XZ" ; Function call
    mov	rcx, qword ptr [rbp + 184]                     ; Move 64-bit value
    mov	rdx, qword ptr [rbp + 192]                     ; Move 64-bit value
    .Ltmp16:
    call	"??$sort@V?$_Vector_iterator@V?$_Vector_val@U?$_Simple_types@O@std@@@std@@@std@@@std@@YAXV?$_Vector_iterator@V?$_Vector_val@U?$_Simple_types@O@std@@@std@@@0@0@Z" ; Function call
    .Ltmp17:
    jmp	.LBB25_28                                      ; Jump instruction
    .LBB25_24:
    movsd	xmm0, qword ptr [rbp + 944]     # xmm0 = mem[0],zero ; Load 64-bit double
    movsd	xmm1, qword ptr [rip + __real@4000000000000000] # xmm1 = [2.0E+0,0.0E+0] ; Load 64-bit double
    divsd	xmm0, xmm1                                   ; Divide two doubles
    movsd	qword ptr [rbp + 280], xmm0                  ; Load 64-bit double
    movsd	xmm3, qword ptr [rbp + 280]     # xmm3 = mem[0],zero ; Load 64-bit double
    mov	r8, qword ptr [rbp + 1040]                     ; Move 64-bit value
    mov	rdx, qword ptr [rbp + 1032]                    ; Move 64-bit value
    lea	rcx, [rbp + 256]
    call	"?point_at_angle_on_great_circle@@YA?AUPoint@@AEBU1@0O@Z" ; Function call
    mov	rdx, qword ptr [rbp + 1048]                    ; Move 64-bit value
    lea	rcx, [rbp + 256]
    call	"?dist_xyz@@YAOAEBUPoint@@0@Z"                ; Function call
    movaps	xmm1, xmm0
    movsd	xmm0, qword ptr [rip + __real@3e112e0be826d695] # xmm0 = [1.0000000000000001E-9,0.0E+0] ; Load 64-bit double
    addsd	xmm0, qword ptr [rbp + 1120]                 ; Add two doubles
    ucomisd	xmm0, xmm1
    jb	.LBB25_27                                       ; Jump instruction
# %bb.25:
    mov	qword ptr [rbp + 216], 0                       ; Move 64-bit value
    movabs	rax, 4607182418800017408
    mov	qword ptr [rbp + 208], rax                     ; Move 64-bit value
    lea	rcx, [rbp + 224]
    mov	qword ptr [rbp - 72], rcx       # 8-byte Spill ; Move 64-bit value
    lea	rdx, [rbp + 216]
    lea	r8, [rbp + 208]
    call	"??$?0NN$0A@@?$pair@OO@std@@QEAA@$$QEAN0@Z"   ; Function call
# kill: def $rcx killed $rax
    mov	rax, qword ptr [rbp - 72]       # 8-byte Reload ; Move 64-bit value
    mov	qword ptr [rbp + 240], rax                     ; Move 64-bit value
    lea	rax, [rbp + 240]
    mov	qword ptr [rbp + 248], rax                     ; Move 64-bit value
    lea	rcx, [rbp + 207]
    mov	qword ptr [rbp - 64], rcx       # 8-byte Spill ; Move 64-bit value
    call	"??0?$allocator@U?$pair@OO@std@@@std@@QEAA@XZ" ; Function call
    mov	rcx, qword ptr [rbp + 24]       # 8-byte Reload ; Move 64-bit value
    mov	r8, qword ptr [rbp - 64]        # 8-byte Reload ; Move 64-bit value
    .Ltmp8:
    lea	rdx, [rbp + 240]
    call	"??0?$vector@U?$pair@OO@std@@V?$allocator@U?$pair@OO@std@@@2@@std@@QEAA@V?$initializer_list@U?$pair@OO@std@@@1@AEBV?$allocator@U?$pair@OO@std@@@1@@Z" ; Function call
    .Ltmp9:
    jmp	.LBB25_26                                      ; Jump instruction
    .LBB25_26:
    mov	dword ptr [rbp + 288], 1                       ; Move 32-bit value
    jmp	.LBB25_42                                      ; Jump instruction
    .LBB25_27:
    mov	rcx, qword ptr [rbp + 24]       # 8-byte Reload ; Move 64-bit value
    call	"??0?$vector@U?$pair@OO@std@@V?$allocator@U?$pair@OO@std@@@2@@std@@QEAA@XZ" ; Function call
    mov	dword ptr [rbp + 288], 1                       ; Move 32-bit value
    jmp	.LBB25_42                                      ; Jump instruction
    .LBB25_28:
    lea	rcx, [rbp + 680]
    mov	qword ptr [rbp - 80], rcx       # 8-byte Spill ; Move 64-bit value
    lea	rdx, [rbp + 168]
    call	"?end@?$vector@OV?$allocator@O@std@@@std@@QEAA?AV?$_Vector_iterator@V?$_Vector_val@U?$_Simple_types@O@std@@@std@@@2@XZ" ; Function call
    mov	rcx, qword ptr [rbp - 80]       # 8-byte Reload ; Move 64-bit value
    mov	rax, qword ptr [rbp + 168]                     ; Move 64-bit value
    mov	qword ptr [rbp + 176], rax                     ; Move 64-bit value
    lea	rdx, [rbp + 136]
    call	"?end@?$vector@OV?$allocator@O@std@@@std@@QEAA?AV?$_Vector_iterator@V?$_Vector_val@U?$_Simple_types@O@std@@@std@@@2@XZ" ; Function call
    mov	rcx, qword ptr [rbp - 80]       # 8-byte Reload ; Move 64-bit value
    lea	rdx, [rbp + 128]
    call	"?begin@?$vector@OV?$allocator@O@std@@@std@@QEAA?AV?$_Vector_iterator@V?$_Vector_val@U?$_Simple_types@O@std@@@std@@@2@XZ" ; Function call
    mov	rdx, qword ptr [rbp + 128]                     ; Move 64-bit value
    mov	r8, qword ptr [rbp + 136]                      ; Move 64-bit value
    mov	r9b, byte ptr [rbp + 151]
    .Ltmp18:
    lea	rcx, [rbp + 152]
    call	"??$unique@V?$_Vector_iterator@V?$_Vector_val@U?$_Simple_types@O@std@@@std@@@std@@V<lambda_0>@?0??get_covered_intervals@@YA?AV?$vector@U?$pair@OO@std@@V?$allocator@U?$pair@OO@std@@@2@@2@AEBUPoint@@00O@Z@@std@@YA?AV?$_Vector_iterator@V?$_Vector_val@U?$_Simple_types@O@std@@@std@@@0@V10@0V<lambda_0>@?0??get_covered_intervals@@YA?AV?$vector@U?$pair@OO@std@@V?$allocator@U?$pair@OO@std@@@2@@0@AEBUPoint@@11O@Z@@Z" ; Function call
    .Ltmp19:
    jmp	.LBB25_29                                      ; Jump instruction
    .LBB25_29:
    mov	rax, qword ptr [rbp + 152]                     ; Move 64-bit value
    mov	qword ptr [rbp + 160], rax                     ; Move 64-bit value
    mov	r8, qword ptr [rbp + 160]                      ; Move 64-bit value
    mov	r9, qword ptr [rbp + 176]                      ; Move 64-bit value
    lea	rcx, [rbp + 680]
    lea	rdx, [rbp + 120]
    call	"?erase@?$vector@OV?$allocator@O@std@@@std@@QEAA?AV?$_Vector_iterator@V?$_Vector_val@U?$_Simple_types@O@std@@@std@@@2@V?$_Vector_const_iterator@V?$_Vector_val@U?$_Simple_types@O@std@@@std@@@2@0@Z" ; Function call
    mov	rcx, qword ptr [rbp + 24]       # 8-byte Reload ; Move 64-bit value
    mov	byte ptr [rbp + 119], 0
    call	"??0?$vector@U?$pair@OO@std@@V?$allocator@U?$pair@OO@std@@@2@@std@@QEAA@XZ" ; Function call
    mov	qword ptr [rbp + 104], 0                       ; Move 64-bit value
    .LBB25_30:                              # =>This Inner Loop Header: Depth=1
    mov	rax, qword ptr [rbp + 104]                     ; Move 64-bit value
    add	rax, 1
    mov	qword ptr [rbp - 88], rax       # 8-byte Spill ; Move 64-bit value
    lea	rcx, [rbp + 680]
    call	"?size@?$vector@OV?$allocator@O@std@@@std@@QEBA_KXZ" ; Function call
    mov	rcx, rax
    mov	rax, qword ptr [rbp - 88]       # 8-byte Reload ; Move 64-bit value
    cmp	rax, rcx                                       ; Compare values
    jae	.LBB25_38                                      ; Jump instruction
# %bb.31:                               #   in Loop: Header=BB25_30 Depth=1
    mov	rdx, qword ptr [rbp + 104]                     ; Move 64-bit value
    lea	rcx, [rbp + 680]
    call	"??A?$vector@OV?$allocator@O@std@@@std@@QEAAAEAO_K@Z" ; Function call
    movsd	xmm0, qword ptr [rax]           # xmm0 = mem[0],zero ; Load 64-bit double
    movsd	qword ptr [rbp + 96], xmm0                   ; Load 64-bit double
    mov	rdx, qword ptr [rbp + 104]                     ; Move 64-bit value
    add	rdx, 1
    lea	rcx, [rbp + 680]
    call	"??A?$vector@OV?$allocator@O@std@@@std@@QEAAAEAO_K@Z" ; Function call
    movsd	xmm0, qword ptr [rax]           # xmm0 = mem[0],zero ; Load 64-bit double
    movsd	qword ptr [rbp + 88], xmm0                   ; Load 64-bit double
    movsd	xmm1, qword ptr [rbp + 88]      # xmm1 = mem[0],zero ; Load 64-bit double
    subsd	xmm1, qword ptr [rbp + 96]                   ; Subtract two doubles
    movsd	xmm0, qword ptr [rip + __real@3e112e0be826d695] # xmm0 = [1.0000000000000001E-9,0.0E+0] ; Load 64-bit double
    ucomisd	xmm0, xmm1
    jbe	.LBB25_33                                      ; Jump instruction
# %bb.32:                               #   in Loop: Header=BB25_30 Depth=1
    jmp	.LBB25_37                                      ; Jump instruction
    .LBB25_33:                              #   in Loop: Header=BB25_30 Depth=1
    movsd	xmm0, qword ptr [rbp + 96]      # xmm0 = mem[0],zero ; Load 64-bit double
    addsd	xmm0, qword ptr [rbp + 88]                   ; Add two doubles
    movsd	xmm1, qword ptr [rip + __real@4000000000000000] # xmm1 = [2.0E+0,0.0E+0] ; Load 64-bit double
    divsd	xmm0, xmm1                                   ; Divide two doubles
    movsd	qword ptr [rbp + 80], xmm0                   ; Load 64-bit double
    movsd	xmm3, qword ptr [rbp + 80]      # xmm3 = mem[0],zero ; Load 64-bit double
    mulsd	xmm3, qword ptr [rbp + 944]                  ; Multiply two doubles
    mov	r8, qword ptr [rbp + 1040]                     ; Move 64-bit value
    mov	rdx, qword ptr [rbp + 1032]                    ; Move 64-bit value
    lea	rcx, [rbp + 56]
    call	"?point_at_angle_on_great_circle@@YA?AUPoint@@AEBU1@0O@Z" ; Function call
    mov	rdx, qword ptr [rbp + 1048]                    ; Move 64-bit value
    lea	rcx, [rbp + 56]
    call	"?dist_xyz@@YAOAEBUPoint@@0@Z"                ; Function call
    movaps	xmm1, xmm0
    movsd	xmm0, qword ptr [rip + __real@3e112e0be826d695] # xmm0 = [1.0000000000000001E-9,0.0E+0] ; Load 64-bit double
    addsd	xmm0, qword ptr [rbp + 1120]                 ; Add two doubles
    ucomisd	xmm0, xmm1
    jb	.LBB25_36                                       ; Jump instruction
# %bb.34:                               #   in Loop: Header=BB25_30 Depth=1
    lea	rcx, [rbp + 40]
    mov	qword ptr [rbp - 96], rcx       # 8-byte Spill ; Move 64-bit value
    lea	rdx, [rbp + 96]
    lea	r8, [rbp + 88]
    call	"??$?0AEAOAEAO$0A@@?$pair@OO@std@@QEAA@AEAO0@Z" ; Function call
    mov	rcx, qword ptr [rbp + 24]       # 8-byte Reload ; Move 64-bit value
    mov	rdx, qword ptr [rbp - 96]       # 8-byte Reload ; Move 64-bit value
    .Ltmp20:
    call	"?push_back@?$vector@U?$pair@OO@std@@V?$allocator@U?$pair@OO@std@@@2@@std@@QEAAX$$QEAU?$pair@OO@2@@Z" ; Push to stack
    .Ltmp21:
    jmp	.LBB25_35                                      ; Jump instruction
    .LBB25_35:                              #   in Loop: Header=BB25_30 Depth=1
    jmp	.LBB25_36                                      ; Jump instruction
    .LBB25_36:                              #   in Loop: Header=BB25_30 Depth=1
    jmp	.LBB25_37                                      ; Jump instruction
    .LBB25_37:                              #   in Loop: Header=BB25_30 Depth=1
    mov	rax, qword ptr [rbp + 104]                     ; Move 64-bit value
    add	rax, 1
    mov	qword ptr [rbp + 104], rax                     ; Move 64-bit value
    jmp	.LBB25_30                                      ; Jump instruction
    .LBB25_38:
    mov	byte ptr [rbp + 119], 1
    mov	dword ptr [rbp + 288], 1                       ; Move 32-bit value
    test	byte ptr [rbp + 119], 1                       ; Test values
    jne	.LBB25_40                                      ; Jump instruction
# %bb.39:
    mov	rcx, qword ptr [rbp + 24]       # 8-byte Reload ; Move 64-bit value
    call	"??1?$vector@U?$pair@OO@std@@V?$allocator@U?$pair@OO@std@@@2@@std@@QEAA@XZ" ; Function call
    .LBB25_40:
    jmp	.LBB25_42                                      ; Jump instruction
    .LBB25_42:
    lea	rcx, [rbp + 680]
    call	"??1?$vector@OV?$allocator@O@std@@@std@@QEAA@XZ" ; Function call
    jmp	.LBB25_44                                      ; Jump instruction
    .LBB25_44:
    mov	rax, qword ptr [rbp + 32]       # 8-byte Reload ; Move 64-bit value
    add	rsp, 1200
    pop	rbp                                            ; Pop from stack
    ret                                                ; Return from function
    .seh_handlerdata
    .long	("$cppxdata$?get_covered_intervals@@YA?AV?$vector@U?$pair@OO@std@@V?$allocator@U?$pair@OO@std@@@2@@std@@AEBUPoint@@00O@Z")@IMGREL
    .text
    .seh_endproc
    .p2align	4, 0x90
    "?dtor$41@?0??get_covered_intervals@@YA?AV?$vector@U?$pair@OO@std@@V?$allocator@U?$pair@OO@std@@@2@@std@@AEBUPoint@@00O@Z@4HA":
    .seh_proc "?dtor$41@?0??get_covered_intervals@@YA?AV?$vector@U?$pair@OO@std@@V?$allocator@U?$pair@OO@std@@@2@@std@@AEBUPoint@@00O@Z@4HA"
    .LBB25_41:
    mov	qword ptr [rsp + 16], rdx                      ; Move 64-bit value
    push	rbp                                           ; Push to stack
    .seh_pushreg rbp                                   ; Push to stack
    sub	rsp, 32
    .seh_stackalloc 32
    lea	rbp, [rdx + 128]
    .seh_endprologue
    mov	rcx, qword ptr [rbp + 24]       # 8-byte Reload ; Move 64-bit value
    call	"??1?$vector@U?$pair@OO@std@@V?$allocator@U?$pair@OO@std@@@2@@std@@QEAA@XZ" ; Function call
    nop
    add	rsp, 32
    pop	rbp                                            ; Pop from stack
    ret                                     # CLEANUPRET ; Return from function
    .seh_handlerdata
    .text
    .seh_endproc
    .p2align	4, 0x90
    "?dtor$43@?0??get_covered_intervals@@YA?AV?$vector@U?$pair@OO@std@@V?$allocator@U?$pair@OO@std@@@2@@std@@AEBUPoint@@00O@Z@4HA":
    .seh_proc "?dtor$43@?0??get_covered_intervals@@YA?AV?$vector@U?$pair@OO@std@@V?$allocator@U?$pair@OO@std@@@2@@std@@AEBUPoint@@00O@Z@4HA"
    .LBB25_43:
    mov	qword ptr [rsp + 16], rdx                      ; Move 64-bit value
    push	rbp                                           ; Push to stack
    .seh_pushreg rbp                                   ; Push to stack
    sub	rsp, 32
    .seh_stackalloc 32
    lea	rbp, [rdx + 128]
    .seh_endprologue
    lea	rcx, [rbp + 680]
    call	"??1?$vector@OV?$allocator@O@std@@@std@@QEAA@XZ" ; Function call
    nop
    add	rsp, 32
    pop	rbp                                            ; Pop from stack
    ret                                     # CLEANUPRET ; Return from function
    .Lfunc_end1:
    .seh_handlerdata
    .text
    .seh_endproc
    .section	.xdata,"dr"
    .p2align	2, 0x0
    "$cppxdata$?get_covered_intervals@@YA?AV?$vector@U?$pair@OO@std@@V?$allocator@U?$pair@OO@std@@@2@@std@@AEBUPoint@@00O@Z":
    .long	429065506                       # MagicNumber
    .long	2                               # MaxState
    .long	("$stateUnwindMap$?get_covered_intervals@@YA?AV?$vector@U?$pair@OO@std@@V?$allocator@U?$pair@OO@std@@@2@@std@@AEBUPoint@@00O@Z")@IMGREL # UnwindMap
    .long	0                               # NumTryBlocks
    .long	0                               # TryBlockMap
    .long	4                               # IPMapEntries
    .long	("$ip2state$?get_covered_intervals@@YA?AV?$vector@U?$pair@OO@std@@V?$allocator@U?$pair@OO@std@@@2@@std@@AEBUPoint@@00O@Z")@IMGREL # IPToStateXData
    .long	1192                            # UnwindHelp
    .long	0                               # ESTypeList
    .long	1                               # EHFlags
    "$stateUnwindMap$?get_covered_intervals@@YA?AV?$vector@U?$pair@OO@std@@V?$allocator@U?$pair@OO@std@@@2@@std@@AEBUPoint@@00O@Z":
    .long	-1                              # ToState
    .long	"?dtor$43@?0??get_covered_intervals@@YA?AV?$vector@U?$pair@OO@std@@V?$allocator@U?$pair@OO@std@@@2@@std@@AEBUPoint@@00O@Z@4HA"@IMGREL # Action
    .long	0                               # ToState
    .long	"?dtor$41@?0??get_covered_intervals@@YA?AV?$vector@U?$pair@OO@std@@V?$allocator@U?$pair@OO@std@@@2@@std@@AEBUPoint@@00O@Z@4HA"@IMGREL # Action
    "$ip2state$?get_covered_intervals@@YA?AV?$vector@U?$pair@OO@std@@V?$allocator@U?$pair@OO@std@@@2@@std@@AEBUPoint@@00O@Z":
    .long	.Lfunc_begin1@IMGREL            # IP
    .long	-1                              # ToState
    .long	.Ltmp4@IMGREL+1                 # IP
    .long	0                               # ToState
    .long	.Ltmp20@IMGREL+1                # IP
    .long	1                               # ToState
    .long	.Ltmp21@IMGREL+1                # IP
    .long	-1                              # ToState
    .text
    .section	.text,"xr",discard,"??$?0NN$0A@@?$pair@OO@std@@QEAA@$$QEAN0@Z"
.globl	"??$?0NN$0A@@?$pair@OO@std@@QEAA@$$QEAN0@Z" # -- Begin function ??$?0NN$0A@@?$pair@OO@std@@QEAA@$$QEAN0@Z
    .p2align	4, 0x90
    "??$?0NN$0A@@?$pair@OO@std@@QEAA@$$QEAN0@Z": # @"??$?0NN$0A@@?$pair@OO@std@@QEAA@$$QEAN0@Z"
    .seh_proc "??$?0NN$0A@@?$pair@OO@std@@QEAA@$$QEAN0@Z"
# %bb.0:
    sub	rsp, 24
    .seh_stackalloc 24
    .seh_endprologue
    mov	qword ptr [rsp + 16], r8                       ; Move 64-bit value
    mov	qword ptr [rsp + 8], rdx                       ; Move 64-bit value
    mov	qword ptr [rsp], rcx                           ; Move 64-bit value
    mov	rax, qword ptr [rsp]                           ; Move 64-bit value
    mov	rcx, qword ptr [rsp + 8]                       ; Move 64-bit value
    movsd	xmm0, qword ptr [rcx]           # xmm0 = mem[0],zero ; Load 64-bit double
    movsd	qword ptr [rax], xmm0                        ; Load 64-bit double
    mov	rcx, qword ptr [rsp + 16]                      ; Move 64-bit value
    movsd	xmm0, qword ptr [rcx]           # xmm0 = mem[0],zero ; Load 64-bit double
    movsd	qword ptr [rax + 8], xmm0                    ; Load 64-bit double
    add	rsp, 24
    ret                                                ; Return from function
    .seh_endproc
    .section	.text,"xr",discard,"??0?$allocator@U?$pair@OO@std@@@std@@QEAA@XZ"
.globl	"??0?$allocator@U?$pair@OO@std@@@std@@QEAA@XZ" # -- Begin function ??0?$allocator@U?$pair@OO@std@@@std@@QEAA@XZ
    .p2align	4, 0x90
    "??0?$allocator@U?$pair@OO@std@@@std@@QEAA@XZ": # @"??0?$allocator@U?$pair@OO@std@@@std@@QEAA@XZ"
    .seh_proc "??0?$allocator@U?$pair@OO@std@@@std@@QEAA@XZ"
# %bb.0:
    push	rax                                           ; Push to stack
    .seh_stackalloc 8
    .seh_endprologue
    mov	qword ptr [rsp], rcx                           ; Move 64-bit value
    mov	rax, qword ptr [rsp]                           ; Move 64-bit value
    pop	rcx                                            ; Pop from stack
    ret                                                ; Return from function
    .seh_endproc
    .section	.text,"xr",discard,"??0?$vector@U?$pair@OO@std@@V?$allocator@U?$pair@OO@std@@@2@@std@@QEAA@V?$initializer_list@U?$pair@OO@std@@@1@AEBV?$allocator@U?$pair@OO@std@@@1@@Z"
.globl	"??0?$vector@U?$pair@OO@std@@V?$allocator@U?$pair@OO@std@@@2@@std@@QEAA@V?$initializer_list@U?$pair@OO@std@@@1@AEBV?$allocator@U?$pair@OO@std@@@1@@Z" # -- Begin function ??0?$vector@U?$pair@OO@std@@V?$allocator@U?$pair@OO@std@@@2@@std@@QEAA@V?$initializer_list@U?$pair@OO@std@@@1@AEBV?$allocator@U?$pair@OO@std@@@1@@Z
    .p2align	4, 0x90
    "??0?$vector@U?$pair@OO@std@@V?$allocator@U?$pair@OO@std@@@2@@std@@QEAA@V?$initializer_list@U?$pair@OO@std@@@1@AEBV?$allocator@U?$pair@OO@std@@@1@@Z": # @"??0?$vector@U?$pair@OO@std@@V?$allocator@U?$pair@OO@std@@@2@@std@@QEAA@V?$initializer_list@U?$pair@OO@std@@@1@AEBV?$allocator@U?$pair@OO@std@@@1@@Z"
    .seh_proc "??0?$vector@U?$pair@OO@std@@V?$allocator@U?$pair@OO@std@@@2@@std@@QEAA@V?$initializer_list@U?$pair@OO@std@@@1@AEBV?$allocator@U?$pair@OO@std@@@1@@Z"
# %bb.0:
    sub	rsp, 104
    .seh_stackalloc 104
    .seh_endprologue
    mov	qword ptr [rsp + 40], rdx       # 8-byte Spill ; Move 64-bit value
    mov	qword ptr [rsp + 96], r8                       ; Move 64-bit value
    mov	qword ptr [rsp + 88], rdx                      ; Move 64-bit value
    mov	qword ptr [rsp + 80], rcx                      ; Move 64-bit value
    mov	rcx, qword ptr [rsp + 80]                      ; Move 64-bit value
    mov	qword ptr [rsp + 48], rcx       # 8-byte Spill ; Move 64-bit value
    mov	r8, qword ptr [rsp + 96]                       ; Move 64-bit value
    mov	dl, byte ptr [rsp + 79]
    call	"??$?0AEBV?$allocator@U?$pair@OO@std@@@std@@$$V@?$_Compressed_pair@V?$allocator@U?$pair@OO@std@@@std@@V?$_Vector_val@U?$_Simple_types@U?$pair@OO@std@@@std@@@2@$00@std@@QEAA@U_One_then_variadic_args_t@1@AEBV?$allocator@U?$pair@OO@std@@@1@@Z" ; Function call
    mov	rcx, qword ptr [rsp + 40]       # 8-byte Reload ; Move 64-bit value
    call	"?end@?$initializer_list@U?$pair@OO@std@@@std@@QEBAPEBU?$pair@OO@2@XZ" ; Function call
    mov	rcx, qword ptr [rsp + 40]       # 8-byte Reload ; Move 64-bit value
    mov	qword ptr [rsp + 64], rax                      ; Move 64-bit value
    call	"?begin@?$initializer_list@U?$pair@OO@std@@@std@@QEBAPEBU?$pair@OO@2@XZ" ; Function call
    mov	rcx, qword ptr [rsp + 40]       # 8-byte Reload ; Move 64-bit value
    mov	qword ptr [rsp + 56], rax                      ; Move 64-bit value
    call	"?size@?$initializer_list@U?$pair@OO@std@@@std@@QEBA_KXZ" ; Function call
    mov	rcx, rax
    call	"??$_Convert_size@_K_K@std@@YA_K_K@Z"         ; Function call
    mov	rcx, qword ptr [rsp + 48]       # 8-byte Reload ; Move 64-bit value
    mov	rdx, rax
    lea	r8, [rsp + 56]
    lea	r9, [rsp + 64]
    call	"??$_Construct_n@PEBU?$pair@OO@std@@PEBU12@@?$vector@U?$pair@OO@std@@V?$allocator@U?$pair@OO@std@@@2@@std@@AEAAX_K$$QEAPEBU?$pair@OO@1@1@Z" ; Function call
    mov	rax, qword ptr [rsp + 48]       # 8-byte Reload ; Move 64-bit value
    add	rsp, 104
    ret                                                ; Return from function
    .seh_endproc
    .section	.text,"xr",discard,"??0?$vector@U?$pair@OO@std@@V?$allocator@U?$pair@OO@std@@@2@@std@@QEAA@XZ"
.globl	"??0?$vector@U?$pair@OO@std@@V?$allocator@U?$pair@OO@std@@@2@@std@@QEAA@XZ" # -- Begin function ??0?$vector@U?$pair@OO@std@@V?$allocator@U?$pair@OO@std@@@2@@std@@QEAA@XZ
    .p2align	4, 0x90
    "??0?$vector@U?$pair@OO@std@@V?$allocator@U?$pair@OO@std@@@2@@std@@QEAA@XZ": # @"??0?$vector@U?$pair@OO@std@@V?$allocator@U?$pair@OO@std@@@2@@std@@QEAA@XZ"
    .seh_proc "??0?$vector@U?$pair@OO@std@@V?$allocator@U?$pair@OO@std@@@2@@std@@QEAA@XZ"
# %bb.0:
    sub	rsp, 56
    .seh_stackalloc 56
    .seh_endprologue
    mov	qword ptr [rsp + 48], rcx                      ; Move 64-bit value
    mov	rcx, qword ptr [rsp + 48]                      ; Move 64-bit value
    mov	qword ptr [rsp + 32], rcx       # 8-byte Spill ; Move 64-bit value
    mov	dl, byte ptr [rsp + 47]
    call	"??$?0$$V@?$_Compressed_pair@V?$allocator@U?$pair@OO@std@@@std@@V?$_Vector_val@U?$_Simple_types@U?$pair@OO@std@@@std@@@2@$00@std@@QEAA@U_Zero_then_variadic_args_t@1@@Z" ; Function call
    mov	rcx, qword ptr [rsp + 32]       # 8-byte Reload ; Move 64-bit value
    lea	rdx, [rip + "?_Fake_alloc@std@@3U_Fake_allocator@1@B"]
    call	"?_Alloc_proxy@_Container_base0@std@@QEAAXAEBU_Fake_allocator@2@@Z" ; Function call
    mov	rax, qword ptr [rsp + 32]       # 8-byte Reload ; Move 64-bit value
    add	rsp, 56
    ret                                                ; Return from function
    .seh_endproc
    .section	.text,"xr",discard,"??0?$vector@OV?$allocator@O@std@@@std@@QEAA@XZ"
.globl	"??0?$vector@OV?$allocator@O@std@@@std@@QEAA@XZ" # -- Begin function ??0?$vector@OV?$allocator@O@std@@@std@@QEAA@XZ
    .p2align	4, 0x90
    "??0?$vector@OV?$allocator@O@std@@@std@@QEAA@XZ": # @"??0?$vector@OV?$allocator@O@std@@@std@@QEAA@XZ"
    .seh_proc "??0?$vector@OV?$allocator@O@std@@@std@@QEAA@XZ"
# %bb.0:
    sub	rsp, 56
    .seh_stackalloc 56
    .seh_endprologue
    mov	qword ptr [rsp + 48], rcx                      ; Move 64-bit value
    mov	rcx, qword ptr [rsp + 48]                      ; Move 64-bit value
    mov	qword ptr [rsp + 32], rcx       # 8-byte Spill ; Move 64-bit value
    mov	dl, byte ptr [rsp + 47]
    call	"??$?0$$V@?$_Compressed_pair@V?$allocator@O@std@@V?$_Vector_val@U?$_Simple_types@O@std@@@2@$00@std@@QEAA@U_Zero_then_variadic_args_t@1@@Z" ; Function call
    mov	rcx, qword ptr [rsp + 32]       # 8-byte Reload ; Move 64-bit value
    lea	rdx, [rip + "?_Fake_alloc@std@@3U_Fake_allocator@1@B"]
    call	"?_Alloc_proxy@_Container_base0@std@@QEAAXAEBU_Fake_allocator@2@@Z" ; Function call
    mov	rax, qword ptr [rsp + 32]       # 8-byte Reload ; Move 64-bit value
    add	rsp, 56
    ret                                                ; Return from function
    .seh_endproc
    .section	.text,"xr",discard,"?push_back@?$vector@OV?$allocator@O@std@@@std@@QEAAX$$QEAO@Z" ; Push to stack
.globl	"?push_back@?$vector@OV?$allocator@O@std@@@std@@QEAAX$$QEAO@Z" # -- Begin function ?push_back@?$vector@OV?$allocator@O@std@@@std@@QEAAX$$QEAO@Z
    .p2align	4, 0x90
    "?push_back@?$vector@OV?$allocator@O@std@@@std@@QEAAX$$QEAO@Z": # @"?push_back@?$vector@OV?$allocator@O@std@@@std@@QEAAX$$QEAO@Z" ; Push to stack
    .seh_proc "?push_back@?$vector@OV?$allocator@O@std@@@std@@QEAAX$$QEAO@Z" ; Push to stack
# %bb.0:
    sub	rsp, 56
    .seh_stackalloc 56
    .seh_endprologue
    mov	qword ptr [rsp + 48], rdx                      ; Move 64-bit value
    mov	qword ptr [rsp + 40], rcx                      ; Move 64-bit value
    mov	rcx, qword ptr [rsp + 40]                      ; Move 64-bit value
    mov	rdx, qword ptr [rsp + 48]                      ; Move 64-bit value
    call	"??$_Emplace_one_at_back@O@?$vector@OV?$allocator@O@std@@@std@@AEAAAEAO$$QEAO@Z" ; Function call
    nop
    add	rsp, 56
    ret                                                ; Return from function
    .seh_endproc
    .section	.text,"xr",discard,"??$sort@V?$_Vector_iterator@V?$_Vector_val@U?$_Simple_types@O@std@@@std@@@std@@@std@@YAXV?$_Vector_iterator@V?$_Vector_val@U?$_Simple_types@O@std@@@std@@@0@0@Z"
.globl	"??$sort@V?$_Vector_iterator@V?$_Vector_val@U?$_Simple_types@O@std@@@std@@@std@@@std@@YAXV?$_Vector_iterator@V?$_Vector_val@U?$_Simple_types@O@std@@@std@@@0@0@Z" # -- Begin function ??$sort@V?$_Vector_iterator@V?$_Vector_val@U?$_Simple_types@O@std@@@std@@@std@@@std@@YAXV?$_Vector_iterator@V?$_Vector_val@U?$_Simple_types@O@std@@@std@@@0@0@Z
    .p2align	4, 0x90
    "??$sort@V?$_Vector_iterator@V?$_Vector_val@U?$_Simple_types@O@std@@@std@@@std@@@std@@YAXV?$_Vector_iterator@V?$_Vector_val@U?$_Simple_types@O@std@@@std@@@0@0@Z": # @"??$sort@V?$_Vector_iterator@V?$_Vector_val@U?$_Simple_types@O@std@@@std@@@std@@@std@@YAXV?$_Vector_iterator@V?$_Vector_val@U?$_Simple_types@O@std@@@std@@@0@0@Z"
    .seh_proc "??$sort@V?$_Vector_iterator@V?$_Vector_val@U?$_Simple_types@O@std@@@std@@@std@@@std@@YAXV?$_Vector_iterator@V?$_Vector_val@U?$_Simple_types@O@std@@@std@@@0@0@Z"
# %bb.0:
    sub	rsp, 72
    .seh_stackalloc 72
    .seh_endprologue
    mov	qword ptr [rsp + 64], rcx                      ; Move 64-bit value
    mov	qword ptr [rsp + 56], rdx                      ; Move 64-bit value
    mov	rax, qword ptr [rsp + 56]                      ; Move 64-bit value
    mov	qword ptr [rsp + 40], rax                      ; Move 64-bit value
    mov	rax, qword ptr [rsp + 64]                      ; Move 64-bit value
    mov	qword ptr [rsp + 32], rax                      ; Move 64-bit value
    mov	rcx, qword ptr [rsp + 32]                      ; Move 64-bit value
    mov	rdx, qword ptr [rsp + 40]                      ; Move 64-bit value
    mov	r8b, byte ptr [rsp + 55]
    call	"??$sort@V?$_Vector_iterator@V?$_Vector_val@U?$_Simple_types@O@std@@@std@@@std@@U?$less@X@2@@std@@YAXV?$_Vector_iterator@V?$_Vector_val@U?$_Simple_types@O@std@@@std@@@0@0U?$less@X@0@@Z" ; Function call
    nop
    add	rsp, 72
    ret                                                ; Return from function
    .seh_endproc
    .section	.text,"xr",discard,"?end@?$vector@OV?$allocator@O@std@@@std@@QEAA?AV?$_Vector_iterator@V?$_Vector_val@U?$_Simple_types@O@std@@@std@@@2@XZ"
.globl	"?end@?$vector@OV?$allocator@O@std@@@std@@QEAA?AV?$_Vector_iterator@V?$_Vector_val@U?$_Simple_types@O@std@@@std@@@2@XZ" # -- Begin function ?end@?$vector@OV?$allocator@O@std@@@std@@QEAA?AV?$_Vector_iterator@V?$_Vector_val@U?$_Simple_types@O@std@@@std@@@2@XZ
    .p2align	4, 0x90
    "?end@?$vector@OV?$allocator@O@std@@@std@@QEAA?AV?$_Vector_iterator@V?$_Vector_val@U?$_Simple_types@O@std@@@std@@@2@XZ": # @"?end@?$vector@OV?$allocator@O@std@@@std@@QEAA?AV?$_Vector_iterator@V?$_Vector_val@U?$_Simple_types@O@std@@@std@@@2@XZ"
    .seh_proc "?end@?$vector@OV?$allocator@O@std@@@std@@QEAA?AV?$_Vector_iterator@V?$_Vector_val@U?$_Simple_types@O@std@@@std@@@2@XZ"
# %bb.0:
    sub	rsp, 72
    .seh_stackalloc 72
    .seh_endprologue
    mov	qword ptr [rsp + 32], rdx       # 8-byte Spill ; Move 64-bit value
    mov	rax, rcx
    mov	rcx, qword ptr [rsp + 32]       # 8-byte Reload ; Move 64-bit value
    mov	rdx, rcx
    mov	qword ptr [rsp + 40], rdx       # 8-byte Spill ; Move 64-bit value
    mov	qword ptr [rsp + 64], rcx                      ; Move 64-bit value
    mov	qword ptr [rsp + 56], rax                      ; Move 64-bit value
    mov	rax, qword ptr [rsp + 56]                      ; Move 64-bit value
    mov	qword ptr [rsp + 48], rax                      ; Move 64-bit value
    mov	r8, qword ptr [rsp + 48]                       ; Move 64-bit value
    mov	rax, qword ptr [rsp + 48]                      ; Move 64-bit value
    mov	rdx, qword ptr [rax + 8]                       ; Move 64-bit value
    call	"??0?$_Vector_iterator@V?$_Vector_val@U?$_Simple_types@O@std@@@std@@@std@@QEAA@PEAOPEBU_Container_base0@1@@Z" ; Function call
# kill: def $rcx killed $rax
    mov	rax, qword ptr [rsp + 40]       # 8-byte Reload ; Move 64-bit value
    add	rsp, 72
    ret                                                ; Return from function
    .seh_endproc
    .section	.text,"xr",discard,"?begin@?$vector@OV?$allocator@O@std@@@std@@QEAA?AV?$_Vector_iterator@V?$_Vector_val@U?$_Simple_types@O@std@@@std@@@2@XZ"
.globl	"?begin@?$vector@OV?$allocator@O@std@@@std@@QEAA?AV?$_Vector_iterator@V?$_Vector_val@U?$_Simple_types@O@std@@@std@@@2@XZ" # -- Begin function ?begin@?$vector@OV?$allocator@O@std@@@std@@QEAA?AV?$_Vector_iterator@V?$_Vector_val@U?$_Simple_types@O@std@@@std@@@2@XZ
    .p2align	4, 0x90
    "?begin@?$vector@OV?$allocator@O@std@@@std@@QEAA?AV?$_Vector_iterator@V?$_Vector_val@U?$_Simple_types@O@std@@@std@@@2@XZ": # @"?begin@?$vector@OV?$allocator@O@std@@@std@@QEAA?AV?$_Vector_iterator@V?$_Vector_val@U?$_Simple_types@O@std@@@std@@@2@XZ"
    .seh_proc "?begin@?$vector@OV?$allocator@O@std@@@std@@QEAA?AV?$_Vector_iterator@V?$_Vector_val@U?$_Simple_types@O@std@@@std@@@2@XZ"
# %bb.0:
    sub	rsp, 72
    .seh_stackalloc 72
    .seh_endprologue
    mov	qword ptr [rsp + 32], rdx       # 8-byte Spill ; Move 64-bit value
    mov	rax, rcx
    mov	rcx, qword ptr [rsp + 32]       # 8-byte Reload ; Move 64-bit value
    mov	rdx, rcx
    mov	qword ptr [rsp + 40], rdx       # 8-byte Spill ; Move 64-bit value
    mov	qword ptr [rsp + 64], rcx                      ; Move 64-bit value
    mov	qword ptr [rsp + 56], rax                      ; Move 64-bit value
    mov	rax, qword ptr [rsp + 56]                      ; Move 64-bit value
    mov	qword ptr [rsp + 48], rax                      ; Move 64-bit value
    mov	r8, qword ptr [rsp + 48]                       ; Move 64-bit value
    mov	rax, qword ptr [rsp + 48]                      ; Move 64-bit value
    mov	rdx, qword ptr [rax]                           ; Move 64-bit value
    call	"??0?$_Vector_iterator@V?$_Vector_val@U?$_Simple_types@O@std@@@std@@@std@@QEAA@PEAOPEBU_Container_base0@1@@Z" ; Function call
# kill: def $rcx killed $rax
    mov	rax, qword ptr [rsp + 40]       # 8-byte Reload ; Move 64-bit value
    add	rsp, 72
    ret                                                ; Return from function
    .seh_endproc
    .section	.text,"xr",discard,"?erase@?$vector@OV?$allocator@O@std@@@std@@QEAA?AV?$_Vector_iterator@V?$_Vector_val@U?$_Simple_types@O@std@@@std@@@2@V?$_Vector_const_iterator@V?$_Vector_val@U?$_Simple_types@O@std@@@std@@@2@0@Z"
.globl	"?erase@?$vector@OV?$allocator@O@std@@@std@@QEAA?AV?$_Vector_iterator@V?$_Vector_val@U?$_Simple_types@O@std@@@std@@@2@V?$_Vector_const_iterator@V?$_Vector_val@U?$_Simple_types@O@std@@@std@@@2@0@Z" # -- Begin function ?erase@?$vector@OV?$allocator@O@std@@@std@@QEAA?AV?$_Vector_iterator@V?$_Vector_val@U?$_Simple_types@O@std@@@std@@@2@V?$_Vector_const_iterator@V?$_Vector_val@U?$_Simple_types@O@std@@@std@@@2@0@Z
    .p2align	4, 0x90
    "?erase@?$vector@OV?$allocator@O@std@@@std@@QEAA?AV?$_Vector_iterator@V?$_Vector_val@U?$_Simple_types@O@std@@@std@@@2@V?$_Vector_const_iterator@V?$_Vector_val@U?$_Simple_types@O@std@@@std@@@2@0@Z": # @"?erase@?$vector@OV?$allocator@O@std@@@std@@QEAA?AV?$_Vector_iterator@V?$_Vector_val@U?$_Simple_types@O@std@@@std@@@2@V?$_Vector_const_iterator@V?$_Vector_val@U?$_Simple_types@O@std@@@std@@@2@0@Z"
    .seh_proc "?erase@?$vector@OV?$allocator@O@std@@@std@@QEAA?AV?$_Vector_iterator@V?$_Vector_val@U?$_Simple_types@O@std@@@std@@@2@V?$_Vector_const_iterator@V?$_Vector_val@U?$_Simple_types@O@std@@@std@@@2@0@Z"
# %bb.0:
    sub	rsp, 136
    .seh_stackalloc 136
    .seh_endprologue
    mov	qword ptr [rsp + 40], rdx       # 8-byte Spill ; Move 64-bit value
    mov	rax, rdx
    mov	qword ptr [rsp + 48], rax       # 8-byte Spill ; Move 64-bit value
    mov	qword ptr [rsp + 128], rdx                     ; Move 64-bit value
    mov	qword ptr [rsp + 120], r8                      ; Move 64-bit value
    mov	qword ptr [rsp + 112], r9                      ; Move 64-bit value
    mov	qword ptr [rsp + 104], rcx                     ; Move 64-bit value
    mov	rax, qword ptr [rsp + 104]                     ; Move 64-bit value
    mov	qword ptr [rsp + 56], rax       # 8-byte Spill ; Move 64-bit value
    mov	rcx, qword ptr [rsp + 120]                     ; Move 64-bit value
    mov	qword ptr [rsp + 96], rcx                      ; Move 64-bit value
    mov	rcx, qword ptr [rsp + 112]                     ; Move 64-bit value
    mov	qword ptr [rsp + 88], rcx                      ; Move 64-bit value
    mov	qword ptr [rsp + 80], rax                      ; Move 64-bit value
    mov	rax, qword ptr [rsp + 80]                      ; Move 64-bit value
    add	rax, 8
    mov	qword ptr [rsp + 72], rax                      ; Move 64-bit value
    mov	rax, qword ptr [rsp + 96]                      ; Move 64-bit value
    cmp	rax, qword ptr [rsp + 88]                      ; Compare values
    je	.LBB35_2                                        ; Jump instruction
# %bb.1:
    mov	rcx, qword ptr [rsp + 56]       # 8-byte Reload ; Move 64-bit value
    mov	rax, qword ptr [rsp + 72]                      ; Move 64-bit value
    mov	r8, qword ptr [rax]                            ; Move 64-bit value
    mov	rdx, qword ptr [rsp + 96]                      ; Move 64-bit value
    call	"?_Orphan_range@?$vector@OV?$allocator@O@std@@@std@@AEBAXPEAO0@Z" ; Function call
    mov	r8, qword ptr [rsp + 96]                       ; Move 64-bit value
    mov	rax, qword ptr [rsp + 72]                      ; Move 64-bit value
    mov	rdx, qword ptr [rax]                           ; Move 64-bit value
    mov	rcx, qword ptr [rsp + 88]                      ; Move 64-bit value
    call	"??$_Move_unchecked@PEAOPEAO@std@@YAPEAOPEAO00@Z" ; Function call
    mov	rcx, qword ptr [rsp + 56]       # 8-byte Reload ; Move 64-bit value
    mov	qword ptr [rsp + 64], rax                      ; Move 64-bit value
    call	"?_Getal@?$vector@OV?$allocator@O@std@@@std@@AEAAAEAV?$allocator@O@2@XZ" ; Function call
    mov	r8, rax
    mov	rax, qword ptr [rsp + 72]                      ; Move 64-bit value
    mov	rdx, qword ptr [rax]                           ; Move 64-bit value
    mov	rcx, qword ptr [rsp + 64]                      ; Move 64-bit value
    call	"??$_Destroy_range@V?$allocator@O@std@@@std@@YAXPEAOQEAOAEAV?$allocator@O@0@@Z" ; Function call
    mov	rcx, qword ptr [rsp + 64]                      ; Move 64-bit value
    mov	rax, qword ptr [rsp + 72]                      ; Move 64-bit value
    mov	qword ptr [rax], rcx                           ; Move 64-bit value
    .LBB35_2:
    mov	rcx, qword ptr [rsp + 40]       # 8-byte Reload ; Move 64-bit value
    mov	r8, qword ptr [rsp + 80]                       ; Move 64-bit value
    mov	rdx, qword ptr [rsp + 96]                      ; Move 64-bit value
    call	"??0?$_Vector_iterator@V?$_Vector_val@U?$_Simple_types@O@std@@@std@@@std@@QEAA@PEAOPEBU_Container_base0@1@@Z" ; Function call
# kill: def $rcx killed $rax
    mov	rax, qword ptr [rsp + 48]       # 8-byte Reload ; Move 64-bit value
    add	rsp, 136
    ret                                                ; Return from function
    .seh_endproc
    .text
    .p2align	4, 0x90                         # -- Begin function ??$unique@V?$_Vector_iterator@V?$_Vector_val@U?$_Simple_types@O@std@@@std@@@std@@V<lambda_0>@?0??get_covered_intervals@@YA?AV?$vector@U?$pair@OO@std@@V?$allocator@U?$pair@OO@std@@@2@@2@AEBUPoint@@00O@Z@@std@@YA?AV?$_Vector_iterator@V?$_Vector_val@U?$_Simple_types@O@std@@@std@@@0@V10@0V<lambda_0>@?0??get_covered_intervals@@YA?AV?$vector@U?$pair@OO@std@@V?$allocator@U?$pair@OO@std@@@2@@0@AEBUPoint@@11O@Z@@Z
    "??$unique@V?$_Vector_iterator@V?$_Vector_val@U?$_Simple_types@O@std@@@std@@@std@@V<lambda_0>@?0??get_covered_intervals@@YA?AV?$vector@U?$pair@OO@std@@V?$allocator@U?$pair@OO@std@@@2@@2@AEBUPoint@@00O@Z@@std@@YA?AV?$_Vector_iterator@V?$_Vector_val@U?$_Simple_types@O@std@@@std@@@0@V10@0V<lambda_0>@?0??get_covered_intervals@@YA?AV?$vector@U?$pair@OO@std@@V?$allocator@U?$pair@OO@std@@@2@@0@AEBUPoint@@11O@Z@@Z": # @"??$unique@V?$_Vector_iterator@V?$_Vector_val@U?$_Simple_types@O@std@@@std@@@std@@V<lambda_0>@?0??get_covered_intervals@@YA?AV?$vector@U?$pair@OO@std@@V?$allocator@U?$pair@OO@std@@@2@@2@AEBUPoint@@00O@Z@@std@@YA?AV?$_Vector_iterator@V?$_Vector_val@U?$_Simple_types@O@std@@@std@@@0@V10@0V<lambda_0>@?0??get_covered_intervals@@YA?AV?$vector@U?$pair@OO@std@@V?$allocator@U?$pair@OO@std@@@2@@0@AEBUPoint@@11O@Z@@Z"
    .seh_proc "??$unique@V?$_Vector_iterator@V?$_Vector_val@U?$_Simple_types@O@std@@@std@@@std@@V<lambda_0>@?0??get_covered_intervals@@YA?AV?$vector@U?$pair@OO@std@@V?$allocator@U?$pair@OO@std@@@2@@2@AEBUPoint@@00O@Z@@std@@YA?AV?$_Vector_iterator@V?$_Vector_val@U?$_Simple_types@O@std@@@std@@@0@V10@0V<lambda_0>@?0??get_covered_intervals@@YA?AV?$vector@U?$pair@OO@std@@V?$allocator@U?$pair@OO@std@@@2@@0@AEBUPoint@@11O@Z@@Z"
# %bb.0:
    sub	rsp, 104
    .seh_stackalloc 104
    .seh_endprologue
    mov	qword ptr [rsp + 32], rcx       # 8-byte Spill ; Move 64-bit value
    mov	rax, rcx
    mov	qword ptr [rsp + 40], rax       # 8-byte Spill ; Move 64-bit value
    mov	qword ptr [rsp + 96], rcx                      ; Move 64-bit value
    mov	qword ptr [rsp + 88], rdx                      ; Move 64-bit value
    mov	qword ptr [rsp + 80], r8                       ; Move 64-bit value
    mov	byte ptr [rsp + 79], r9b
    lea	rcx, [rsp + 88]
    lea	rdx, [rsp + 80]
    call	"??$_Adl_verify_range@V?$_Vector_iterator@V?$_Vector_val@U?$_Simple_types@O@std@@@std@@@std@@V12@@std@@YAXAEBV?$_Vector_iterator@V?$_Vector_val@U?$_Simple_types@O@std@@@std@@@0@0@Z" ; Function call
    lea	rcx, [rsp + 88]
    call	"??$_Get_unwrapped@AEAV?$_Vector_iterator@V?$_Vector_val@U?$_Simple_types@O@std@@@std@@@std@@@std@@YA?A?<decltype-auto>@@AEAV?$_Vector_iterator@V?$_Vector_val@U?$_Simple_types@O@std@@@std@@@0@@Z" ; Function call
    mov	qword ptr [rsp + 64], rax                      ; Move 64-bit value
    lea	rcx, [rsp + 80]
    call	"??$_Get_unwrapped@AEAV?$_Vector_iterator@V?$_Vector_val@U?$_Simple_types@O@std@@@std@@@std@@@std@@YA?A?<decltype-auto>@@AEAV?$_Vector_iterator@V?$_Vector_val@U?$_Simple_types@O@std@@@std@@@0@@Z" ; Function call
    mov	qword ptr [rsp + 56], rax                      ; Move 64-bit value
    mov	rax, qword ptr [rsp + 64]                      ; Move 64-bit value
    cmp	rax, qword ptr [rsp + 56]                      ; Compare values
    je	.LBB36_13                                       ; Jump instruction
# %bb.1:
    mov	rax, qword ptr [rsp + 64]                      ; Move 64-bit value
    mov	qword ptr [rsp + 48], rax                      ; Move 64-bit value
    .LBB36_2:                               # =>This Inner Loop Header: Depth=1
    mov	rax, qword ptr [rsp + 64]                      ; Move 64-bit value
    add	rax, 8
    mov	qword ptr [rsp + 64], rax                      ; Move 64-bit value
    cmp	rax, qword ptr [rsp + 56]                      ; Compare values
    je	.LBB36_12                                       ; Jump instruction
# %bb.3:                                #   in Loop: Header=BB36_2 Depth=1
    mov	rax, qword ptr [rsp + 64]                      ; Move 64-bit value
    movsd	xmm2, qword ptr [rax]           # xmm2 = mem[0],zero ; Load 64-bit double
    mov	rax, qword ptr [rsp + 48]                      ; Move 64-bit value
    movsd	xmm1, qword ptr [rax]           # xmm1 = mem[0],zero ; Load 64-bit double
    lea	rcx, [rsp + 79]
    call	"??R<lambda_0>@?0??get_covered_intervals@@YA?AV?$vector@U?$pair@OO@std@@V?$allocator@U?$pair@OO@std@@@2@@std@@AEBUPoint@@00O@Z@QEBA?A?<auto>@@OO@Z" ; Function call
    test	al, 1                                         ; Test values
    jne	.LBB36_4                                       ; Jump instruction
    jmp	.LBB36_10                                      ; Jump instruction
    .LBB36_4:
    jmp	.LBB36_5                                       ; Jump instruction
    .LBB36_5:                               # =>This Inner Loop Header: Depth=1
    mov	rax, qword ptr [rsp + 64]                      ; Move 64-bit value
    add	rax, 8
    mov	qword ptr [rsp + 64], rax                      ; Move 64-bit value
    cmp	rax, qword ptr [rsp + 56]                      ; Compare values
    je	.LBB36_9                                        ; Jump instruction
# %bb.6:                                #   in Loop: Header=BB36_5 Depth=1
    mov	rax, qword ptr [rsp + 64]                      ; Move 64-bit value
    movsd	xmm2, qword ptr [rax]           # xmm2 = mem[0],zero ; Load 64-bit double
    mov	rax, qword ptr [rsp + 48]                      ; Move 64-bit value
    movsd	xmm1, qword ptr [rax]           # xmm1 = mem[0],zero ; Load 64-bit double
    lea	rcx, [rsp + 79]
    call	"??R<lambda_0>@?0??get_covered_intervals@@YA?AV?$vector@U?$pair@OO@std@@V?$allocator@U?$pair@OO@std@@@2@@std@@AEBUPoint@@00O@Z@QEBA?A?<auto>@@OO@Z" ; Function call
    test	al, 1                                         ; Test values
    jne	.LBB36_8                                       ; Jump instruction
# %bb.7:                                #   in Loop: Header=BB36_5 Depth=1
    mov	rax, qword ptr [rsp + 64]                      ; Move 64-bit value
    movsd	xmm0, qword ptr [rax]           # xmm0 = mem[0],zero ; Load 64-bit double
    mov	rax, qword ptr [rsp + 48]                      ; Move 64-bit value
    mov	rcx, rax
    add	rcx, 8
    mov	qword ptr [rsp + 48], rcx                      ; Move 64-bit value
    movsd	qword ptr [rax + 8], xmm0                    ; Load 64-bit double
    .LBB36_8:                               #   in Loop: Header=BB36_5 Depth=1
    jmp	.LBB36_5                                       ; Jump instruction
    .LBB36_9:
    mov	rax, qword ptr [rsp + 48]                      ; Move 64-bit value
    add	rax, 8
    mov	qword ptr [rsp + 48], rax                      ; Move 64-bit value
    lea	rcx, [rsp + 80]
    lea	rdx, [rsp + 48]
    call	"??$_Seek_wrapped@V?$_Vector_iterator@V?$_Vector_val@U?$_Simple_types@O@std@@@std@@@std@@AEAPEAO@std@@YAXAEAV?$_Vector_iterator@V?$_Vector_val@U?$_Simple_types@O@std@@@std@@@0@AEAPEAO@Z" ; Function call
    mov	rax, qword ptr [rsp + 32]       # 8-byte Reload ; Move 64-bit value
    mov	rcx, qword ptr [rsp + 80]                      ; Move 64-bit value
    mov	qword ptr [rax], rcx                           ; Move 64-bit value
    jmp	.LBB36_14                                      ; Jump instruction
    .LBB36_10:                              #   in Loop: Header=BB36_2 Depth=1
    jmp	.LBB36_11                                      ; Jump instruction
    .LBB36_11:                              #   in Loop: Header=BB36_2 Depth=1
    mov	rax, qword ptr [rsp + 64]                      ; Move 64-bit value
    mov	qword ptr [rsp + 48], rax                      ; Move 64-bit value
    jmp	.LBB36_2                                       ; Jump instruction
    .LBB36_12:
    jmp	.LBB36_13                                      ; Jump instruction
    .LBB36_13:
    lea	rcx, [rsp + 80]
    lea	rdx, [rsp + 56]
    call	"??$_Seek_wrapped@V?$_Vector_iterator@V?$_Vector_val@U?$_Simple_types@O@std@@@std@@@std@@AEBQEAO@std@@YAXAEAV?$_Vector_iterator@V?$_Vector_val@U?$_Simple_types@O@std@@@std@@@0@AEBQEAO@Z" ; Function call
    mov	rax, qword ptr [rsp + 32]       # 8-byte Reload ; Move 64-bit value
    mov	rcx, qword ptr [rsp + 80]                      ; Move 64-bit value
    mov	qword ptr [rax], rcx                           ; Move 64-bit value
    .LBB36_14:
    mov	rax, qword ptr [rsp + 40]       # 8-byte Reload ; Move 64-bit value
    add	rsp, 104
    ret                                                ; Return from function
    .seh_endproc
    .section	.text,"xr",discard,"?size@?$vector@OV?$allocator@O@std@@@std@@QEBA_KXZ"
.globl	"?size@?$vector@OV?$allocator@O@std@@@std@@QEBA_KXZ" # -- Begin function ?size@?$vector@OV?$allocator@O@std@@@std@@QEBA_KXZ
    .p2align	4, 0x90
    "?size@?$vector@OV?$allocator@O@std@@@std@@QEBA_KXZ": # @"?size@?$vector@OV?$allocator@O@std@@@std@@QEBA_KXZ"
    .seh_proc "?size@?$vector@OV?$allocator@O@std@@@std@@QEBA_KXZ"
# %bb.0:
    sub	rsp, 16
    .seh_stackalloc 16
    .seh_endprologue
    mov	qword ptr [rsp + 8], rcx                       ; Move 64-bit value
    mov	rax, qword ptr [rsp + 8]                       ; Move 64-bit value
    mov	qword ptr [rsp], rax                           ; Move 64-bit value
    mov	rax, qword ptr [rsp]                           ; Move 64-bit value
    mov	rax, qword ptr [rax + 8]                       ; Move 64-bit value
    mov	rcx, qword ptr [rsp]                           ; Move 64-bit value
    mov	rcx, qword ptr [rcx]                           ; Move 64-bit value
    sub	rax, rcx
    sar	rax, 3
    add	rsp, 16
    ret                                                ; Return from function
    .seh_endproc
    .section	.text,"xr",discard,"??A?$vector@OV?$allocator@O@std@@@std@@QEAAAEAO_K@Z"
.globl	"??A?$vector@OV?$allocator@O@std@@@std@@QEAAAEAO_K@Z" # -- Begin function ??A?$vector@OV?$allocator@O@std@@@std@@QEAAAEAO_K@Z
    .p2align	4, 0x90
    "??A?$vector@OV?$allocator@O@std@@@std@@QEAAAEAO_K@Z": # @"??A?$vector@OV?$allocator@O@std@@@std@@QEAAAEAO_K@Z"
    .seh_proc "??A?$vector@OV?$allocator@O@std@@@std@@QEAAAEAO_K@Z"
# %bb.0:
    sub	rsp, 24
    .seh_stackalloc 24
    .seh_endprologue
    mov	qword ptr [rsp + 16], rdx                      ; Move 64-bit value
    mov	qword ptr [rsp + 8], rcx                       ; Move 64-bit value
    mov	rax, qword ptr [rsp + 8]                       ; Move 64-bit value
    mov	qword ptr [rsp], rax                           ; Move 64-bit value
    mov	rax, qword ptr [rsp]                           ; Move 64-bit value
    mov	rax, qword ptr [rax]                           ; Move 64-bit value
    mov	rcx, qword ptr [rsp + 16]                      ; Move 64-bit value
    shl	rcx, 3
    add	rax, rcx
    add	rsp, 24
    ret                                                ; Return from function
    .seh_endproc
    .section	.text,"xr",discard,"?push_back@?$vector@U?$pair@OO@std@@V?$allocator@U?$pair@OO@std@@@2@@std@@QEAAX$$QEAU?$pair@OO@2@@Z" ; Push to stack
.globl	"?push_back@?$vector@U?$pair@OO@std@@V?$allocator@U?$pair@OO@std@@@2@@std@@QEAAX$$QEAU?$pair@OO@2@@Z" # -- Begin function ?push_back@?$vector@U?$pair@OO@std@@V?$allocator@U?$pair@OO@std@@@2@@std@@QEAAX$$QEAU?$pair@OO@2@@Z
    .p2align	4, 0x90
    "?push_back@?$vector@U?$pair@OO@std@@V?$allocator@U?$pair@OO@std@@@2@@std@@QEAAX$$QEAU?$pair@OO@2@@Z": # @"?push_back@?$vector@U?$pair@OO@std@@V?$allocator@U?$pair@OO@std@@@2@@std@@QEAAX$$QEAU?$pair@OO@2@@Z" ; Push to stack
    .seh_proc "?push_back@?$vector@U?$pair@OO@std@@V?$allocator@U?$pair@OO@std@@@2@@std@@QEAAX$$QEAU?$pair@OO@2@@Z" ; Push to stack
# %bb.0:
    sub	rsp, 56
    .seh_stackalloc 56
    .seh_endprologue
    mov	qword ptr [rsp + 48], rdx                      ; Move 64-bit value
    mov	qword ptr [rsp + 40], rcx                      ; Move 64-bit value
    mov	rcx, qword ptr [rsp + 40]                      ; Move 64-bit value
    mov	rdx, qword ptr [rsp + 48]                      ; Move 64-bit value
    call	"??$_Emplace_one_at_back@U?$pair@OO@std@@@?$vector@U?$pair@OO@std@@V?$allocator@U?$pair@OO@std@@@2@@std@@AEAAAEAU?$pair@OO@1@$$QEAU21@@Z" ; Function call
    nop
    add	rsp, 56
    ret                                                ; Return from function
    .seh_endproc
    .section	.text,"xr",discard,"??$?0AEAOAEAO$0A@@?$pair@OO@std@@QEAA@AEAO0@Z"
.globl	"??$?0AEAOAEAO$0A@@?$pair@OO@std@@QEAA@AEAO0@Z" # -- Begin function ??$?0AEAOAEAO$0A@@?$pair@OO@std@@QEAA@AEAO0@Z
    .p2align	4, 0x90
    "??$?0AEAOAEAO$0A@@?$pair@OO@std@@QEAA@AEAO0@Z": # @"??$?0AEAOAEAO$0A@@?$pair@OO@std@@QEAA@AEAO0@Z"
    .seh_proc "??$?0AEAOAEAO$0A@@?$pair@OO@std@@QEAA@AEAO0@Z"
# %bb.0:
    sub	rsp, 24
    .seh_stackalloc 24
    .seh_endprologue
    mov	qword ptr [rsp + 16], r8                       ; Move 64-bit value
    mov	qword ptr [rsp + 8], rdx                       ; Move 64-bit value
    mov	qword ptr [rsp], rcx                           ; Move 64-bit value
    mov	rax, qword ptr [rsp]                           ; Move 64-bit value
    mov	rcx, qword ptr [rsp + 8]                       ; Move 64-bit value
    movsd	xmm0, qword ptr [rcx]           # xmm0 = mem[0],zero ; Load 64-bit double
    movsd	qword ptr [rax], xmm0                        ; Load 64-bit double
    mov	rcx, qword ptr [rsp + 16]                      ; Move 64-bit value
    movsd	xmm0, qword ptr [rcx]           # xmm0 = mem[0],zero ; Load 64-bit double
    movsd	qword ptr [rax + 8], xmm0                    ; Load 64-bit double
    add	rsp, 24
    ret                                                ; Return from function
    .seh_endproc
    .section	.text,"xr",discard,"??1?$vector@U?$pair@OO@std@@V?$allocator@U?$pair@OO@std@@@2@@std@@QEAA@XZ"
.globl	"??1?$vector@U?$pair@OO@std@@V?$allocator@U?$pair@OO@std@@@2@@std@@QEAA@XZ" # -- Begin function ??1?$vector@U?$pair@OO@std@@V?$allocator@U?$pair@OO@std@@@2@@std@@QEAA@XZ
    .p2align	4, 0x90
    "??1?$vector@U?$pair@OO@std@@V?$allocator@U?$pair@OO@std@@@2@@std@@QEAA@XZ": # @"??1?$vector@U?$pair@OO@std@@V?$allocator@U?$pair@OO@std@@@2@@std@@QEAA@XZ"
    .seh_proc "??1?$vector@U?$pair@OO@std@@V?$allocator@U?$pair@OO@std@@@2@@std@@QEAA@XZ"
# %bb.0:
    sub	rsp, 40
    .seh_stackalloc 40
    .seh_endprologue
    mov	qword ptr [rsp + 32], rcx                      ; Move 64-bit value
    mov	rcx, qword ptr [rsp + 32]                      ; Move 64-bit value
    call	"?_Tidy@?$vector@U?$pair@OO@std@@V?$allocator@U?$pair@OO@std@@@2@@std@@AEAAXXZ" ; Function call
    nop
    add	rsp, 40
    ret                                                ; Return from function
    .seh_endproc
    .section	.text,"xr",discard,"??1?$vector@OV?$allocator@O@std@@@std@@QEAA@XZ"
.globl	"??1?$vector@OV?$allocator@O@std@@@std@@QEAA@XZ" # -- Begin function ??1?$vector@OV?$allocator@O@std@@@std@@QEAA@XZ
    .p2align	4, 0x90
    "??1?$vector@OV?$allocator@O@std@@@std@@QEAA@XZ": # @"??1?$vector@OV?$allocator@O@std@@@std@@QEAA@XZ"
    .seh_proc "??1?$vector@OV?$allocator@O@std@@@std@@QEAA@XZ"
# %bb.0:
    sub	rsp, 40
    .seh_stackalloc 40
    .seh_endprologue
    mov	qword ptr [rsp + 32], rcx                      ; Move 64-bit value
    mov	rcx, qword ptr [rsp + 32]                      ; Move 64-bit value
    call	"?_Tidy@?$vector@OV?$allocator@O@std@@@std@@AEAAXXZ" ; Function call
    nop
    add	rsp, 40
    ret                                                ; Return from function
    .seh_endproc
    .text
.globl	"?merge_intervals@@YA?AV?$vector@U?$pair@OO@std@@V?$allocator@U?$pair@OO@std@@@2@@std@@AEAV12@@Z" # -- Begin function ?merge_intervals@@YA?AV?$vector@U?$pair@OO@std@@V?$allocator@U?$pair@OO@std@@@2@@std@@AEAV12@@Z
    .p2align	4, 0x90
    "?merge_intervals@@YA?AV?$vector@U?$pair@OO@std@@V?$allocator@U?$pair@OO@std@@@2@@std@@AEAV12@@Z": # @"?merge_intervals@@YA?AV?$vector@U?$pair@OO@std@@V?$allocator@U?$pair@OO@std@@@2@@std@@AEAV12@@Z"
    .Lfunc_begin2:
    .seh_proc "?merge_intervals@@YA?AV?$vector@U?$pair@OO@std@@V?$allocator@U?$pair@OO@std@@@2@@std@@AEAV12@@Z"
    .seh_handler __CxxFrameHandler3, @unwind, @except
# %bb.0:
    push	rbp                                           ; Push to stack
    .seh_pushreg rbp                                   ; Push to stack
    sub	rsp, 144
    .seh_stackalloc 144
    lea	rbp, [rsp + 128]
    .seh_setframe rbp, 128
    .seh_endprologue
    mov	qword ptr [rbp + 8], -2                        ; Move 64-bit value
    mov	qword ptr [rbp - 56], rcx       # 8-byte Spill ; Move 64-bit value
    mov	rax, rcx
    mov	qword ptr [rbp - 48], rax       # 8-byte Spill ; Move 64-bit value
    mov	qword ptr [rbp], rcx                           ; Move 64-bit value
    mov	qword ptr [rbp - 8], rdx                       ; Move 64-bit value
    mov	rcx, qword ptr [rbp - 8]                       ; Move 64-bit value
    call	"?empty@?$vector@U?$pair@OO@std@@V?$allocator@U?$pair@OO@std@@@2@@std@@QEBA_NXZ" ; Function call
    test	al, 1                                         ; Test values
    jne	.LBB43_1                                       ; Jump instruction
    jmp	.LBB43_2                                       ; Jump instruction
    .LBB43_1:
    mov	rcx, qword ptr [rbp - 56]       # 8-byte Reload ; Move 64-bit value
    call	"??0?$vector@U?$pair@OO@std@@V?$allocator@U?$pair@OO@std@@@2@@std@@QEAA@XZ" ; Function call
    jmp	.LBB43_16                                      ; Jump instruction
    .LBB43_2:
    mov	rcx, qword ptr [rbp - 8]                       ; Move 64-bit value
    lea	rdx, [rbp - 16]
    call	"?end@?$vector@U?$pair@OO@std@@V?$allocator@U?$pair@OO@std@@@2@@std@@QEAA?AV?$_Vector_iterator@V?$_Vector_val@U?$_Simple_types@U?$pair@OO@std@@@std@@@std@@@2@XZ" ; Function call
    mov	rcx, qword ptr [rbp - 8]                       ; Move 64-bit value
    lea	rdx, [rbp - 24]
    call	"?begin@?$vector@U?$pair@OO@std@@V?$allocator@U?$pair@OO@std@@@2@@std@@QEAA?AV?$_Vector_iterator@V?$_Vector_val@U?$_Simple_types@U?$pair@OO@std@@@std@@@std@@@2@XZ" ; Function call
    mov	rcx, qword ptr [rbp - 24]                      ; Move 64-bit value
    mov	rdx, qword ptr [rbp - 16]                      ; Move 64-bit value
    call	"??$sort@V?$_Vector_iterator@V?$_Vector_val@U?$_Simple_types@U?$pair@OO@std@@@std@@@std@@@std@@@std@@YAXV?$_Vector_iterator@V?$_Vector_val@U?$_Simple_types@U?$pair@OO@std@@@std@@@std@@@0@0@Z" ; Function call
    mov	rcx, qword ptr [rbp - 56]       # 8-byte Reload ; Move 64-bit value
    mov	byte ptr [rbp - 25], 0
    call	"??0?$vector@U?$pair@OO@std@@V?$allocator@U?$pair@OO@std@@@2@@std@@QEAA@XZ" ; Function call
    mov	rcx, qword ptr [rbp - 8]                       ; Move 64-bit value
    call	"?empty@?$vector@U?$pair@OO@std@@V?$allocator@U?$pair@OO@std@@@2@@std@@QEBA_NXZ" ; Function call
    test	al, 1                                         ; Test values
    jne	.LBB43_12                                      ; Jump instruction
# %bb.3:
    mov	rcx, qword ptr [rbp - 8]                       ; Move 64-bit value
    xor	eax, eax
    mov	edx, eax
    call	"??A?$vector@U?$pair@OO@std@@V?$allocator@U?$pair@OO@std@@@2@@std@@QEAAAEAU?$pair@OO@1@_K@Z" ; Function call
    mov	rcx, qword ptr [rbp - 56]       # 8-byte Reload ; Move 64-bit value
    mov	rdx, rax
    .Ltmp22:
    call	"?push_back@?$vector@U?$pair@OO@std@@V?$allocator@U?$pair@OO@std@@@2@@std@@QEAAXAEBU?$pair@OO@2@@Z" ; Push to stack
    .Ltmp23:
    jmp	.LBB43_4                                       ; Jump instruction
    .LBB43_4:
    mov	qword ptr [rbp - 40], 1                        ; Move 64-bit value
    .LBB43_5:                               # =>This Inner Loop Header: Depth=1
    mov	rax, qword ptr [rbp - 40]                      ; Move 64-bit value
    mov	qword ptr [rbp - 64], rax       # 8-byte Spill ; Move 64-bit value
    mov	rcx, qword ptr [rbp - 8]                       ; Move 64-bit value
    call	"?size@?$vector@U?$pair@OO@std@@V?$allocator@U?$pair@OO@std@@@2@@std@@QEBA_KXZ" ; Function call
    mov	rcx, rax
    mov	rax, qword ptr [rbp - 64]       # 8-byte Reload ; Move 64-bit value
    cmp	rax, rcx                                       ; Compare values
    jae	.LBB43_11                                      ; Jump instruction
# %bb.6:                                #   in Loop: Header=BB43_5 Depth=1
    mov	rcx, qword ptr [rbp - 8]                       ; Move 64-bit value
    mov	rdx, qword ptr [rbp - 40]                      ; Move 64-bit value
    call	"??A?$vector@U?$pair@OO@std@@V?$allocator@U?$pair@OO@std@@@2@@std@@QEAAAEAU?$pair@OO@1@_K@Z" ; Function call
    mov	rcx, qword ptr [rbp - 56]       # 8-byte Reload ; Move 64-bit value
    movsd	xmm0, qword ptr [rax]           # xmm0 = mem[0],zero ; Load 64-bit double
    movsd	qword ptr [rbp - 72], xmm0      # 8-byte Spill ; Load 64-bit double
    call	"?back@?$vector@U?$pair@OO@std@@V?$allocator@U?$pair@OO@std@@@2@@std@@QEAAAEAU?$pair@OO@2@XZ" ; Function call
    movsd	xmm1, qword ptr [rbp - 72]      # 8-byte Reload ; Load 64-bit double
# xmm1 = mem[0],zero
    movsd	xmm0, qword ptr [rip + __real@3e112e0be826d695] # xmm0 = [1.0000000000000001E-9,0.0E+0] ; Load 64-bit double
    addsd	xmm0, qword ptr [rax + 8]                    ; Add two doubles
    ucomisd	xmm0, xmm1
    jb	.LBB43_8                                        ; Jump instruction
# %bb.7:                                #   in Loop: Header=BB43_5 Depth=1
    mov	rcx, qword ptr [rbp - 8]                       ; Move 64-bit value
    mov	rdx, qword ptr [rbp - 40]                      ; Move 64-bit value
    call	"??A?$vector@U?$pair@OO@std@@V?$allocator@U?$pair@OO@std@@@2@@std@@QEAAAEAU?$pair@OO@1@_K@Z" ; Function call
    mov	rcx, qword ptr [rbp - 56]       # 8-byte Reload ; Move 64-bit value
    add	rax, 8
    mov	qword ptr [rbp - 88], rax       # 8-byte Spill ; Move 64-bit value
    call	"?back@?$vector@U?$pair@OO@std@@V?$allocator@U?$pair@OO@std@@@2@@std@@QEAAAEAU?$pair@OO@2@XZ" ; Function call
    mov	rdx, qword ptr [rbp - 88]       # 8-byte Reload ; Move 64-bit value
    mov	rcx, rax
    add	rcx, 8
    call	"??$max@O@std@@YAAEBOAEBO0@Z"                 ; Function call
    mov	rcx, qword ptr [rbp - 56]       # 8-byte Reload ; Move 64-bit value
    movsd	xmm0, qword ptr [rax]           # xmm0 = mem[0],zero ; Load 64-bit double
    movsd	qword ptr [rbp - 80], xmm0      # 8-byte Spill ; Load 64-bit double
    call	"?back@?$vector@U?$pair@OO@std@@V?$allocator@U?$pair@OO@std@@@2@@std@@QEAAAEAU?$pair@OO@2@XZ" ; Function call
    movsd	xmm0, qword ptr [rbp - 80]      # 8-byte Reload ; Load 64-bit double
# xmm0 = mem[0],zero
    movsd	qword ptr [rax + 8], xmm0                    ; Load 64-bit double
    jmp	.LBB43_10                                      ; Jump instruction
    .LBB43_8:                               #   in Loop: Header=BB43_5 Depth=1
    mov	rcx, qword ptr [rbp - 8]                       ; Move 64-bit value
    mov	rdx, qword ptr [rbp - 40]                      ; Move 64-bit value
    call	"??A?$vector@U?$pair@OO@std@@V?$allocator@U?$pair@OO@std@@@2@@std@@QEAAAEAU?$pair@OO@1@_K@Z" ; Function call
    mov	rcx, qword ptr [rbp - 56]       # 8-byte Reload ; Move 64-bit value
    mov	rdx, rax
    .Ltmp24:
    call	"?push_back@?$vector@U?$pair@OO@std@@V?$allocator@U?$pair@OO@std@@@2@@std@@QEAAXAEBU?$pair@OO@2@@Z" ; Push to stack
    .Ltmp25:
    jmp	.LBB43_9                                       ; Jump instruction
    .LBB43_9:                               #   in Loop: Header=BB43_5 Depth=1
    jmp	.LBB43_10                                      ; Jump instruction
    .LBB43_10:                              #   in Loop: Header=BB43_5 Depth=1
    mov	rax, qword ptr [rbp - 40]                      ; Move 64-bit value
    add	rax, 1
    mov	qword ptr [rbp - 40], rax                      ; Move 64-bit value
    jmp	.LBB43_5                                       ; Jump instruction
    .LBB43_11:
    jmp	.LBB43_12                                      ; Jump instruction
    .LBB43_12:
    mov	byte ptr [rbp - 25], 1
    test	byte ptr [rbp - 25], 1                        ; Test values
    jne	.LBB43_14                                      ; Jump instruction
# %bb.13:
    mov	rcx, qword ptr [rbp - 56]       # 8-byte Reload ; Move 64-bit value
    call	"??1?$vector@U?$pair@OO@std@@V?$allocator@U?$pair@OO@std@@@2@@std@@QEAA@XZ" ; Function call
    .LBB43_14:
    jmp	.LBB43_16                                      ; Jump instruction
    .LBB43_16:
    mov	rax, qword ptr [rbp - 48]       # 8-byte Reload ; Move 64-bit value
    add	rsp, 144
    pop	rbp                                            ; Pop from stack
    ret                                                ; Return from function
    .seh_handlerdata
    .long	("$cppxdata$?merge_intervals@@YA?AV?$vector@U?$pair@OO@std@@V?$allocator@U?$pair@OO@std@@@2@@std@@AEAV12@@Z")@IMGREL
    .text
    .seh_endproc
    .p2align	4, 0x90
    "?dtor$15@?0??merge_intervals@@YA?AV?$vector@U?$pair@OO@std@@V?$allocator@U?$pair@OO@std@@@2@@std@@AEAV12@@Z@4HA":
    .seh_proc "?dtor$15@?0??merge_intervals@@YA?AV?$vector@U?$pair@OO@std@@V?$allocator@U?$pair@OO@std@@@2@@std@@AEAV12@@Z@4HA"
    .LBB43_15:
    mov	qword ptr [rsp + 16], rdx                      ; Move 64-bit value
    push	rbp                                           ; Push to stack
    .seh_pushreg rbp                                   ; Push to stack
    sub	rsp, 32
    .seh_stackalloc 32
    lea	rbp, [rdx + 128]
    .seh_endprologue
    mov	rcx, qword ptr [rbp - 56]       # 8-byte Reload ; Move 64-bit value
    call	"??1?$vector@U?$pair@OO@std@@V?$allocator@U?$pair@OO@std@@@2@@std@@QEAA@XZ" ; Function call
    nop
    add	rsp, 32
    pop	rbp                                            ; Pop from stack
    ret                                     # CLEANUPRET ; Return from function
    .Lfunc_end2:
    .seh_handlerdata
    .text
    .seh_endproc
    .section	.xdata,"dr"
    .p2align	2, 0x0
    "$cppxdata$?merge_intervals@@YA?AV?$vector@U?$pair@OO@std@@V?$allocator@U?$pair@OO@std@@@2@@std@@AEAV12@@Z":
    .long	429065506                       # MagicNumber
    .long	1                               # MaxState
    .long	("$stateUnwindMap$?merge_intervals@@YA?AV?$vector@U?$pair@OO@std@@V?$allocator@U?$pair@OO@std@@@2@@std@@AEAV12@@Z")@IMGREL # UnwindMap
    .long	0                               # NumTryBlocks
    .long	0                               # TryBlockMap
    .long	3                               # IPMapEntries
    .long	("$ip2state$?merge_intervals@@YA?AV?$vector@U?$pair@OO@std@@V?$allocator@U?$pair@OO@std@@@2@@std@@AEAV12@@Z")@IMGREL # IPToStateXData
    .long	136                             # UnwindHelp
    .long	0                               # ESTypeList
    .long	1                               # EHFlags
    "$stateUnwindMap$?merge_intervals@@YA?AV?$vector@U?$pair@OO@std@@V?$allocator@U?$pair@OO@std@@@2@@std@@AEAV12@@Z":
    .long	-1                              # ToState
    .long	"?dtor$15@?0??merge_intervals@@YA?AV?$vector@U?$pair@OO@std@@V?$allocator@U?$pair@OO@std@@@2@@std@@AEAV12@@Z@4HA"@IMGREL # Action
    "$ip2state$?merge_intervals@@YA?AV?$vector@U?$pair@OO@std@@V?$allocator@U?$pair@OO@std@@@2@@std@@AEAV12@@Z":
    .long	.Lfunc_begin2@IMGREL            # IP
    .long	-1                              # ToState
    .long	.Ltmp22@IMGREL+1                # IP
    .long	0                               # ToState
    .long	.Ltmp25@IMGREL+1                # IP
    .long	-1                              # ToState
    .text
    .section	.text,"xr",discard,"?empty@?$vector@U?$pair@OO@std@@V?$allocator@U?$pair@OO@std@@@2@@std@@QEBA_NXZ"
.globl	"?empty@?$vector@U?$pair@OO@std@@V?$allocator@U?$pair@OO@std@@@2@@std@@QEBA_NXZ" # -- Begin function ?empty@?$vector@U?$pair@OO@std@@V?$allocator@U?$pair@OO@std@@@2@@std@@QEBA_NXZ
    .p2align	4, 0x90
    "?empty@?$vector@U?$pair@OO@std@@V?$allocator@U?$pair@OO@std@@@2@@std@@QEBA_NXZ": # @"?empty@?$vector@U?$pair@OO@std@@V?$allocator@U?$pair@OO@std@@@2@@std@@QEBA_NXZ"
    .seh_proc "?empty@?$vector@U?$pair@OO@std@@V?$allocator@U?$pair@OO@std@@@2@@std@@QEBA_NXZ"
# %bb.0:
    sub	rsp, 16
    .seh_stackalloc 16
    .seh_endprologue
    mov	qword ptr [rsp + 8], rcx                       ; Move 64-bit value
    mov	rax, qword ptr [rsp + 8]                       ; Move 64-bit value
    mov	qword ptr [rsp], rax                           ; Move 64-bit value
    mov	rax, qword ptr [rsp]                           ; Move 64-bit value
    mov	rax, qword ptr [rax]                           ; Move 64-bit value
    mov	rcx, qword ptr [rsp]                           ; Move 64-bit value
    cmp	rax, qword ptr [rcx + 8]                       ; Compare values
    sete	al
    and	al, 1
    add	rsp, 16
    ret                                                ; Return from function
    .seh_endproc
    .section	.text,"xr",discard,"??$sort@V?$_Vector_iterator@V?$_Vector_val@U?$_Simple_types@U?$pair@OO@std@@@std@@@std@@@std@@@std@@YAXV?$_Vector_iterator@V?$_Vector_val@U?$_Simple_types@U?$pair@OO@std@@@std@@@std@@@0@0@Z"
.globl	"??$sort@V?$_Vector_iterator@V?$_Vector_val@U?$_Simple_types@U?$pair@OO@std@@@std@@@std@@@std@@@std@@YAXV?$_Vector_iterator@V?$_Vector_val@U?$_Simple_types@U?$pair@OO@std@@@std@@@std@@@0@0@Z" # -- Begin function ??$sort@V?$_Vector_iterator@V?$_Vector_val@U?$_Simple_types@U?$pair@OO@std@@@std@@@std@@@std@@@std@@YAXV?$_Vector_iterator@V?$_Vector_val@U?$_Simple_types@U?$pair@OO@std@@@std@@@std@@@0@0@Z
    .p2align	4, 0x90
    "??$sort@V?$_Vector_iterator@V?$_Vector_val@U?$_Simple_types@U?$pair@OO@std@@@std@@@std@@@std@@@std@@YAXV?$_Vector_iterator@V?$_Vector_val@U?$_Simple_types@U?$pair@OO@std@@@std@@@std@@@0@0@Z": # @"??$sort@V?$_Vector_iterator@V?$_Vector_val@U?$_Simple_types@U?$pair@OO@std@@@std@@@std@@@std@@@std@@YAXV?$_Vector_iterator@V?$_Vector_val@U?$_Simple_types@U?$pair@OO@std@@@std@@@std@@@0@0@Z"
    .seh_proc "??$sort@V?$_Vector_iterator@V?$_Vector_val@U?$_Simple_types@U?$pair@OO@std@@@std@@@std@@@std@@@std@@YAXV?$_Vector_iterator@V?$_Vector_val@U?$_Simple_types@U?$pair@OO@std@@@std@@@std@@@0@0@Z"
# %bb.0:
    sub	rsp, 72
    .seh_stackalloc 72
    .seh_endprologue
    mov	qword ptr [rsp + 64], rcx                      ; Move 64-bit value
    mov	qword ptr [rsp + 56], rdx                      ; Move 64-bit value
    mov	rax, qword ptr [rsp + 56]                      ; Move 64-bit value
    mov	qword ptr [rsp + 40], rax                      ; Move 64-bit value
    mov	rax, qword ptr [rsp + 64]                      ; Move 64-bit value
    mov	qword ptr [rsp + 32], rax                      ; Move 64-bit value
    mov	rcx, qword ptr [rsp + 32]                      ; Move 64-bit value
    mov	rdx, qword ptr [rsp + 40]                      ; Move 64-bit value
    mov	r8b, byte ptr [rsp + 55]
    call	"??$sort@V?$_Vector_iterator@V?$_Vector_val@U?$_Simple_types@U?$pair@OO@std@@@std@@@std@@@std@@U?$less@X@2@@std@@YAXV?$_Vector_iterator@V?$_Vector_val@U?$_Simple_types@U?$pair@OO@std@@@std@@@std@@@0@0U?$less@X@0@@Z" ; Function call
    nop
    add	rsp, 72
    ret                                                ; Return from function
    .seh_endproc
    .section	.text,"xr",discard,"?end@?$vector@U?$pair@OO@std@@V?$allocator@U?$pair@OO@std@@@2@@std@@QEAA?AV?$_Vector_iterator@V?$_Vector_val@U?$_Simple_types@U?$pair@OO@std@@@std@@@std@@@2@XZ"
.globl	"?end@?$vector@U?$pair@OO@std@@V?$allocator@U?$pair@OO@std@@@2@@std@@QEAA?AV?$_Vector_iterator@V?$_Vector_val@U?$_Simple_types@U?$pair@OO@std@@@std@@@std@@@2@XZ" # -- Begin function ?end@?$vector@U?$pair@OO@std@@V?$allocator@U?$pair@OO@std@@@2@@std@@QEAA?AV?$_Vector_iterator@V?$_Vector_val@U?$_Simple_types@U?$pair@OO@std@@@std@@@std@@@2@XZ
    .p2align	4, 0x90
    "?end@?$vector@U?$pair@OO@std@@V?$allocator@U?$pair@OO@std@@@2@@std@@QEAA?AV?$_Vector_iterator@V?$_Vector_val@U?$_Simple_types@U?$pair@OO@std@@@std@@@std@@@2@XZ": # @"?end@?$vector@U?$pair@OO@std@@V?$allocator@U?$pair@OO@std@@@2@@std@@QEAA?AV?$_Vector_iterator@V?$_Vector_val@U?$_Simple_types@U?$pair@OO@std@@@std@@@std@@@2@XZ"
    .seh_proc "?end@?$vector@U?$pair@OO@std@@V?$allocator@U?$pair@OO@std@@@2@@std@@QEAA?AV?$_Vector_iterator@V?$_Vector_val@U?$_Simple_types@U?$pair@OO@std@@@std@@@std@@@2@XZ"
# %bb.0:
    sub	rsp, 72
    .seh_stackalloc 72
    .seh_endprologue
    mov	qword ptr [rsp + 32], rdx       # 8-byte Spill ; Move 64-bit value
    mov	rax, rcx
    mov	rcx, qword ptr [rsp + 32]       # 8-byte Reload ; Move 64-bit value
    mov	rdx, rcx
    mov	qword ptr [rsp + 40], rdx       # 8-byte Spill ; Move 64-bit value
    mov	qword ptr [rsp + 64], rcx                      ; Move 64-bit value
    mov	qword ptr [rsp + 56], rax                      ; Move 64-bit value
    mov	rax, qword ptr [rsp + 56]                      ; Move 64-bit value
    mov	qword ptr [rsp + 48], rax                      ; Move 64-bit value
    mov	r8, qword ptr [rsp + 48]                       ; Move 64-bit value
    mov	rax, qword ptr [rsp + 48]                      ; Move 64-bit value
    mov	rdx, qword ptr [rax + 8]                       ; Move 64-bit value
    call	"??0?$_Vector_iterator@V?$_Vector_val@U?$_Simple_types@U?$pair@OO@std@@@std@@@std@@@std@@QEAA@PEAU?$pair@OO@1@PEBU_Container_base0@1@@Z" ; Function call
# kill: def $rcx killed $rax
    mov	rax, qword ptr [rsp + 40]       # 8-byte Reload ; Move 64-bit value
    add	rsp, 72
    ret                                                ; Return from function
    .seh_endproc
    .section	.text,"xr",discard,"?begin@?$vector@U?$pair@OO@std@@V?$allocator@U?$pair@OO@std@@@2@@std@@QEAA?AV?$_Vector_iterator@V?$_Vector_val@U?$_Simple_types@U?$pair@OO@std@@@std@@@std@@@2@XZ"
.globl	"?begin@?$vector@U?$pair@OO@std@@V?$allocator@U?$pair@OO@std@@@2@@std@@QEAA?AV?$_Vector_iterator@V?$_Vector_val@U?$_Simple_types@U?$pair@OO@std@@@std@@@std@@@2@XZ" # -- Begin function ?begin@?$vector@U?$pair@OO@std@@V?$allocator@U?$pair@OO@std@@@2@@std@@QEAA?AV?$_Vector_iterator@V?$_Vector_val@U?$_Simple_types@U?$pair@OO@std@@@std@@@std@@@2@XZ
    .p2align	4, 0x90
    "?begin@?$vector@U?$pair@OO@std@@V?$allocator@U?$pair@OO@std@@@2@@std@@QEAA?AV?$_Vector_iterator@V?$_Vector_val@U?$_Simple_types@U?$pair@OO@std@@@std@@@std@@@2@XZ": # @"?begin@?$vector@U?$pair@OO@std@@V?$allocator@U?$pair@OO@std@@@2@@std@@QEAA?AV?$_Vector_iterator@V?$_Vector_val@U?$_Simple_types@U?$pair@OO@std@@@std@@@std@@@2@XZ"
    .seh_proc "?begin@?$vector@U?$pair@OO@std@@V?$allocator@U?$pair@OO@std@@@2@@std@@QEAA?AV?$_Vector_iterator@V?$_Vector_val@U?$_Simple_types@U?$pair@OO@std@@@std@@@std@@@2@XZ"
# %bb.0:
    sub	rsp, 72
    .seh_stackalloc 72
    .seh_endprologue
    mov	qword ptr [rsp + 32], rdx       # 8-byte Spill ; Move 64-bit value
    mov	rax, rcx
    mov	rcx, qword ptr [rsp + 32]       # 8-byte Reload ; Move 64-bit value
    mov	rdx, rcx
    mov	qword ptr [rsp + 40], rdx       # 8-byte Spill ; Move 64-bit value
    mov	qword ptr [rsp + 64], rcx                      ; Move 64-bit value
    mov	qword ptr [rsp + 56], rax                      ; Move 64-bit value
    mov	rax, qword ptr [rsp + 56]                      ; Move 64-bit value
    mov	qword ptr [rsp + 48], rax                      ; Move 64-bit value
    mov	r8, qword ptr [rsp + 48]                       ; Move 64-bit value
    mov	rax, qword ptr [rsp + 48]                      ; Move 64-bit value
    mov	rdx, qword ptr [rax]                           ; Move 64-bit value
    call	"??0?$_Vector_iterator@V?$_Vector_val@U?$_Simple_types@U?$pair@OO@std@@@std@@@std@@@std@@QEAA@PEAU?$pair@OO@1@PEBU_Container_base0@1@@Z" ; Function call
# kill: def $rcx killed $rax
    mov	rax, qword ptr [rsp + 40]       # 8-byte Reload ; Move 64-bit value
    add	rsp, 72
    ret                                                ; Return from function
    .seh_endproc
    .section	.text,"xr",discard,"?push_back@?$vector@U?$pair@OO@std@@V?$allocator@U?$pair@OO@std@@@2@@std@@QEAAXAEBU?$pair@OO@2@@Z" ; Push to stack
.globl	"?push_back@?$vector@U?$pair@OO@std@@V?$allocator@U?$pair@OO@std@@@2@@std@@QEAAXAEBU?$pair@OO@2@@Z" # -- Begin function ?push_back@?$vector@U?$pair@OO@std@@V?$allocator@U?$pair@OO@std@@@2@@std@@QEAAXAEBU?$pair@OO@2@@Z
    .p2align	4, 0x90
    "?push_back@?$vector@U?$pair@OO@std@@V?$allocator@U?$pair@OO@std@@@2@@std@@QEAAXAEBU?$pair@OO@2@@Z": # @"?push_back@?$vector@U?$pair@OO@std@@V?$allocator@U?$pair@OO@std@@@2@@std@@QEAAXAEBU?$pair@OO@2@@Z" ; Push to stack
    .seh_proc "?push_back@?$vector@U?$pair@OO@std@@V?$allocator@U?$pair@OO@std@@@2@@std@@QEAAXAEBU?$pair@OO@2@@Z" ; Push to stack
# %bb.0:
    sub	rsp, 56
    .seh_stackalloc 56
    .seh_endprologue
    mov	qword ptr [rsp + 48], rdx                      ; Move 64-bit value
    mov	qword ptr [rsp + 40], rcx                      ; Move 64-bit value
    mov	rcx, qword ptr [rsp + 40]                      ; Move 64-bit value
    mov	rdx, qword ptr [rsp + 48]                      ; Move 64-bit value
    call	"??$_Emplace_one_at_back@AEBU?$pair@OO@std@@@?$vector@U?$pair@OO@std@@V?$allocator@U?$pair@OO@std@@@2@@std@@AEAAAEAU?$pair@OO@1@AEBU21@@Z" ; Function call
    nop
    add	rsp, 56
    ret                                                ; Return from function
    .seh_endproc
    .section	.text,"xr",discard,"??A?$vector@U?$pair@OO@std@@V?$allocator@U?$pair@OO@std@@@2@@std@@QEAAAEAU?$pair@OO@1@_K@Z"
.globl	"??A?$vector@U?$pair@OO@std@@V?$allocator@U?$pair@OO@std@@@2@@std@@QEAAAEAU?$pair@OO@1@_K@Z" # -- Begin function ??A?$vector@U?$pair@OO@std@@V?$allocator@U?$pair@OO@std@@@2@@std@@QEAAAEAU?$pair@OO@1@_K@Z
    .p2align	4, 0x90
    "??A?$vector@U?$pair@OO@std@@V?$allocator@U?$pair@OO@std@@@2@@std@@QEAAAEAU?$pair@OO@1@_K@Z": # @"??A?$vector@U?$pair@OO@std@@V?$allocator@U?$pair@OO@std@@@2@@std@@QEAAAEAU?$pair@OO@1@_K@Z"
    .seh_proc "??A?$vector@U?$pair@OO@std@@V?$allocator@U?$pair@OO@std@@@2@@std@@QEAAAEAU?$pair@OO@1@_K@Z"
# %bb.0:
    sub	rsp, 24
    .seh_stackalloc 24
    .seh_endprologue
    mov	qword ptr [rsp + 16], rdx                      ; Move 64-bit value
    mov	qword ptr [rsp + 8], rcx                       ; Move 64-bit value
    mov	rax, qword ptr [rsp + 8]                       ; Move 64-bit value
    mov	qword ptr [rsp], rax                           ; Move 64-bit value
    mov	rax, qword ptr [rsp]                           ; Move 64-bit value
    mov	rax, qword ptr [rax]                           ; Move 64-bit value
    mov	rcx, qword ptr [rsp + 16]                      ; Move 64-bit value
    shl	rcx, 4
    add	rax, rcx
    add	rsp, 24
    ret                                                ; Return from function
    .seh_endproc
    .section	.text,"xr",discard,"?size@?$vector@U?$pair@OO@std@@V?$allocator@U?$pair@OO@std@@@2@@std@@QEBA_KXZ"
.globl	"?size@?$vector@U?$pair@OO@std@@V?$allocator@U?$pair@OO@std@@@2@@std@@QEBA_KXZ" # -- Begin function ?size@?$vector@U?$pair@OO@std@@V?$allocator@U?$pair@OO@std@@@2@@std@@QEBA_KXZ
    .p2align	4, 0x90
    "?size@?$vector@U?$pair@OO@std@@V?$allocator@U?$pair@OO@std@@@2@@std@@QEBA_KXZ": # @"?size@?$vector@U?$pair@OO@std@@V?$allocator@U?$pair@OO@std@@@2@@std@@QEBA_KXZ"
    .seh_proc "?size@?$vector@U?$pair@OO@std@@V?$allocator@U?$pair@OO@std@@@2@@std@@QEBA_KXZ"
# %bb.0:
    sub	rsp, 16
    .seh_stackalloc 16
    .seh_endprologue
    mov	qword ptr [rsp + 8], rcx                       ; Move 64-bit value
    mov	rax, qword ptr [rsp + 8]                       ; Move 64-bit value
    mov	qword ptr [rsp], rax                           ; Move 64-bit value
    mov	rax, qword ptr [rsp]                           ; Move 64-bit value
    mov	rax, qword ptr [rax + 8]                       ; Move 64-bit value
    mov	rcx, qword ptr [rsp]                           ; Move 64-bit value
    mov	rcx, qword ptr [rcx]                           ; Move 64-bit value
    sub	rax, rcx
    sar	rax, 4
    add	rsp, 16
    ret                                                ; Return from function
    .seh_endproc
    .section	.text,"xr",discard,"?back@?$vector@U?$pair@OO@std@@V?$allocator@U?$pair@OO@std@@@2@@std@@QEAAAEAU?$pair@OO@2@XZ"
.globl	"?back@?$vector@U?$pair@OO@std@@V?$allocator@U?$pair@OO@std@@@2@@std@@QEAAAEAU?$pair@OO@2@XZ" # -- Begin function ?back@?$vector@U?$pair@OO@std@@V?$allocator@U?$pair@OO@std@@@2@@std@@QEAAAEAU?$pair@OO@2@XZ
    .p2align	4, 0x90
    "?back@?$vector@U?$pair@OO@std@@V?$allocator@U?$pair@OO@std@@@2@@std@@QEAAAEAU?$pair@OO@2@XZ": # @"?back@?$vector@U?$pair@OO@std@@V?$allocator@U?$pair@OO@std@@@2@@std@@QEAAAEAU?$pair@OO@2@XZ"
    .seh_proc "?back@?$vector@U?$pair@OO@std@@V?$allocator@U?$pair@OO@std@@@2@@std@@QEAAAEAU?$pair@OO@2@XZ"
# %bb.0:
    sub	rsp, 16
    .seh_stackalloc 16
    .seh_endprologue
    mov	qword ptr [rsp + 8], rcx                       ; Move 64-bit value
    mov	rax, qword ptr [rsp + 8]                       ; Move 64-bit value
    mov	qword ptr [rsp], rax                           ; Move 64-bit value
    mov	rax, qword ptr [rsp]                           ; Move 64-bit value
    mov	rax, qword ptr [rax + 8]                       ; Move 64-bit value
    add	rax, -16
    add	rsp, 16
    ret                                                ; Return from function
    .seh_endproc
.globl	__real@3fefffffff768fa1         # -- Begin function ?is_arc_safe@@YA_NAEBUPoint@@0AEBV?$vector@UPoint@@V?$allocator@UPoint@@@std@@@std@@O@Z
    .section	.rdata,"dr",discard,__real@3fefffffff768fa1
    .p2align	3, 0x0
    __real@3fefffffff768fa1:
    .quad	0x3fefffffff768fa1              # double 0.99999999900000002
    .text
.globl	"?is_arc_safe@@YA_NAEBUPoint@@0AEBV?$vector@UPoint@@V?$allocator@UPoint@@@std@@@std@@O@Z"
    .p2align	4, 0x90
    "?is_arc_safe@@YA_NAEBUPoint@@0AEBV?$vector@UPoint@@V?$allocator@UPoint@@@std@@@std@@O@Z": # @"?is_arc_safe@@YA_NAEBUPoint@@0AEBV?$vector@UPoint@@V?$allocator@UPoint@@@std@@@std@@O@Z"
    .Lfunc_begin3:
    .seh_proc "?is_arc_safe@@YA_NAEBUPoint@@0AEBV?$vector@UPoint@@V?$allocator@UPoint@@@std@@@std@@O@Z"
    .seh_handler __CxxFrameHandler3, @unwind, @except
# %bb.0:
    push	rbp                                           ; Push to stack
    .seh_pushreg rbp                                   ; Push to stack
    sub	rsp, 304
    .seh_stackalloc 304
    lea	rbp, [rsp + 128]
    .seh_setframe rbp, 128
    .seh_endprologue
    mov	qword ptr [rbp + 168], -2                      ; Move 64-bit value
    movsd	qword ptr [rbp + 152], xmm3                  ; Load 64-bit double
    mov	qword ptr [rbp + 144], r8                      ; Move 64-bit value
    mov	qword ptr [rbp + 136], rdx                     ; Move 64-bit value
    mov	qword ptr [rbp + 128], rcx                     ; Move 64-bit value
    mov	rdx, qword ptr [rbp + 136]                     ; Move 64-bit value
    mov	rcx, qword ptr [rbp + 128]                     ; Move 64-bit value
    call	"?dist_xyz@@YAOAEBUPoint@@0@Z"                ; Function call
    movsd	qword ptr [rbp + 120], xmm0                  ; Load 64-bit double
    movsd	xmm0, qword ptr [rip + __real@3e112e0be826d695] # xmm0 = [1.0000000000000001E-9,0.0E+0] ; Load 64-bit double
    ucomisd	xmm0, qword ptr [rbp + 120]
    jbe	.LBB52_2                                       ; Jump instruction
# %bb.1:
    mov	byte ptr [rbp + 167], 1
    jmp	.LBB52_21                                      ; Jump instruction
    .LBB52_2:
    lea	rcx, [rbp + 96]
    call	"??0?$vector@U?$pair@OO@std@@V?$allocator@U?$pair@OO@std@@@2@@std@@QEAA@XZ" ; Function call
    mov	rax, qword ptr [rbp + 144]                     ; Move 64-bit value
    mov	qword ptr [rbp + 88], rax                      ; Move 64-bit value
    mov	rcx, qword ptr [rbp + 88]                      ; Move 64-bit value
    lea	rdx, [rbp + 80]
    call	"?begin@?$vector@UPoint@@V?$allocator@UPoint@@@std@@@std@@QEBA?AV?$_Vector_const_iterator@V?$_Vector_val@U?$_Simple_types@UPoint@@@std@@@std@@@2@XZ" ; Function call
    mov	rcx, qword ptr [rbp + 88]                      ; Move 64-bit value
    lea	rdx, [rbp + 72]
    call	"?end@?$vector@UPoint@@V?$allocator@UPoint@@@std@@@std@@QEBA?AV?$_Vector_const_iterator@V?$_Vector_val@U?$_Simple_types@UPoint@@@std@@@std@@@2@XZ" ; Function call
    .LBB52_3:                               # =>This Inner Loop Header: Depth=1
    lea	rcx, [rbp + 80]
    lea	rdx, [rbp + 72]
    call	"??9?$_Vector_const_iterator@V?$_Vector_val@U?$_Simple_types@UPoint@@@std@@@std@@@std@@QEBA_NAEBV01@@Z" ; Function call
    test	al, 1                                         ; Test values
    jne	.LBB52_4                                       ; Jump instruction
    jmp	.LBB52_8                                       ; Jump instruction
    .LBB52_4:                               #   in Loop: Header=BB52_3 Depth=1
    lea	rcx, [rbp + 80]
    call	"??D?$_Vector_const_iterator@V?$_Vector_val@U?$_Simple_types@UPoint@@@std@@@std@@@std@@QEBAAEBUPoint@@XZ" ; Function call
    mov	qword ptr [rbp + 64], rax                      ; Move 64-bit value
    movsd	xmm0, qword ptr [rbp + 152]     # xmm0 = mem[0],zero ; Load 64-bit double
    mov	r9, qword ptr [rbp + 64]                       ; Move 64-bit value
    mov	r8, qword ptr [rbp + 136]                      ; Move 64-bit value
    mov	rdx, qword ptr [rbp + 128]                     ; Move 64-bit value
    .Ltmp28:
    mov	rax, rsp
    movsd	qword ptr [rax + 32], xmm0                   ; Load 64-bit double
    lea	rcx, [rbp + 40]
    call	"?get_covered_intervals@@YA?AV?$vector@U?$pair@OO@std@@V?$allocator@U?$pair@OO@std@@@2@@std@@AEBUPoint@@00O@Z" ; Function call
    .Ltmp29:
    jmp	.LBB52_5                                       ; Jump instruction
    .LBB52_5:                               #   in Loop: Header=BB52_3 Depth=1
    lea	rcx, [rbp + 40]
    mov	qword ptr [rbp - 88], rcx       # 8-byte Spill ; Move 64-bit value
    lea	rdx, [rbp + 32]
    call	"?end@?$vector@U?$pair@OO@std@@V?$allocator@U?$pair@OO@std@@@2@@std@@QEAA?AV?$_Vector_iterator@V?$_Vector_val@U?$_Simple_types@U?$pair@OO@std@@@std@@@std@@@2@XZ" ; Function call
    mov	rcx, qword ptr [rbp - 88]       # 8-byte Reload ; Move 64-bit value
    lea	rdx, [rbp + 24]
    call	"?begin@?$vector@U?$pair@OO@std@@V?$allocator@U?$pair@OO@std@@@2@@std@@QEAA?AV?$_Vector_iterator@V?$_Vector_val@U?$_Simple_types@U?$pair@OO@std@@@std@@@std@@@2@XZ" ; Function call
    lea	rcx, [rbp + 96]
    mov	qword ptr [rbp - 80], rcx       # 8-byte Spill ; Move 64-bit value
    lea	rdx, [rbp + 8]
    call	"?end@?$vector@U?$pair@OO@std@@V?$allocator@U?$pair@OO@std@@@2@@std@@QEAA?AV?$_Vector_iterator@V?$_Vector_val@U?$_Simple_types@U?$pair@OO@std@@@std@@@std@@@2@XZ" ; Function call
    mov	rcx, qword ptr [rbp - 80]       # 8-byte Reload ; Move 64-bit value
    mov	rax, qword ptr [rbp + 8]                       ; Move 64-bit value
    mov	qword ptr [rbp + 16], rax                      ; Move 64-bit value
    mov	r8, qword ptr [rbp + 16]                       ; Move 64-bit value
    mov	r9, qword ptr [rbp + 24]                       ; Move 64-bit value
    mov	rdx, qword ptr [rbp + 32]                      ; Move 64-bit value
    .Ltmp30:
    mov	rax, rsp
    mov	qword ptr [rax + 32], rdx                      ; Move 64-bit value
    mov	rdx, rbp
    call	"??$insert@V?$_Vector_iterator@V?$_Vector_val@U?$_Simple_types@U?$pair@OO@std@@@std@@@std@@@std@@$0A@@?$vector@U?$pair@OO@std@@V?$allocator@U?$pair@OO@std@@@2@@std@@QEAA?AV?$_Vector_iterator@V?$_Vector_val@U?$_Simple_types@U?$pair@OO@std@@@std@@@std@@@1@V?$_Vector_const_iterator@V?$_Vector_val@U?$_Simple_types@U?$pair@OO@std@@@std@@@std@@@1@V21@1@Z" ; Function call
    .Ltmp31:
    jmp	.LBB52_6                                       ; Jump instruction
    .LBB52_6:                               #   in Loop: Header=BB52_3 Depth=1
    lea	rcx, [rbp + 40]
    call	"??1?$vector@U?$pair@OO@std@@V?$allocator@U?$pair@OO@std@@@2@@std@@QEAA@XZ" ; Function call
    lea	rcx, [rbp + 80]
    call	"??E?$_Vector_const_iterator@V?$_Vector_val@U?$_Simple_types@UPoint@@@std@@@std@@@std@@QEAAAEAV01@XZ" ; Function call
    jmp	.LBB52_3                                       ; Jump instruction
    .LBB52_8:
    .Ltmp26:
    lea	rcx, [rbp - 24]
    lea	rdx, [rbp + 96]
    call	"?merge_intervals@@YA?AV?$vector@U?$pair@OO@std@@V?$allocator@U?$pair@OO@std@@@2@@std@@AEAV12@@Z" ; Function call
    .Ltmp27:
    jmp	.LBB52_9                                       ; Jump instruction
    .LBB52_9:
    lea	rcx, [rbp - 24]
    call	"?empty@?$vector@U?$pair@OO@std@@V?$allocator@U?$pair@OO@std@@@2@@std@@QEBA_NXZ" ; Function call
    test	al, 1                                         ; Test values
    jne	.LBB52_10                                      ; Jump instruction
    jmp	.LBB52_11                                      ; Jump instruction
    .LBB52_10:
    mov	byte ptr [rbp + 167], 0
    mov	dword ptr [rbp - 28], 1                        ; Move 32-bit value
    jmp	.LBB52_19                                      ; Jump instruction
    .LBB52_11:
    xorps	xmm0, xmm0
    movsd	qword ptr [rbp - 40], xmm0                   ; Load 64-bit double
    lea	rax, [rbp - 24]
    mov	qword ptr [rbp - 48], rax                      ; Move 64-bit value
    mov	rcx, qword ptr [rbp - 48]                      ; Move 64-bit value
    lea	rdx, [rbp - 56]
    call	"?begin@?$vector@U?$pair@OO@std@@V?$allocator@U?$pair@OO@std@@@2@@std@@QEAA?AV?$_Vector_iterator@V?$_Vector_val@U?$_Simple_types@U?$pair@OO@std@@@std@@@std@@@2@XZ" ; Function call
    mov	rcx, qword ptr [rbp - 48]                      ; Move 64-bit value
    lea	rdx, [rbp - 64]
    call	"?end@?$vector@U?$pair@OO@std@@V?$allocator@U?$pair@OO@std@@@2@@std@@QEAA?AV?$_Vector_iterator@V?$_Vector_val@U?$_Simple_types@U?$pair@OO@std@@@std@@@std@@@2@XZ" ; Function call
    .LBB52_12:                              # =>This Inner Loop Header: Depth=1
    lea	rcx, [rbp - 56]
    lea	rdx, [rbp - 64]
    call	"??9?$_Vector_const_iterator@V?$_Vector_val@U?$_Simple_types@U?$pair@OO@std@@@std@@@std@@@std@@QEBA_NAEBV01@@Z" ; Function call
    test	al, 1                                         ; Test values
    jne	.LBB52_13                                      ; Jump instruction
    jmp	.LBB52_16                                      ; Jump instruction
    .LBB52_13:                              #   in Loop: Header=BB52_12 Depth=1
    lea	rcx, [rbp - 56]
    call	"??D?$_Vector_iterator@V?$_Vector_val@U?$_Simple_types@U?$pair@OO@std@@@std@@@std@@@std@@QEBAAEAU?$pair@OO@1@XZ" ; Function call
    mov	qword ptr [rbp - 72], rax                      ; Move 64-bit value
    mov	rax, qword ptr [rbp - 72]                      ; Move 64-bit value
    movsd	xmm0, qword ptr [rax]           # xmm0 = mem[0],zero ; Load 64-bit double
    movsd	xmm1, qword ptr [rip + __real@3e112e0be826d695] # xmm1 = [1.0000000000000001E-9,0.0E+0] ; Load 64-bit double
    addsd	xmm1, qword ptr [rbp - 40]                   ; Add two doubles
    ucomisd	xmm0, xmm1
    jbe	.LBB52_15                                      ; Jump instruction
# %bb.14:
    mov	byte ptr [rbp + 167], 0
    mov	dword ptr [rbp - 28], 1                        ; Move 32-bit value
    jmp	.LBB52_19                                      ; Jump instruction
    .LBB52_15:                              #   in Loop: Header=BB52_12 Depth=1
    mov	rdx, qword ptr [rbp - 72]                      ; Move 64-bit value
    add	rdx, 8
    lea	rcx, [rbp - 40]
    call	"??$max@O@std@@YAAEBOAEBO0@Z"                 ; Function call
    movsd	xmm0, qword ptr [rax]           # xmm0 = mem[0],zero ; Load 64-bit double
    movsd	qword ptr [rbp - 40], xmm0                   ; Load 64-bit double
    lea	rcx, [rbp - 56]
    call	"??E?$_Vector_iterator@V?$_Vector_val@U?$_Simple_types@U?$pair@OO@std@@@std@@@std@@@std@@QEAAAEAV01@XZ" ; Function call
    jmp	.LBB52_12                                      ; Jump instruction
    .LBB52_16:
    movsd	xmm0, qword ptr [rip + __real@3fefffffff768fa1] # xmm0 = [9.9999999900000002E-1,0.0E+0] ; Load 64-bit double
    ucomisd	xmm0, qword ptr [rbp - 40]
    jbe	.LBB52_18                                      ; Jump instruction
# %bb.17:
    mov	byte ptr [rbp + 167], 0
    mov	dword ptr [rbp - 28], 1                        ; Move 32-bit value
    jmp	.LBB52_19                                      ; Jump instruction
    .LBB52_18:
    mov	byte ptr [rbp + 167], 1
    mov	dword ptr [rbp - 28], 1                        ; Move 32-bit value
    .LBB52_19:
    lea	rcx, [rbp - 24]
    call	"??1?$vector@U?$pair@OO@std@@V?$allocator@U?$pair@OO@std@@@2@@std@@QEAA@XZ" ; Function call
    lea	rcx, [rbp + 96]
    call	"??1?$vector@U?$pair@OO@std@@V?$allocator@U?$pair@OO@std@@@2@@std@@QEAA@XZ" ; Function call
    jmp	.LBB52_21                                      ; Jump instruction
    .LBB52_21:
    mov	al, byte ptr [rbp + 167]
    and	al, 1
    add	rsp, 304
    pop	rbp                                            ; Pop from stack
    ret                                                ; Return from function
    .seh_handlerdata
    .long	("$cppxdata$?is_arc_safe@@YA_NAEBUPoint@@0AEBV?$vector@UPoint@@V?$allocator@UPoint@@@std@@@std@@O@Z")@IMGREL
    .text
    .seh_endproc
    .p2align	4, 0x90
    "?dtor$7@?0??is_arc_safe@@YA_NAEBUPoint@@0AEBV?$vector@UPoint@@V?$allocator@UPoint@@@std@@@std@@O@Z@4HA":
    .seh_proc "?dtor$7@?0??is_arc_safe@@YA_NAEBUPoint@@0AEBV?$vector@UPoint@@V?$allocator@UPoint@@@std@@@std@@O@Z@4HA"
    .LBB52_7:
    mov	qword ptr [rsp + 16], rdx                      ; Move 64-bit value
    push	rbp                                           ; Push to stack
    .seh_pushreg rbp                                   ; Push to stack
    sub	rsp, 48
    .seh_stackalloc 48
    lea	rbp, [rdx + 128]
    .seh_endprologue
    lea	rcx, [rbp + 40]
    call	"??1?$vector@U?$pair@OO@std@@V?$allocator@U?$pair@OO@std@@@2@@std@@QEAA@XZ" ; Function call
    nop
    add	rsp, 48
    pop	rbp                                            ; Pop from stack
    ret                                     # CLEANUPRET ; Return from function
    .seh_handlerdata
    .text
    .seh_endproc
    .p2align	4, 0x90
    "?dtor$20@?0??is_arc_safe@@YA_NAEBUPoint@@0AEBV?$vector@UPoint@@V?$allocator@UPoint@@@std@@@std@@O@Z@4HA":
    .seh_proc "?dtor$20@?0??is_arc_safe@@YA_NAEBUPoint@@0AEBV?$vector@UPoint@@V?$allocator@UPoint@@@std@@@std@@O@Z@4HA"
    .LBB52_20:
    mov	qword ptr [rsp + 16], rdx                      ; Move 64-bit value
    push	rbp                                           ; Push to stack
    .seh_pushreg rbp                                   ; Push to stack
    sub	rsp, 48
    .seh_stackalloc 48
    lea	rbp, [rdx + 128]
    .seh_endprologue
    lea	rcx, [rbp + 96]
    call	"??1?$vector@U?$pair@OO@std@@V?$allocator@U?$pair@OO@std@@@2@@std@@QEAA@XZ" ; Function call
    nop
    add	rsp, 48
    pop	rbp                                            ; Pop from stack
    ret                                     # CLEANUPRET ; Return from function
    .Lfunc_end3:
    .seh_handlerdata
    .text
    .seh_endproc
    .section	.xdata,"dr"
    .p2align	2, 0x0
    "$cppxdata$?is_arc_safe@@YA_NAEBUPoint@@0AEBV?$vector@UPoint@@V?$allocator@UPoint@@@std@@@std@@O@Z":
    .long	429065506                       # MagicNumber
    .long	2                               # MaxState
    .long	("$stateUnwindMap$?is_arc_safe@@YA_NAEBUPoint@@0AEBV?$vector@UPoint@@V?$allocator@UPoint@@@std@@@std@@O@Z")@IMGREL # UnwindMap
    .long	0                               # NumTryBlocks
    .long	0                               # TryBlockMap
    .long	5                               # IPMapEntries
    .long	("$ip2state$?is_arc_safe@@YA_NAEBUPoint@@0AEBV?$vector@UPoint@@V?$allocator@UPoint@@@std@@@std@@O@Z")@IMGREL # IPToStateXData
    .long	296                             # UnwindHelp
    .long	0                               # ESTypeList
    .long	1                               # EHFlags
    "$stateUnwindMap$?is_arc_safe@@YA_NAEBUPoint@@0AEBV?$vector@UPoint@@V?$allocator@UPoint@@@std@@@std@@O@Z":
    .long	-1                              # ToState
    .long	"?dtor$20@?0??is_arc_safe@@YA_NAEBUPoint@@0AEBV?$vector@UPoint@@V?$allocator@UPoint@@@std@@@std@@O@Z@4HA"@IMGREL # Action
    .long	0                               # ToState
    .long	"?dtor$7@?0??is_arc_safe@@YA_NAEBUPoint@@0AEBV?$vector@UPoint@@V?$allocator@UPoint@@@std@@@std@@O@Z@4HA"@IMGREL # Action
    "$ip2state$?is_arc_safe@@YA_NAEBUPoint@@0AEBV?$vector@UPoint@@V?$allocator@UPoint@@@std@@@std@@O@Z":
    .long	.Lfunc_begin3@IMGREL            # IP
    .long	-1                              # ToState
    .long	.Ltmp28@IMGREL+1                # IP
    .long	0                               # ToState
    .long	.Ltmp30@IMGREL+1                # IP
    .long	1                               # ToState
    .long	.Ltmp26@IMGREL+1                # IP
    .long	0                               # ToState
    .long	.Ltmp27@IMGREL+1                # IP
    .long	-1                              # ToState
    .text
    .section	.text,"xr",discard,"?begin@?$vector@UPoint@@V?$allocator@UPoint@@@std@@@std@@QEBA?AV?$_Vector_const_iterator@V?$_Vector_val@U?$_Simple_types@UPoint@@@std@@@std@@@2@XZ"
.globl	"?begin@?$vector@UPoint@@V?$allocator@UPoint@@@std@@@std@@QEBA?AV?$_Vector_const_iterator@V?$_Vector_val@U?$_Simple_types@UPoint@@@std@@@std@@@2@XZ" # -- Begin function ?begin@?$vector@UPoint@@V?$allocator@UPoint@@@std@@@std@@QEBA?AV?$_Vector_const_iterator@V?$_Vector_val@U?$_Simple_types@UPoint@@@std@@@std@@@2@XZ
    .p2align	4, 0x90
    "?begin@?$vector@UPoint@@V?$allocator@UPoint@@@std@@@std@@QEBA?AV?$_Vector_const_iterator@V?$_Vector_val@U?$_Simple_types@UPoint@@@std@@@std@@@2@XZ": # @"?begin@?$vector@UPoint@@V?$allocator@UPoint@@@std@@@std@@QEBA?AV?$_Vector_const_iterator@V?$_Vector_val@U?$_Simple_types@UPoint@@@std@@@std@@@2@XZ"
    .seh_proc "?begin@?$vector@UPoint@@V?$allocator@UPoint@@@std@@@std@@QEBA?AV?$_Vector_const_iterator@V?$_Vector_val@U?$_Simple_types@UPoint@@@std@@@std@@@2@XZ"
# %bb.0:
    sub	rsp, 72
    .seh_stackalloc 72
    .seh_endprologue
    mov	qword ptr [rsp + 32], rdx       # 8-byte Spill ; Move 64-bit value
    mov	rax, rcx
    mov	rcx, qword ptr [rsp + 32]       # 8-byte Reload ; Move 64-bit value
    mov	rdx, rcx
    mov	qword ptr [rsp + 40], rdx       # 8-byte Spill ; Move 64-bit value
    mov	qword ptr [rsp + 64], rcx                      ; Move 64-bit value
    mov	qword ptr [rsp + 56], rax                      ; Move 64-bit value
    mov	rax, qword ptr [rsp + 56]                      ; Move 64-bit value
    mov	qword ptr [rsp + 48], rax                      ; Move 64-bit value
    mov	r8, qword ptr [rsp + 48]                       ; Move 64-bit value
    mov	rax, qword ptr [rsp + 48]                      ; Move 64-bit value
    mov	rdx, qword ptr [rax]                           ; Move 64-bit value
    call	"??0?$_Vector_const_iterator@V?$_Vector_val@U?$_Simple_types@UPoint@@@std@@@std@@@std@@QEAA@PEAUPoint@@PEBU_Container_base0@1@@Z" ; Function call
# kill: def $rcx killed $rax
    mov	rax, qword ptr [rsp + 40]       # 8-byte Reload ; Move 64-bit value
    add	rsp, 72
    ret                                                ; Return from function
    .seh_endproc
    .section	.text,"xr",discard,"?end@?$vector@UPoint@@V?$allocator@UPoint@@@std@@@std@@QEBA?AV?$_Vector_const_iterator@V?$_Vector_val@U?$_Simple_types@UPoint@@@std@@@std@@@2@XZ"
.globl	"?end@?$vector@UPoint@@V?$allocator@UPoint@@@std@@@std@@QEBA?AV?$_Vector_const_iterator@V?$_Vector_val@U?$_Simple_types@UPoint@@@std@@@std@@@2@XZ" # -- Begin function ?end@?$vector@UPoint@@V?$allocator@UPoint@@@std@@@std@@QEBA?AV?$_Vector_const_iterator@V?$_Vector_val@U?$_Simple_types@UPoint@@@std@@@std@@@2@XZ
    .p2align	4, 0x90
    "?end@?$vector@UPoint@@V?$allocator@UPoint@@@std@@@std@@QEBA?AV?$_Vector_const_iterator@V?$_Vector_val@U?$_Simple_types@UPoint@@@std@@@std@@@2@XZ": # @"?end@?$vector@UPoint@@V?$allocator@UPoint@@@std@@@std@@QEBA?AV?$_Vector_const_iterator@V?$_Vector_val@U?$_Simple_types@UPoint@@@std@@@std@@@2@XZ"
    .seh_proc "?end@?$vector@UPoint@@V?$allocator@UPoint@@@std@@@std@@QEBA?AV?$_Vector_const_iterator@V?$_Vector_val@U?$_Simple_types@UPoint@@@std@@@std@@@2@XZ"
# %bb.0:
    sub	rsp, 72
    .seh_stackalloc 72
    .seh_endprologue
    mov	qword ptr [rsp + 32], rdx       # 8-byte Spill ; Move 64-bit value
    mov	rax, rcx
    mov	rcx, qword ptr [rsp + 32]       # 8-byte Reload ; Move 64-bit value
    mov	rdx, rcx
    mov	qword ptr [rsp + 40], rdx       # 8-byte Spill ; Move 64-bit value
    mov	qword ptr [rsp + 64], rcx                      ; Move 64-bit value
    mov	qword ptr [rsp + 56], rax                      ; Move 64-bit value
    mov	rax, qword ptr [rsp + 56]                      ; Move 64-bit value
    mov	qword ptr [rsp + 48], rax                      ; Move 64-bit value
    mov	r8, qword ptr [rsp + 48]                       ; Move 64-bit value
    mov	rax, qword ptr [rsp + 48]                      ; Move 64-bit value
    mov	rdx, qword ptr [rax + 8]                       ; Move 64-bit value
    call	"??0?$_Vector_const_iterator@V?$_Vector_val@U?$_Simple_types@UPoint@@@std@@@std@@@std@@QEAA@PEAUPoint@@PEBU_Container_base0@1@@Z" ; Function call
# kill: def $rcx killed $rax
    mov	rax, qword ptr [rsp + 40]       # 8-byte Reload ; Move 64-bit value
    add	rsp, 72
    ret                                                ; Return from function
    .seh_endproc
    .section	.text,"xr",discard,"??9?$_Vector_const_iterator@V?$_Vector_val@U?$_Simple_types@UPoint@@@std@@@std@@@std@@QEBA_NAEBV01@@Z"
.globl	"??9?$_Vector_const_iterator@V?$_Vector_val@U?$_Simple_types@UPoint@@@std@@@std@@@std@@QEBA_NAEBV01@@Z" # -- Begin function ??9?$_Vector_const_iterator@V?$_Vector_val@U?$_Simple_types@UPoint@@@std@@@std@@@std@@QEBA_NAEBV01@@Z
    .p2align	4, 0x90
    "??9?$_Vector_const_iterator@V?$_Vector_val@U?$_Simple_types@UPoint@@@std@@@std@@@std@@QEBA_NAEBV01@@Z": # @"??9?$_Vector_const_iterator@V?$_Vector_val@U?$_Simple_types@UPoint@@@std@@@std@@@std@@QEBA_NAEBV01@@Z"
    .seh_proc "??9?$_Vector_const_iterator@V?$_Vector_val@U?$_Simple_types@UPoint@@@std@@@std@@@std@@QEBA_NAEBV01@@Z"
# %bb.0:
    sub	rsp, 56
    .seh_stackalloc 56
    .seh_endprologue
    mov	qword ptr [rsp + 48], rdx                      ; Move 64-bit value
    mov	qword ptr [rsp + 40], rcx                      ; Move 64-bit value
    mov	rcx, qword ptr [rsp + 40]                      ; Move 64-bit value
    mov	rdx, qword ptr [rsp + 48]                      ; Move 64-bit value
    call	"??8?$_Vector_const_iterator@V?$_Vector_val@U?$_Simple_types@UPoint@@@std@@@std@@@std@@QEBA_NAEBV01@@Z" ; Function call
    xor	al, -1
    and	al, 1
    add	rsp, 56
    ret                                                ; Return from function
    .seh_endproc
    .section	.text,"xr",discard,"??D?$_Vector_const_iterator@V?$_Vector_val@U?$_Simple_types@UPoint@@@std@@@std@@@std@@QEBAAEBUPoint@@XZ"
.globl	"??D?$_Vector_const_iterator@V?$_Vector_val@U?$_Simple_types@UPoint@@@std@@@std@@@std@@QEBAAEBUPoint@@XZ" # -- Begin function ??D?$_Vector_const_iterator@V?$_Vector_val@U?$_Simple_types@UPoint@@@std@@@std@@@std@@QEBAAEBUPoint@@XZ
    .p2align	4, 0x90
    "??D?$_Vector_const_iterator@V?$_Vector_val@U?$_Simple_types@UPoint@@@std@@@std@@@std@@QEBAAEBUPoint@@XZ": # @"??D?$_Vector_const_iterator@V?$_Vector_val@U?$_Simple_types@UPoint@@@std@@@std@@@std@@QEBAAEBUPoint@@XZ"
    .seh_proc "??D?$_Vector_const_iterator@V?$_Vector_val@U?$_Simple_types@UPoint@@@std@@@std@@@std@@QEBAAEBUPoint@@XZ"
# %bb.0:
    push	rax                                           ; Push to stack
    .seh_stackalloc 8
    .seh_endprologue
    mov	qword ptr [rsp], rcx                           ; Move 64-bit value
    mov	rax, qword ptr [rsp]                           ; Move 64-bit value
    mov	rax, qword ptr [rax]                           ; Move 64-bit value
    pop	rcx                                            ; Pop from stack
    ret                                                ; Return from function
    .seh_endproc
    .section	.text,"xr",discard,"??$insert@V?$_Vector_iterator@V?$_Vector_val@U?$_Simple_types@U?$pair@OO@std@@@std@@@std@@@std@@$0A@@?$vector@U?$pair@OO@std@@V?$allocator@U?$pair@OO@std@@@2@@std@@QEAA?AV?$_Vector_iterator@V?$_Vector_val@U?$_Simple_types@U?$pair@OO@std@@@std@@@std@@@1@V?$_Vector_const_iterator@V?$_Vector_val@U?$_Simple_types@U?$pair@OO@std@@@std@@@std@@@1@V21@1@Z"
.globl	"??$insert@V?$_Vector_iterator@V?$_Vector_val@U?$_Simple_types@U?$pair@OO@std@@@std@@@std@@@std@@$0A@@?$vector@U?$pair@OO@std@@V?$allocator@U?$pair@OO@std@@@2@@std@@QEAA?AV?$_Vector_iterator@V?$_Vector_val@U?$_Simple_types@U?$pair@OO@std@@@std@@@std@@@1@V?$_Vector_const_iterator@V?$_Vector_val@U?$_Simple_types@U?$pair@OO@std@@@std@@@std@@@1@V21@1@Z" # -- Begin function ??$insert@V?$_Vector_iterator@V?$_Vector_val@U?$_Simple_types@U?$pair@OO@std@@@std@@@std@@@std@@$0A@@?$vector@U?$pair@OO@std@@V?$allocator@U?$pair@OO@std@@@2@@std@@QEAA?AV?$_Vector_iterator@V?$_Vector_val@U?$_Simple_types@U?$pair@OO@std@@@std@@@std@@@1@V?$_Vector_const_iterator@V?$_Vector_val@U?$_Simple_types@U?$pair@OO@std@@@std@@@std@@@1@V21@1@Z
    .p2align	4, 0x90
    "??$insert@V?$_Vector_iterator@V?$_Vector_val@U?$_Simple_types@U?$pair@OO@std@@@std@@@std@@@std@@$0A@@?$vector@U?$pair@OO@std@@V?$allocator@U?$pair@OO@std@@@2@@std@@QEAA?AV?$_Vector_iterator@V?$_Vector_val@U?$_Simple_types@U?$pair@OO@std@@@std@@@std@@@1@V?$_Vector_const_iterator@V?$_Vector_val@U?$_Simple_types@U?$pair@OO@std@@@std@@@std@@@1@V21@1@Z": # @"??$insert@V?$_Vector_iterator@V?$_Vector_val@U?$_Simple_types@U?$pair@OO@std@@@std@@@std@@@std@@$0A@@?$vector@U?$pair@OO@std@@V?$allocator@U?$pair@OO@std@@@2@@std@@QEAA?AV?$_Vector_iterator@V?$_Vector_val@U?$_Simple_types@U?$pair@OO@std@@@std@@@std@@@1@V?$_Vector_const_iterator@V?$_Vector_val@U?$_Simple_types@U?$pair@OO@std@@@std@@@std@@@1@V21@1@Z"
    .seh_proc "??$insert@V?$_Vector_iterator@V?$_Vector_val@U?$_Simple_types@U?$pair@OO@std@@@std@@@std@@@std@@$0A@@?$vector@U?$pair@OO@std@@V?$allocator@U?$pair@OO@std@@@2@@std@@QEAA?AV?$_Vector_iterator@V?$_Vector_val@U?$_Simple_types@U?$pair@OO@std@@@std@@@std@@@1@V?$_Vector_const_iterator@V?$_Vector_val@U?$_Simple_types@U?$pair@OO@std@@@std@@@std@@@1@V21@1@Z"
# %bb.0:
    sub	rsp, 168
    .seh_stackalloc 168
    .seh_endprologue
    mov	qword ptr [rsp + 40], rdx       # 8-byte Spill ; Move 64-bit value
    mov	rax, rdx
    mov	qword ptr [rsp + 48], rax       # 8-byte Spill ; Move 64-bit value
    mov	rax, qword ptr [rsp + 208]                     ; Move 64-bit value
    mov	qword ptr [rsp + 160], rdx                     ; Move 64-bit value
    mov	qword ptr [rsp + 152], r8                      ; Move 64-bit value
    mov	qword ptr [rsp + 144], r9                      ; Move 64-bit value
    mov	qword ptr [rsp + 136], rax                     ; Move 64-bit value
    mov	qword ptr [rsp + 128], rcx                     ; Move 64-bit value
    mov	rax, qword ptr [rsp + 128]                     ; Move 64-bit value
    mov	qword ptr [rsp + 32], rax       # 8-byte Spill ; Move 64-bit value
    mov	rcx, qword ptr [rsp + 152]                     ; Move 64-bit value
    mov	qword ptr [rsp + 120], rcx                     ; Move 64-bit value
    mov	qword ptr [rsp + 112], rax                     ; Move 64-bit value
    mov	rax, qword ptr [rsp + 112]                     ; Move 64-bit value
    mov	rax, qword ptr [rax]                           ; Move 64-bit value
    mov	qword ptr [rsp + 104], rax                     ; Move 64-bit value
    lea	rcx, [rsp + 144]
    lea	rdx, [rsp + 136]
    call	"??$_Adl_verify_range@V?$_Vector_iterator@V?$_Vector_val@U?$_Simple_types@U?$pair@OO@std@@@std@@@std@@@std@@V12@@std@@YAXAEBV?$_Vector_iterator@V?$_Vector_val@U?$_Simple_types@U?$pair@OO@std@@@std@@@std@@@0@0@Z" ; Function call
    lea	rcx, [rsp + 144]
    call	"??$_Get_unwrapped@AEAV?$_Vector_iterator@V?$_Vector_val@U?$_Simple_types@U?$pair@OO@std@@@std@@@std@@@std@@@std@@YA?A?<decltype-auto>@@AEAV?$_Vector_iterator@V?$_Vector_val@U?$_Simple_types@U?$pair@OO@std@@@std@@@std@@@0@@Z" ; Function call
    mov	qword ptr [rsp + 96], rax                      ; Move 64-bit value
    lea	rcx, [rsp + 136]
    call	"??$_Get_unwrapped@AEAV?$_Vector_iterator@V?$_Vector_val@U?$_Simple_types@U?$pair@OO@std@@@std@@@std@@@std@@@std@@YA?A?<decltype-auto>@@AEAV?$_Vector_iterator@V?$_Vector_val@U?$_Simple_types@U?$pair@OO@std@@@std@@@std@@@0@@Z" ; Function call
    mov	qword ptr [rsp + 88], rax                      ; Move 64-bit value
    mov	rax, qword ptr [rsp + 120]                     ; Move 64-bit value
    mov	rcx, qword ptr [rsp + 104]                     ; Move 64-bit value
    sub	rax, rcx
    sar	rax, 4
    mov	qword ptr [rsp + 80], rax                      ; Move 64-bit value
    mov	rdx, qword ptr [rsp + 88]                      ; Move 64-bit value
    mov	rcx, qword ptr [rsp + 96]                      ; Move 64-bit value
    call	"??$distance@PEAU?$pair@OO@std@@@std@@YA_JPEAU?$pair@OO@0@0@Z" ; Function call
    mov	qword ptr [rsp + 72], rax                      ; Move 64-bit value
    mov	rcx, qword ptr [rsp + 72]                      ; Move 64-bit value
    call	"??$_Convert_size@_K_K@std@@YA_K_K@Z"         ; Function call
    mov	rcx, qword ptr [rsp + 32]       # 8-byte Reload ; Move 64-bit value
    mov	qword ptr [rsp + 64], rax                      ; Move 64-bit value
    mov	r9, qword ptr [rsp + 64]                       ; Move 64-bit value
    mov	r8, qword ptr [rsp + 96]                       ; Move 64-bit value
    mov	rax, qword ptr [rsp + 152]                     ; Move 64-bit value
    mov	qword ptr [rsp + 56], rax                      ; Move 64-bit value
    mov	rdx, qword ptr [rsp + 56]                      ; Move 64-bit value
    call	"??$_Insert_counted_range@PEAU?$pair@OO@std@@@?$vector@U?$pair@OO@std@@V?$allocator@U?$pair@OO@std@@@2@@std@@AEAAXV?$_Vector_const_iterator@V?$_Vector_val@U?$_Simple_types@U?$pair@OO@std@@@std@@@std@@@1@PEAU?$pair@OO@1@_K@Z" ; Function call
    mov	rcx, qword ptr [rsp + 32]       # 8-byte Reload ; Move 64-bit value
    mov	rdx, qword ptr [rsp + 40]       # 8-byte Reload ; Move 64-bit value
    mov	r8, qword ptr [rsp + 80]                       ; Move 64-bit value
    call	"?_Make_iterator_offset@?$vector@U?$pair@OO@std@@V?$allocator@U?$pair@OO@std@@@2@@std@@AEAA?AV?$_Vector_iterator@V?$_Vector_val@U?$_Simple_types@U?$pair@OO@std@@@std@@@std@@@2@_K@Z" ; Function call
    mov	rax, qword ptr [rsp + 48]       # 8-byte Reload ; Move 64-bit value
    add	rsp, 168
    ret                                                ; Return from function
    .seh_endproc
    .section	.text,"xr",discard,"??E?$_Vector_const_iterator@V?$_Vector_val@U?$_Simple_types@UPoint@@@std@@@std@@@std@@QEAAAEAV01@XZ"
.globl	"??E?$_Vector_const_iterator@V?$_Vector_val@U?$_Simple_types@UPoint@@@std@@@std@@@std@@QEAAAEAV01@XZ" # -- Begin function ??E?$_Vector_const_iterator@V?$_Vector_val@U?$_Simple_types@UPoint@@@std@@@std@@@std@@QEAAAEAV01@XZ
    .p2align	4, 0x90
    "??E?$_Vector_const_iterator@V?$_Vector_val@U?$_Simple_types@UPoint@@@std@@@std@@@std@@QEAAAEAV01@XZ": # @"??E?$_Vector_const_iterator@V?$_Vector_val@U?$_Simple_types@UPoint@@@std@@@std@@@std@@QEAAAEAV01@XZ"
    .seh_proc "??E?$_Vector_const_iterator@V?$_Vector_val@U?$_Simple_types@UPoint@@@std@@@std@@@std@@QEAAAEAV01@XZ"
# %bb.0:
    push	rax                                           ; Push to stack
    .seh_stackalloc 8
    .seh_endprologue
    mov	qword ptr [rsp], rcx                           ; Move 64-bit value
    mov	rax, qword ptr [rsp]                           ; Move 64-bit value
    mov	rcx, qword ptr [rax]                           ; Move 64-bit value
    add	rcx, 24
    mov	qword ptr [rax], rcx                           ; Move 64-bit value
    pop	rcx                                            ; Pop from stack
    ret                                                ; Return from function
    .seh_endproc
    .section	.text,"xr",discard,"??9?$_Vector_const_iterator@V?$_Vector_val@U?$_Simple_types@U?$pair@OO@std@@@std@@@std@@@std@@QEBA_NAEBV01@@Z"
.globl	"??9?$_Vector_const_iterator@V?$_Vector_val@U?$_Simple_types@U?$pair@OO@std@@@std@@@std@@@std@@QEBA_NAEBV01@@Z" # -- Begin function ??9?$_Vector_const_iterator@V?$_Vector_val@U?$_Simple_types@U?$pair@OO@std@@@std@@@std@@@std@@QEBA_NAEBV01@@Z
    .p2align	4, 0x90
    "??9?$_Vector_const_iterator@V?$_Vector_val@U?$_Simple_types@U?$pair@OO@std@@@std@@@std@@@std@@QEBA_NAEBV01@@Z": # @"??9?$_Vector_const_iterator@V?$_Vector_val@U?$_Simple_types@U?$pair@OO@std@@@std@@@std@@@std@@QEBA_NAEBV01@@Z"
    .seh_proc "??9?$_Vector_const_iterator@V?$_Vector_val@U?$_Simple_types@U?$pair@OO@std@@@std@@@std@@@std@@QEBA_NAEBV01@@Z"
# %bb.0:
    sub	rsp, 56
    .seh_stackalloc 56
    .seh_endprologue
    mov	qword ptr [rsp + 48], rdx                      ; Move 64-bit value
    mov	qword ptr [rsp + 40], rcx                      ; Move 64-bit value
    mov	rcx, qword ptr [rsp + 40]                      ; Move 64-bit value
    mov	rdx, qword ptr [rsp + 48]                      ; Move 64-bit value
    call	"??8?$_Vector_const_iterator@V?$_Vector_val@U?$_Simple_types@U?$pair@OO@std@@@std@@@std@@@std@@QEBA_NAEBV01@@Z" ; Function call
    xor	al, -1
    and	al, 1
    add	rsp, 56
    ret                                                ; Return from function
    .seh_endproc
    .section	.text,"xr",discard,"??D?$_Vector_iterator@V?$_Vector_val@U?$_Simple_types@U?$pair@OO@std@@@std@@@std@@@std@@QEBAAEAU?$pair@OO@1@XZ"
.globl	"??D?$_Vector_iterator@V?$_Vector_val@U?$_Simple_types@U?$pair@OO@std@@@std@@@std@@@std@@QEBAAEAU?$pair@OO@1@XZ" # -- Begin function ??D?$_Vector_iterator@V?$_Vector_val@U?$_Simple_types@U?$pair@OO@std@@@std@@@std@@@std@@QEBAAEAU?$pair@OO@1@XZ
    .p2align	4, 0x90
    "??D?$_Vector_iterator@V?$_Vector_val@U?$_Simple_types@U?$pair@OO@std@@@std@@@std@@@std@@QEBAAEAU?$pair@OO@1@XZ": # @"??D?$_Vector_iterator@V?$_Vector_val@U?$_Simple_types@U?$pair@OO@std@@@std@@@std@@@std@@QEBAAEAU?$pair@OO@1@XZ"
    .seh_proc "??D?$_Vector_iterator@V?$_Vector_val@U?$_Simple_types@U?$pair@OO@std@@@std@@@std@@@std@@QEBAAEAU?$pair@OO@1@XZ"
# %bb.0:
    sub	rsp, 40
    .seh_stackalloc 40
    .seh_endprologue
    mov	qword ptr [rsp + 32], rcx                      ; Move 64-bit value
    mov	rcx, qword ptr [rsp + 32]                      ; Move 64-bit value
    call	"??D?$_Vector_const_iterator@V?$_Vector_val@U?$_Simple_types@U?$pair@OO@std@@@std@@@std@@@std@@QEBAAEBU?$pair@OO@1@XZ" ; Function call
    nop
    add	rsp, 40
    ret                                                ; Return from function
    .seh_endproc
    .section	.text,"xr",discard,"??E?$_Vector_iterator@V?$_Vector_val@U?$_Simple_types@U?$pair@OO@std@@@std@@@std@@@std@@QEAAAEAV01@XZ"
.globl	"??E?$_Vector_iterator@V?$_Vector_val@U?$_Simple_types@U?$pair@OO@std@@@std@@@std@@@std@@QEAAAEAV01@XZ" # -- Begin function ??E?$_Vector_iterator@V?$_Vector_val@U?$_Simple_types@U?$pair@OO@std@@@std@@@std@@@std@@QEAAAEAV01@XZ
    .p2align	4, 0x90
    "??E?$_Vector_iterator@V?$_Vector_val@U?$_Simple_types@U?$pair@OO@std@@@std@@@std@@@std@@QEAAAEAV01@XZ": # @"??E?$_Vector_iterator@V?$_Vector_val@U?$_Simple_types@U?$pair@OO@std@@@std@@@std@@@std@@QEAAAEAV01@XZ"
    .seh_proc "??E?$_Vector_iterator@V?$_Vector_val@U?$_Simple_types@U?$pair@OO@std@@@std@@@std@@@std@@QEAAAEAV01@XZ"
# %bb.0:
    sub	rsp, 56
    .seh_stackalloc 56
    .seh_endprologue
    mov	qword ptr [rsp + 48], rcx                      ; Move 64-bit value
    mov	rcx, qword ptr [rsp + 48]                      ; Move 64-bit value
    mov	qword ptr [rsp + 40], rcx       # 8-byte Spill ; Move 64-bit value
    call	"??E?$_Vector_const_iterator@V?$_Vector_val@U?$_Simple_types@U?$pair@OO@std@@@std@@@std@@@std@@QEAAAEAV01@XZ" ; Function call
# kill: def $rcx killed $rax
    mov	rax, qword ptr [rsp + 40]       # 8-byte Reload ; Move 64-bit value
    add	rsp, 56
    ret                                                ; Return from function
    .seh_endproc
; ----------------------------------------
; FUNCTION: main_program
; ----------------------------------------
; Main program: reads input, calculates distance, outputs result
.globl main_program
    .section	.rdata,"dr",discard,__real@7ff0000000000000
    .p2align	3, 0x0
    .quad	0x7ff0000000000000              # double +Inf
    .section	.rdata,"dr",discard,__real@40d38afc7e364350
    .p2align	3, 0x0
    .quad	0x40d38afc7e364350              # double 20011.94520336698
    .text
; ----------------------------------------
; FUNCTION: main_program
; ----------------------------------------
; Main program: reads input, calculates distance, outputs result
.globl main_program
    .p2align	4, 0x90
main_program:
; Begin main_program
    .seh_proc main_program
    .seh_handler __CxxFrameHandler3, @unwind, @except
    push	rbp                                           ; Push to stack
    .seh_pushreg rbp                                   ; Push to stack
    sub	rsp, 944
    .seh_stackalloc 944
    lea	rbp, [rsp + 128]
    .seh_setframe rbp, 128
    .seh_endprologue
    mov	qword ptr [rbp + 808], -2                      ; Move 64-bit value
    mov	dword ptr [rbp + 804], 0                       ; Move 32-bit value
    xor	ecx, ecx
    call	"?sync_with_stdio@ios_base@std@@SA_N_N@Z"     ; Function call
    mov	rax, qword ptr [rip + "?cin@std@@3V?$basic_istream@DU?$char_traits@D@std@@@1@A"] ; Move 64-bit value
    movsxd	rax, dword ptr [rax + 4]                    ; Move 32-bit value
    lea	rcx, [rip + "?cin@std@@3V?$basic_istream@DU?$char_traits@D@std@@@1@A"]
    add	rcx, rax
    xor	eax, eax
    mov	edx, eax
    call	"?tie@?$basic_ios@DU?$char_traits@D@std@@@std@@QEAAPEAV?$basic_ostream@DU?$char_traits@D@std@@@2@PEAV32@@Z" ; Function call
    lea	rcx, [rip + "?cout@std@@3V?$basic_ostream@DU?$char_traits@D@std@@@1@A"]
    lea	rdx, [rip + "?fixed@std@@YAAEAVios_base@1@AEAV21@@Z"]
    call	"??6?$basic_ostream@DU?$char_traits@D@std@@@std@@QEAAAEAV01@P6AAEAVios_base@1@AEAV21@@Z@Z" ; Function call
    mov	qword ptr [rbp + 200], rax      # 8-byte Spill ; Move 64-bit value
    lea	rcx, [rbp + 784]
    mov	edx, 3
    call	"?setprecision@std@@YA?AU?$_Smanip@_J@1@_J@Z" ; Function call
    mov	rcx, qword ptr [rbp + 200]      # 8-byte Reload ; Move 64-bit value
    lea	rdx, [rbp + 784]
    call	"??$?6DU?$char_traits@D@std@@@std@@YAAEAV?$basic_ostream@DU?$char_traits@D@std@@@0@AEAV10@AEBU?$_Smanip@_J@0@@Z" ; Function call
    mov	dword ptr [rbp + 772], 1                       ; Move 32-bit value
#     Child Loop BB62_3 Depth 2
#     Child Loop BB62_9 Depth 2
#     Child Loop BB62_13 Depth 2
#       Child Loop BB62_15 Depth 3
#         Child Loop BB62_18 Depth 4
#     Child Loop BB62_28 Depth 2
#     Child Loop BB62_32 Depth 2
#     Child Loop BB62_38 Depth 2
#     Child Loop BB62_42 Depth 2
#       Child Loop BB62_44 Depth 3
#     Child Loop BB62_58 Depth 2
#       Child Loop BB62_60 Depth 3
#         Child Loop BB62_62 Depth 4
#     Child Loop BB62_75 Depth 2
#       Child Loop BB62_82 Depth 3
#       Child Loop BB62_86 Depth 3
#         Child Loop BB62_88 Depth 4
#       Child Loop BB62_97 Depth 3
#         Child Loop BB62_99 Depth 4
#           Child Loop BB62_101 Depth 5
    lea	rcx, [rip + "?cin@std@@3V?$basic_istream@DU?$char_traits@D@std@@@1@A"]
    lea	rdx, [rbp + 780]
    call	"??5?$basic_istream@DU?$char_traits@D@std@@@std@@QEAAAEAV01@AEAH@Z" ; Function call
    mov	rcx, rax
    lea	rdx, [rbp + 760]
    call	"??5?$basic_istream@DU?$char_traits@D@std@@@std@@QEAAAEAV01@AEAO@Z" ; Function call
    mov	rcx, rax
    mov	rax, qword ptr [rcx]                           ; Move 64-bit value
    movsxd	rax, dword ptr [rax + 4]                    ; Move 32-bit value
    add	rcx, rax
    call	"??Bios_base@std@@QEBA_NXZ"                   ; Function call
    test	al, 1                                         ; Test values
    jne	.LBB62_2                                       ; Jump instruction
    jmp	.LBB62_124                                     ; Jump instruction
    lea	rcx, [rbp + 735]
    call	"??0?$allocator@UPoint@@@std@@QEAA@XZ"        ; Function call
    movsxd	rdx, dword ptr [rbp + 780]                  ; Move 32-bit value
    lea	rcx, [rbp + 736]
    lea	r8, [rbp + 735]
    call	"??0?$vector@UPoint@@V?$allocator@UPoint@@@std@@@std@@QEAA@_KAEBV?$allocator@UPoint@@@1@@Z" ; Function call
    mov	dword ptr [rbp + 728], 0                       ; Move 32-bit value
    mov	eax, dword ptr [rbp + 728]                     ; Move 32-bit value
    cmp	eax, dword ptr [rbp + 780]                     ; Compare values
    jge	.LBB62_7                                       ; Jump instruction
    lea	rcx, [rip + "?cin@std@@3V?$basic_istream@DU?$char_traits@D@std@@@1@A"]
    lea	rdx, [rbp + 712]
    call	"??5?$basic_istream@DU?$char_traits@D@std@@@std@@QEAAAEAV01@AEAO@Z" ; Function call
    mov	qword ptr [rbp + 192], rax      # 8-byte Spill ; Move 64-bit value
    jmp	.LBB62_5                                       ; Jump instruction
    mov	rcx, qword ptr [rbp + 192]      # 8-byte Reload ; Move 64-bit value
    lea	rdx, [rbp + 720]
    call	"??5?$basic_istream@DU?$char_traits@D@std@@@std@@QEAAAEAV01@AEAO@Z" ; Function call
    jmp	.LBB62_6                                       ; Jump instruction
    movsd	xmm2, qword ptr [rbp + 712]     # xmm2 = mem[0],zero ; Load 64-bit double
    movsd	xmm1, qword ptr [rbp + 720]     # xmm1 = mem[0],zero ; Load 64-bit double
    lea	rcx, [rbp + 688]
    call	"?lat_lon_to_xyz@@YA?AUPoint@@OO@Z"           ; Function call
    movsxd	rdx, dword ptr [rbp + 728]                  ; Move 32-bit value
    lea	rcx, [rbp + 736]
    call	"??A?$vector@UPoint@@V?$allocator@UPoint@@@std@@@std@@QEAAAEAUPoint@@_K@Z" ; Function call
    mov	rcx, qword ptr [rbp + 688]                     ; Move 64-bit value
    mov	qword ptr [rax], rcx                           ; Move 64-bit value
    mov	rcx, qword ptr [rbp + 696]                     ; Move 64-bit value
    mov	qword ptr [rax + 8], rcx                       ; Move 64-bit value
    mov	rcx, qword ptr [rbp + 704]                     ; Move 64-bit value
    mov	qword ptr [rax + 16], rcx                      ; Move 64-bit value
    mov	eax, dword ptr [rbp + 728]                     ; Move 32-bit value
    add	eax, 1
    mov	dword ptr [rbp + 728], eax                     ; Move 32-bit value
    jmp	.LBB62_3                                       ; Jump instruction
    lea	rcx, [rbp + 672]
    call	"??0?$set@UPoint@@UCompare@1@V?$allocator@UPoint@@@std@@@std@@QEAA@XZ" ; Function call
    jmp	.LBB62_8                                       ; Jump instruction
    lea	rax, [rbp + 736]
    mov	qword ptr [rbp + 664], rax                     ; Move 64-bit value
    mov	rcx, qword ptr [rbp + 664]                     ; Move 64-bit value
    lea	rdx, [rbp + 656]
    call	"?begin@?$vector@UPoint@@V?$allocator@UPoint@@@std@@@std@@QEAA?AV?$_Vector_iterator@V?$_Vector_val@U?$_Simple_types@UPoint@@@std@@@std@@@2@XZ" ; Function call
    mov	rcx, qword ptr [rbp + 664]                     ; Move 64-bit value
    lea	rdx, [rbp + 648]
    call	"?end@?$vector@UPoint@@V?$allocator@UPoint@@@std@@@std@@QEAA?AV?$_Vector_iterator@V?$_Vector_val@U?$_Simple_types@UPoint@@@std@@@std@@@2@XZ" ; Function call
    lea	rcx, [rbp + 656]
    lea	rdx, [rbp + 648]
    call	"??9?$_Vector_const_iterator@V?$_Vector_val@U?$_Simple_types@UPoint@@@std@@@std@@@std@@QEBA_NAEBV01@@Z" ; Function call
    test	al, 1                                         ; Test values
    jne	.LBB62_10                                      ; Jump instruction
    jmp	.LBB62_12                                      ; Jump instruction
    lea	rcx, [rbp + 656]
    call	"??D?$_Vector_iterator@V?$_Vector_val@U?$_Simple_types@UPoint@@@std@@@std@@@std@@QEBAAEAUPoint@@XZ" ; Function call
    mov	qword ptr [rbp + 640], rax                     ; Move 64-bit value
    mov	r8, qword ptr [rbp + 640]                      ; Move 64-bit value
    lea	rcx, [rbp + 672]
    lea	rdx, [rbp + 624]
    call	"??$insert@$0A@$0A@@?$_Tree@V?$_Tset_traits@UPoint@@UCompare@1@V?$allocator@UPoint@@@std@@$0A@@std@@@std@@QEAA?AU?$pair@V?$_Tree_const_iterator@V?$_Tree_val@U?$_Tree_simple_types@UPoint@@@std@@@std@@@std@@_N@1@AEBUPoint@@@Z" ; Function call
    jmp	.LBB62_11                                      ; Jump instruction
    lea	rcx, [rbp + 656]
    call	"??E?$_Vector_iterator@V?$_Vector_val@U?$_Simple_types@UPoint@@@std@@@std@@@std@@QEAAAEAV01@XZ" ; Function call
    jmp	.LBB62_9                                       ; Jump instruction
    mov	dword ptr [rbp + 620], 0                       ; Move 32-bit value
#       Child Loop BB62_15 Depth 3
#         Child Loop BB62_18 Depth 4
    mov	eax, dword ptr [rbp + 620]                     ; Move 32-bit value
    cmp	eax, dword ptr [rbp + 780]                     ; Compare values
    jge	.LBB62_24                                      ; Jump instruction
    mov	eax, dword ptr [rbp + 620]                     ; Move 32-bit value
    add	eax, 1
    mov	dword ptr [rbp + 616], eax                     ; Move 32-bit value
#     Parent Loop BB62_13 Depth=2
#         Child Loop BB62_18 Depth 4
    mov	eax, dword ptr [rbp + 616]                     ; Move 32-bit value
    cmp	eax, dword ptr [rbp + 780]                     ; Compare values
    jge	.LBB62_23                                      ; Jump instruction
    movsd	xmm0, qword ptr [rbp + 760]     # xmm0 = mem[0],zero ; Load 64-bit double
    movsd	qword ptr [rbp + 184], xmm0     # 8-byte Spill ; Load 64-bit double
    movsxd	rdx, dword ptr [rbp + 616]                  ; Move 32-bit value
    lea	rcx, [rbp + 736]
    mov	qword ptr [rbp + 168], rcx      # 8-byte Spill ; Move 64-bit value
    call	"??A?$vector@UPoint@@V?$allocator@UPoint@@@std@@@std@@QEAAAEAUPoint@@_K@Z" ; Function call
    mov	rcx, qword ptr [rbp + 168]      # 8-byte Reload ; Move 64-bit value
    mov	qword ptr [rbp + 176], rax      # 8-byte Spill ; Move 64-bit value
    movsxd	rdx, dword ptr [rbp + 620]                  ; Move 32-bit value
    call	"??A?$vector@UPoint@@V?$allocator@UPoint@@@std@@@std@@QEAAAEAUPoint@@_K@Z" ; Function call
    mov	r8, qword ptr [rbp + 176]       # 8-byte Reload ; Move 64-bit value
    movsd	xmm3, qword ptr [rbp + 184]     # 8-byte Reload ; Load 64-bit double
# xmm3 = mem[0],zero
    mov	rdx, rax
    lea	rcx, [rbp + 592]
    call	"?get_small_circle_intersections@@YA?AV?$vector@UPoint@@V?$allocator@UPoint@@@std@@@std@@AEBUPoint@@0O@Z" ; Function call
    jmp	.LBB62_17                                      ; Jump instruction
    lea	rax, [rbp + 592]
    mov	qword ptr [rbp + 584], rax                     ; Move 64-bit value
    mov	rcx, qword ptr [rbp + 584]                     ; Move 64-bit value
    lea	rdx, [rbp + 576]
    call	"?begin@?$vector@UPoint@@V?$allocator@UPoint@@@std@@@std@@QEAA?AV?$_Vector_iterator@V?$_Vector_val@U?$_Simple_types@UPoint@@@std@@@std@@@2@XZ" ; Function call
    mov	rcx, qword ptr [rbp + 584]                     ; Move 64-bit value
    lea	rdx, [rbp + 568]
    call	"?end@?$vector@UPoint@@V?$allocator@UPoint@@@std@@@std@@QEAA?AV?$_Vector_iterator@V?$_Vector_val@U?$_Simple_types@UPoint@@@std@@@std@@@2@XZ" ; Function call
#     Parent Loop BB62_13 Depth=2
#       Parent Loop BB62_15 Depth=3
    lea	rcx, [rbp + 576]
    lea	rdx, [rbp + 568]
    call	"??9?$_Vector_const_iterator@V?$_Vector_val@U?$_Simple_types@UPoint@@@std@@@std@@@std@@QEBA_NAEBV01@@Z" ; Function call
    test	al, 1                                         ; Test values
    jne	.LBB62_19                                      ; Jump instruction
    jmp	.LBB62_21                                      ; Jump instruction
    lea	rcx, [rbp + 576]
    call	"??D?$_Vector_iterator@V?$_Vector_val@U?$_Simple_types@UPoint@@@std@@@std@@@std@@QEBAAEAUPoint@@XZ" ; Function call
    mov	qword ptr [rbp + 560], rax                     ; Move 64-bit value
    mov	r8, qword ptr [rbp + 560]                      ; Move 64-bit value
    lea	rcx, [rbp + 672]
    lea	rdx, [rbp + 544]
    call	"??$insert@$0A@$0A@@?$_Tree@V?$_Tset_traits@UPoint@@UCompare@1@V?$allocator@UPoint@@@std@@$0A@@std@@@std@@QEAA?AU?$pair@V?$_Tree_const_iterator@V?$_Tree_val@U?$_Tree_simple_types@UPoint@@@std@@@std@@@std@@_N@1@AEBUPoint@@@Z" ; Function call
    jmp	.LBB62_20                                      ; Jump instruction
    lea	rcx, [rbp + 576]
    call	"??E?$_Vector_iterator@V?$_Vector_val@U?$_Simple_types@UPoint@@@std@@@std@@@std@@QEAAAEAV01@XZ" ; Function call
    jmp	.LBB62_18                                      ; Jump instruction
    lea	rcx, [rbp + 592]
    call	"??1?$vector@UPoint@@V?$allocator@UPoint@@@std@@@std@@QEAA@XZ" ; Function call
    mov	eax, dword ptr [rbp + 616]                     ; Move 32-bit value
    add	eax, 1
    mov	dword ptr [rbp + 616], eax                     ; Move 32-bit value
    jmp	.LBB62_15                                      ; Jump instruction
    mov	eax, dword ptr [rbp + 620]                     ; Move 32-bit value
    add	eax, 1
    mov	dword ptr [rbp + 620], eax                     ; Move 32-bit value
    jmp	.LBB62_13                                      ; Jump instruction
    lea	rcx, [rbp + 519]
    mov	qword ptr [rbp + 160], rcx      # 8-byte Spill ; Move 64-bit value
    call	"??0?$allocator@UPoint@@@std@@QEAA@XZ"        ; Function call
    lea	rcx, [rbp + 672]
    mov	qword ptr [rbp + 152], rcx      # 8-byte Spill ; Move 64-bit value
    lea	rdx, [rbp + 504]
    call	"?end@?$_Tree@V?$_Tset_traits@UPoint@@UCompare@1@V?$allocator@UPoint@@@std@@$0A@@std@@@std@@QEAA?AV?$_Tree_const_iterator@V?$_Tree_val@U?$_Tree_simple_types@UPoint@@@std@@@std@@@2@XZ" ; Function call
    mov	rcx, qword ptr [rbp + 152]      # 8-byte Reload ; Move 64-bit value
    lea	rdx, [rbp + 496]
    call	"?begin@?$_Tree@V?$_Tset_traits@UPoint@@UCompare@1@V?$allocator@UPoint@@@std@@$0A@@std@@@std@@QEAA?AV?$_Tree_const_iterator@V?$_Tree_val@U?$_Tree_simple_types@UPoint@@@std@@@std@@@2@XZ" ; Function call
    mov	r9, qword ptr [rbp + 160]       # 8-byte Reload ; Move 64-bit value
    mov	rdx, qword ptr [rbp + 496]                     ; Move 64-bit value
    mov	r8, qword ptr [rbp + 504]                      ; Move 64-bit value
    lea	rcx, [rbp + 520]
    call	"??$?0V?$_Tree_const_iterator@V?$_Tree_val@U?$_Tree_simple_types@UPoint@@@std@@@std@@@std@@$0A@@?$vector@UPoint@@V?$allocator@UPoint@@@std@@@std@@QEAA@V?$_Tree_const_iterator@V?$_Tree_val@U?$_Tree_simple_types@UPoint@@@std@@@std@@@1@0AEBV?$allocator@UPoint@@@1@@Z" ; Function call
    jmp	.LBB62_25                                      ; Jump instruction
    lea	rcx, [rbp + 480]
    call	"??0?$map@UPoint@@HUCompare@1@V?$allocator@U?$pair@$$CBUPoint@@H@std@@@std@@@std@@QEAA@XZ" ; Function call
    jmp	.LBB62_26                                      ; Jump instruction
    lea	rcx, [rbp + 455]
    mov	qword ptr [rbp + 144], rcx      # 8-byte Spill ; Move 64-bit value
    call	"??0?$allocator@H@std@@QEAA@XZ"               ; Function call
    mov	r8, qword ptr [rbp + 144]       # 8-byte Reload ; Move 64-bit value
    movsxd	rdx, dword ptr [rbp + 780]                  ; Move 32-bit value
    lea	rcx, [rbp + 456]
    call	"??0?$vector@HV?$allocator@H@std@@@std@@QEAA@_KAEBV?$allocator@H@1@@Z" ; Function call
    jmp	.LBB62_27                                      ; Jump instruction
    mov	dword ptr [rbp + 448], 0                       ; Move 32-bit value
    movsxd	rax, dword ptr [rbp + 448]                  ; Move 32-bit value
    mov	qword ptr [rbp + 136], rax      # 8-byte Spill ; Move 64-bit value
    lea	rcx, [rbp + 520]
    call	"?size@?$vector@UPoint@@V?$allocator@UPoint@@@std@@@std@@QEBA_KXZ" ; Function call
    mov	rcx, rax
    mov	rax, qword ptr [rbp + 136]      # 8-byte Reload ; Move 64-bit value
    cmp	rax, rcx                                       ; Compare values
    jae	.LBB62_31                                      ; Jump instruction
    mov	eax, dword ptr [rbp + 448]                     ; Move 32-bit value
    mov	dword ptr [rbp + 124], eax      # 4-byte Spill ; Move 32-bit value
    movsxd	rdx, eax
    lea	rcx, [rbp + 520]
    call	"??A?$vector@UPoint@@V?$allocator@UPoint@@@std@@@std@@QEAAAEAUPoint@@_K@Z" ; Function call
    mov	rdx, rax
    lea	rcx, [rbp + 480]
    call	"??A?$map@UPoint@@HUCompare@1@V?$allocator@U?$pair@$$CBUPoint@@H@std@@@std@@@std@@QEAAAEAHAEBUPoint@@@Z" ; Function call
    mov	qword ptr [rbp + 128], rax      # 8-byte Spill ; Move 64-bit value
    jmp	.LBB62_30                                      ; Jump instruction
    mov	rax, qword ptr [rbp + 128]      # 8-byte Reload ; Move 64-bit value
    mov	ecx, dword ptr [rbp + 124]      # 4-byte Reload ; Move 32-bit value
    mov	dword ptr [rax], ecx                           ; Move 32-bit value
    mov	eax, dword ptr [rbp + 448]                     ; Move 32-bit value
    add	eax, 1
    mov	dword ptr [rbp + 448], eax                     ; Move 32-bit value
    jmp	.LBB62_28                                      ; Jump instruction
    mov	dword ptr [rbp + 444], 0                       ; Move 32-bit value
    mov	eax, dword ptr [rbp + 444]                     ; Move 32-bit value
    cmp	eax, dword ptr [rbp + 780]                     ; Compare values
    jge	.LBB62_35                                      ; Jump instruction
    movsxd	rdx, dword ptr [rbp + 444]                  ; Move 32-bit value
    lea	rcx, [rbp + 736]
    call	"??A?$vector@UPoint@@V?$allocator@UPoint@@@std@@@std@@QEAAAEAUPoint@@_K@Z" ; Function call
    mov	rdx, rax
    lea	rcx, [rbp + 480]
    call	"??A?$map@UPoint@@HUCompare@1@V?$allocator@U?$pair@$$CBUPoint@@H@std@@@std@@@std@@QEAAAEAHAEBUPoint@@@Z" ; Function call
    mov	qword ptr [rbp + 112], rax      # 8-byte Spill ; Move 64-bit value
    jmp	.LBB62_34                                      ; Jump instruction
    mov	rax, qword ptr [rbp + 112]      # 8-byte Reload ; Move 64-bit value
    mov	eax, dword ptr [rax]                           ; Move 32-bit value
    mov	dword ptr [rbp + 108], eax      # 4-byte Spill ; Move 32-bit value
    movsxd	rdx, dword ptr [rbp + 444]                  ; Move 32-bit value
    lea	rcx, [rbp + 456]
    call	"??A?$vector@HV?$allocator@H@std@@@std@@QEAAAEAH_K@Z" ; Function call
    mov	ecx, dword ptr [rbp + 108]      # 4-byte Reload ; Move 32-bit value
    mov	dword ptr [rax], ecx                           ; Move 32-bit value
    mov	eax, dword ptr [rbp + 444]                     ; Move 32-bit value
    add	eax, 1
    mov	dword ptr [rbp + 444], eax                     ; Move 32-bit value
    jmp	.LBB62_32                                      ; Jump instruction
    lea	rcx, [rbp + 520]
    call	"?size@?$vector@UPoint@@V?$allocator@UPoint@@@std@@@std@@QEBA_KXZ" ; Function call
    mov	dword ptr [rbp + 440], eax                     ; Move 32-bit value
    lea	rcx, [rbp + 415]
    call	"??0?$allocator@V?$vector@OV?$allocator@O@std@@@std@@@std@@QEAA@XZ" ; Function call
    lea	rcx, [rbp + 383]
    mov	qword ptr [rbp + 96], rcx       # 8-byte Spill ; Move 64-bit value
    call	"??0?$allocator@O@std@@QEAA@XZ"               ; Function call
    mov	r9, qword ptr [rbp + 96]        # 8-byte Reload ; Move 64-bit value
    movsxd	rdx, dword ptr [rbp + 440]                  ; Move 32-bit value
    lea	r8, [rip + INF]
    lea	rcx, [rbp + 384]
    call	"??0?$vector@OV?$allocator@O@std@@@std@@QEAA@_KAEBOAEBV?$allocator@O@1@@Z" ; Function call
    jmp	.LBB62_36                                      ; Jump instruction
    movsxd	rdx, dword ptr [rbp + 440]                  ; Move 32-bit value
    lea	rcx, [rbp + 416]
    lea	r8, [rbp + 384]
    lea	r9, [rbp + 415]
    call	"??0?$vector@V?$vector@OV?$allocator@O@std@@@std@@V?$allocator@V?$vector@OV?$allocator@O@std@@@std@@@2@@std@@QEAA@_KAEBV?$vector@OV?$allocator@O@std@@@1@AEBV?$allocator@V?$vector@OV?$allocator@O@std@@@std@@@1@@Z" ; Function call
    jmp	.LBB62_37                                      ; Jump instruction
    lea	rcx, [rbp + 384]
    call	"??1?$vector@OV?$allocator@O@std@@@std@@QEAA@XZ" ; Function call
    mov	dword ptr [rbp + 376], 0                       ; Move 32-bit value
    mov	eax, dword ptr [rbp + 376]                     ; Move 32-bit value
    cmp	eax, dword ptr [rbp + 440]                     ; Compare values
    jge	.LBB62_41                                      ; Jump instruction
    movsxd	rdx, dword ptr [rbp + 376]                  ; Move 32-bit value
    lea	rcx, [rbp + 416]
    call	"??A?$vector@V?$vector@OV?$allocator@O@std@@@std@@V?$allocator@V?$vector@OV?$allocator@O@std@@@std@@@2@@std@@QEAAAEAV?$vector@OV?$allocator@O@std@@@1@_K@Z" ; Function call
    mov	rcx, rax
    movsxd	rdx, dword ptr [rbp + 376]                  ; Move 32-bit value
    call	"??A?$vector@OV?$allocator@O@std@@@std@@QEAAAEAO_K@Z" ; Function call
    xorps	xmm0, xmm0
    movsd	qword ptr [rax], xmm0                        ; Load 64-bit double
    mov	eax, dword ptr [rbp + 376]                     ; Move 32-bit value
    add	eax, 1
    mov	dword ptr [rbp + 376], eax                     ; Move 32-bit value
    jmp	.LBB62_38                                      ; Jump instruction
    mov	dword ptr [rbp + 372], 0                       ; Move 32-bit value
#       Child Loop BB62_44 Depth 3
    mov	eax, dword ptr [rbp + 372]                     ; Move 32-bit value
    cmp	eax, dword ptr [rbp + 440]                     ; Compare values
    jge	.LBB62_57                                      ; Jump instruction
    mov	eax, dword ptr [rbp + 372]                     ; Move 32-bit value
    add	eax, 1
    mov	dword ptr [rbp + 368], eax                     ; Move 32-bit value
#     Parent Loop BB62_42 Depth=2
    mov	eax, dword ptr [rbp + 368]                     ; Move 32-bit value
    cmp	eax, dword ptr [rbp + 440]                     ; Compare values
    jge	.LBB62_56                                      ; Jump instruction
    movsxd	rdx, dword ptr [rbp + 368]                  ; Move 32-bit value
    lea	rcx, [rbp + 520]
    call	"??A?$vector@UPoint@@V?$allocator@UPoint@@@std@@@std@@QEAAAEAUPoint@@_K@Z" ; Function call
    mov	qword ptr [rbp + 88], rax       # 8-byte Spill ; Move 64-bit value
    movsxd	rdx, dword ptr [rbp + 372]                  ; Move 32-bit value
    lea	rcx, [rbp + 520]
    call	"??A?$vector@UPoint@@V?$allocator@UPoint@@@std@@@std@@QEAAAEAUPoint@@_K@Z" ; Function call
    mov	rdx, qword ptr [rbp + 88]       # 8-byte Reload ; Move 64-bit value
    mov	rcx, rax
    call	"?dist_xyz@@YAOAEBUPoint@@0@Z"                ; Function call
    movsd	qword ptr [rbp + 360], xmm0                  ; Load 64-bit double
    mov	byte ptr [rbp + 359], 0
    movsd	xmm0, qword ptr [rip + __real@3e112e0be826d695] # xmm0 = [1.0000000000000001E-9,0.0E+0] ; Load 64-bit double
    ucomisd	xmm0, qword ptr [rbp + 360]
    jbe	.LBB62_47                                      ; Jump instruction
    mov	byte ptr [rbp + 359], 1
    jmp	.LBB62_53                                      ; Jump instruction
    movsd	xmm0, qword ptr [rbp + 360]     # xmm0 = mem[0],zero ; Load 64-bit double
    movsd	xmm1, qword ptr [rip + __real@40d38afc7e364350] # xmm1 = [2.001194520336698E+4,0.0E+0] ; Load 64-bit double
    subsd	xmm0, xmm1                                   ; Subtract two doubles
    call	"?abs@@YAOO@Z"                                ; Function call
    movaps	xmm1, xmm0
    movsd	xmm0, qword ptr [rip + __real@3e112e0be826d695] # xmm0 = [1.0000000000000001E-9,0.0E+0] ; Load 64-bit double
    ucomisd	xmm0, xmm1
    jbe	.LBB62_50                                      ; Jump instruction
    movsd	xmm0, qword ptr [rbp + 760]     # xmm0 = mem[0],zero ; Load 64-bit double
    movsd	qword ptr [rbp + 72], xmm0      # 8-byte Spill ; Load 64-bit double
    movsxd	rdx, dword ptr [rbp + 368]                  ; Move 32-bit value
    lea	rcx, [rbp + 520]
    mov	qword ptr [rbp + 56], rcx       # 8-byte Spill ; Move 64-bit value
    call	"??A?$vector@UPoint@@V?$allocator@UPoint@@@std@@@std@@QEAAAEAUPoint@@_K@Z" ; Function call
    mov	rcx, qword ptr [rbp + 56]       # 8-byte Reload ; Move 64-bit value
    mov	qword ptr [rbp + 64], rax       # 8-byte Spill ; Move 64-bit value
    movsxd	rdx, dword ptr [rbp + 372]                  ; Move 32-bit value
    call	"??A?$vector@UPoint@@V?$allocator@UPoint@@@std@@@std@@QEAAAEAUPoint@@_K@Z" ; Function call
    mov	rdx, qword ptr [rbp + 64]       # 8-byte Reload ; Move 64-bit value
    movsd	xmm3, qword ptr [rbp + 72]      # 8-byte Reload ; Load 64-bit double
# xmm3 = mem[0],zero
    mov	rcx, rax
    lea	r8, [rbp + 736]
    call	"?is_arc_safe@@YA_NAEBUPoint@@0AEBV?$vector@UPoint@@V?$allocator@UPoint@@@std@@@std@@O@Z" ; Function call
    mov	byte ptr [rbp + 87], al         # 1-byte Spill
    jmp	.LBB62_49                                      ; Jump instruction
    mov	al, byte ptr [rbp + 87]         # 1-byte Reload
    and	al, 1
    mov	byte ptr [rbp + 359], al
    jmp	.LBB62_52                                      ; Jump instruction
    movsd	xmm0, qword ptr [rbp + 760]     # xmm0 = mem[0],zero ; Load 64-bit double
    movsd	qword ptr [rbp + 40], xmm0      # 8-byte Spill ; Load 64-bit double
    movsxd	rdx, dword ptr [rbp + 368]                  ; Move 32-bit value
    lea	rcx, [rbp + 520]
    mov	qword ptr [rbp + 24], rcx       # 8-byte Spill ; Move 64-bit value
    call	"??A?$vector@UPoint@@V?$allocator@UPoint@@@std@@@std@@QEAAAEAUPoint@@_K@Z" ; Function call
    mov	rcx, qword ptr [rbp + 24]       # 8-byte Reload ; Move 64-bit value
    mov	qword ptr [rbp + 32], rax       # 8-byte Spill ; Move 64-bit value
    movsxd	rdx, dword ptr [rbp + 372]                  ; Move 32-bit value
    call	"??A?$vector@UPoint@@V?$allocator@UPoint@@@std@@@std@@QEAAAEAUPoint@@_K@Z" ; Function call
    mov	rdx, qword ptr [rbp + 32]       # 8-byte Reload ; Move 64-bit value
    movsd	xmm3, qword ptr [rbp + 40]      # 8-byte Reload ; Load 64-bit double
# xmm3 = mem[0],zero
    mov	rcx, rax
    lea	r8, [rbp + 736]
    call	"?is_arc_safe@@YA_NAEBUPoint@@0AEBV?$vector@UPoint@@V?$allocator@UPoint@@@std@@@std@@O@Z" ; Function call
    mov	byte ptr [rbp + 55], al         # 1-byte Spill
    jmp	.LBB62_51                                      ; Jump instruction
    mov	al, byte ptr [rbp + 55]         # 1-byte Reload
    and	al, 1
    mov	byte ptr [rbp + 359], al
    jmp	.LBB62_53                                      ; Jump instruction
    test	byte ptr [rbp + 359], 1                       ; Test values
    je	.LBB62_55                                       ; Jump instruction
    movsd	xmm0, qword ptr [rbp + 360]     # xmm0 = mem[0],zero ; Load 64-bit double
    movsd	qword ptr [rbp + 16], xmm0      # 8-byte Spill ; Load 64-bit double
    movsxd	rdx, dword ptr [rbp + 368]                  ; Move 32-bit value
    lea	rcx, [rbp + 416]
    call	"??A?$vector@V?$vector@OV?$allocator@O@std@@@std@@V?$allocator@V?$vector@OV?$allocator@O@std@@@std@@@2@@std@@QEAAAEAV?$vector@OV?$allocator@O@std@@@1@_K@Z" ; Function call
    mov	rcx, rax
    movsxd	rdx, dword ptr [rbp + 372]                  ; Move 32-bit value
    call	"??A?$vector@OV?$allocator@O@std@@@std@@QEAAAEAO_K@Z" ; Function call
    movsd	xmm0, qword ptr [rbp + 16]      # 8-byte Reload ; Load 64-bit double
# xmm0 = mem[0],zero
    movsd	qword ptr [rax], xmm0                        ; Load 64-bit double
    movsxd	rdx, dword ptr [rbp + 372]                  ; Move 32-bit value
    lea	rcx, [rbp + 416]
    call	"??A?$vector@V?$vector@OV?$allocator@O@std@@@std@@V?$allocator@V?$vector@OV?$allocator@O@std@@@std@@@2@@std@@QEAAAEAV?$vector@OV?$allocator@O@std@@@1@_K@Z" ; Function call
    mov	rcx, rax
    movsxd	rdx, dword ptr [rbp + 368]                  ; Move 32-bit value
    call	"??A?$vector@OV?$allocator@O@std@@@std@@QEAAAEAO_K@Z" ; Function call
    movsd	xmm0, qword ptr [rbp + 16]      # 8-byte Reload ; Load 64-bit double
# xmm0 = mem[0],zero
    movsd	qword ptr [rax], xmm0                        ; Load 64-bit double
    mov	eax, dword ptr [rbp + 368]                     ; Move 32-bit value
    add	eax, 1
    mov	dword ptr [rbp + 368], eax                     ; Move 32-bit value
    jmp	.LBB62_44                                      ; Jump instruction
    mov	eax, dword ptr [rbp + 372]                     ; Move 32-bit value
    add	eax, 1
    mov	dword ptr [rbp + 372], eax                     ; Move 32-bit value
    jmp	.LBB62_42                                      ; Jump instruction
    mov	dword ptr [rbp + 352], 0                       ; Move 32-bit value
#       Child Loop BB62_60 Depth 3
#         Child Loop BB62_62 Depth 4
    mov	eax, dword ptr [rbp + 352]                     ; Move 32-bit value
    cmp	eax, dword ptr [rbp + 440]                     ; Compare values
    jge	.LBB62_69                                      ; Jump instruction
    mov	dword ptr [rbp + 348], 0                       ; Move 32-bit value
#     Parent Loop BB62_58 Depth=2
#         Child Loop BB62_62 Depth 4
    mov	eax, dword ptr [rbp + 348]                     ; Move 32-bit value
    cmp	eax, dword ptr [rbp + 440]                     ; Compare values
    jge	.LBB62_68                                      ; Jump instruction
    mov	dword ptr [rbp + 344], 0                       ; Move 32-bit value
#     Parent Loop BB62_58 Depth=2
#       Parent Loop BB62_60 Depth=3
    mov	eax, dword ptr [rbp + 344]                     ; Move 32-bit value
    cmp	eax, dword ptr [rbp + 440]                     ; Compare values
    jge	.LBB62_67                                      ; Jump instruction
    movsxd	rdx, dword ptr [rbp + 348]                  ; Move 32-bit value
    lea	rcx, [rbp + 416]
    call	"??A?$vector@V?$vector@OV?$allocator@O@std@@@std@@V?$allocator@V?$vector@OV?$allocator@O@std@@@std@@@2@@std@@QEAAAEAV?$vector@OV?$allocator@O@std@@@1@_K@Z" ; Function call
    mov	rcx, rax
    movsxd	rdx, dword ptr [rbp + 352]                  ; Move 32-bit value
    call	"??A?$vector@OV?$allocator@O@std@@@std@@QEAAAEAO_K@Z" ; Function call
    movsd	xmm0, qword ptr [rax]           # xmm0 = mem[0],zero ; Load 64-bit double
    movsd	xmm1, qword ptr [rip + __real@7ff0000000000000] # xmm1 = [+Inf,0.0E+0] ; Load 64-bit double
    ucomisd	xmm0, xmm1
    jne	.LBB62_64                                      ; Jump instruction
    jp	.LBB62_64                                       ; Jump instruction
    jmp	.LBB62_66                                      ; Jump instruction
    movsxd	rdx, dword ptr [rbp + 352]                  ; Move 32-bit value
    lea	rcx, [rbp + 416]
    call	"??A?$vector@V?$vector@OV?$allocator@O@std@@@std@@V?$allocator@V?$vector@OV?$allocator@O@std@@@std@@@2@@std@@QEAAAEAV?$vector@OV?$allocator@O@std@@@1@_K@Z" ; Function call
    mov	rcx, rax
    movsxd	rdx, dword ptr [rbp + 344]                  ; Move 32-bit value
    call	"??A?$vector@OV?$allocator@O@std@@@std@@QEAAAEAO_K@Z" ; Function call
    movsd	xmm0, qword ptr [rax]           # xmm0 = mem[0],zero ; Load 64-bit double
    movsd	xmm1, qword ptr [rip + __real@7ff0000000000000] # xmm1 = [+Inf,0.0E+0] ; Load 64-bit double
    ucomisd	xmm0, xmm1
    jne	.LBB62_65                                      ; Jump instruction
    jp	.LBB62_65                                       ; Jump instruction
    jmp	.LBB62_66                                      ; Jump instruction
    movsxd	rdx, dword ptr [rbp + 348]                  ; Move 32-bit value
    lea	rcx, [rbp + 416]
    call	"??A?$vector@V?$vector@OV?$allocator@O@std@@@std@@V?$allocator@V?$vector@OV?$allocator@O@std@@@std@@@2@@std@@QEAAAEAV?$vector@OV?$allocator@O@std@@@1@_K@Z" ; Function call
    mov	rcx, rax
    movsxd	rdx, dword ptr [rbp + 352]                  ; Move 32-bit value
    call	"??A?$vector@OV?$allocator@O@std@@@std@@QEAAAEAO_K@Z" ; Function call
    movsd	xmm0, qword ptr [rax]           # xmm0 = mem[0],zero ; Load 64-bit double
    movsd	qword ptr [rbp], xmm0           # 8-byte Spill ; Load 64-bit double
    movsxd	rdx, dword ptr [rbp + 352]                  ; Move 32-bit value
    lea	rcx, [rbp + 416]
    call	"??A?$vector@V?$vector@OV?$allocator@O@std@@@std@@V?$allocator@V?$vector@OV?$allocator@O@std@@@std@@@2@@std@@QEAAAEAV?$vector@OV?$allocator@O@std@@@1@_K@Z" ; Function call
    mov	rcx, rax
    movsxd	rdx, dword ptr [rbp + 344]                  ; Move 32-bit value
    call	"??A?$vector@OV?$allocator@O@std@@@std@@QEAAAEAO_K@Z" ; Function call
    movsd	xmm0, qword ptr [rbp]           # 8-byte Reload ; Load 64-bit double
# xmm0 = mem[0],zero
    addsd	xmm0, qword ptr [rax]                        ; Add two doubles
    movsd	qword ptr [rbp + 336], xmm0                  ; Load 64-bit double
    movsxd	rdx, dword ptr [rbp + 348]                  ; Move 32-bit value
    lea	rcx, [rbp + 416]
    call	"??A?$vector@V?$vector@OV?$allocator@O@std@@@std@@V?$allocator@V?$vector@OV?$allocator@O@std@@@std@@@2@@std@@QEAAAEAV?$vector@OV?$allocator@O@std@@@1@_K@Z" ; Function call
    mov	rcx, rax
    movsxd	rdx, dword ptr [rbp + 344]                  ; Move 32-bit value
    call	"??A?$vector@OV?$allocator@O@std@@@std@@QEAAAEAO_K@Z" ; Function call
    mov	rcx, rax
    lea	rdx, [rbp + 336]
    call	"??$min@O@std@@YAAEBOAEBO0@Z"                 ; Function call
    movsd	xmm0, qword ptr [rax]           # xmm0 = mem[0],zero ; Load 64-bit double
    movsd	qword ptr [rbp + 8], xmm0       # 8-byte Spill ; Load 64-bit double
    movsxd	rdx, dword ptr [rbp + 348]                  ; Move 32-bit value
    lea	rcx, [rbp + 416]
    call	"??A?$vector@V?$vector@OV?$allocator@O@std@@@std@@V?$allocator@V?$vector@OV?$allocator@O@std@@@std@@@2@@std@@QEAAAEAV?$vector@OV?$allocator@O@std@@@1@_K@Z" ; Function call
    mov	rcx, rax
    movsxd	rdx, dword ptr [rbp + 344]                  ; Move 32-bit value
    call	"??A?$vector@OV?$allocator@O@std@@@std@@QEAAAEAO_K@Z" ; Function call
    movsd	xmm0, qword ptr [rbp + 8]       # 8-byte Reload ; Load 64-bit double
# xmm0 = mem[0],zero
    movsd	qword ptr [rax], xmm0                        ; Load 64-bit double
    mov	eax, dword ptr [rbp + 344]                     ; Move 32-bit value
    add	eax, 1
    mov	dword ptr [rbp + 344], eax                     ; Move 32-bit value
    jmp	.LBB62_62                                      ; Jump instruction
    mov	eax, dword ptr [rbp + 348]                     ; Move 32-bit value
    add	eax, 1
    mov	dword ptr [rbp + 348], eax                     ; Move 32-bit value
    jmp	.LBB62_60                                      ; Jump instruction
    mov	eax, dword ptr [rbp + 352]                     ; Move 32-bit value
    add	eax, 1
    mov	dword ptr [rbp + 352], eax                     ; Move 32-bit value
    jmp	.LBB62_58                                      ; Jump instruction
    lea	rcx, [rip + "?cin@std@@3V?$basic_istream@DU?$char_traits@D@std@@@1@A"]
    lea	rdx, [rbp + 776]
    call	"??5?$basic_istream@DU?$char_traits@D@std@@@std@@QEAAAEAV01@AEAH@Z" ; Function call
    jmp	.LBB62_70                                      ; Jump instruction
    lea	rcx, [rip + "?cout@std@@3V?$basic_ostream@DU?$char_traits@D@std@@@1@A"]
    lea	rdx, [rip + "??_C@_05MBLBFKHI@Case?5?$AA@"]
    call	"??$?6U?$char_traits@D@std@@@std@@YAAEAV?$basic_ostream@DU?$char_traits@D@std@@@0@AEAV10@PEBD@Z" ; Function call
    mov	qword ptr [rbp - 8], rax        # 8-byte Spill ; Move 64-bit value
    jmp	.LBB62_71                                      ; Jump instruction
    mov	rcx, qword ptr [rbp - 8]        # 8-byte Reload ; Move 64-bit value
    mov	edx, dword ptr [rbp + 772]                     ; Move 32-bit value
    mov	eax, edx
    inc	eax
    mov	dword ptr [rbp + 772], eax                     ; Move 32-bit value
    call	"??6?$basic_ostream@DU?$char_traits@D@std@@@std@@QEAAAEAV01@H@Z" ; Function call
    mov	qword ptr [rbp - 16], rax       # 8-byte Spill ; Move 64-bit value
    jmp	.LBB62_72                                      ; Jump instruction
    mov	rcx, qword ptr [rbp - 16]       # 8-byte Reload ; Move 64-bit value
    lea	rdx, [rip + "??_C@_01JLIPDDHJ@?3?$AA@"]
    call	"??$?6U?$char_traits@D@std@@@std@@YAAEAV?$basic_ostream@DU?$char_traits@D@std@@@0@AEAV10@PEBD@Z" ; Function call
    mov	qword ptr [rbp - 24], rax       # 8-byte Spill ; Move 64-bit value
    jmp	.LBB62_73                                      ; Jump instruction
    mov	rcx, qword ptr [rbp - 24]       # 8-byte Reload ; Move 64-bit value
    lea	rdx, [rip + "??$endl@DU?$char_traits@D@std@@@std@@YAAEAV?$basic_ostream@DU?$char_traits@D@std@@@0@AEAV10@@Z"]
    call	"??6?$basic_ostream@DU?$char_traits@D@std@@@std@@QEAAAEAV01@P6AAEAV01@AEAV01@@Z@Z" ; Function call
    jmp	.LBB62_74                                      ; Jump instruction
    mov	dword ptr [rbp + 332], 0                       ; Move 32-bit value
#       Child Loop BB62_82 Depth 3
#       Child Loop BB62_86 Depth 3
#         Child Loop BB62_88 Depth 4
#       Child Loop BB62_97 Depth 3
#         Child Loop BB62_99 Depth 4
#           Child Loop BB62_101 Depth 5
    mov	eax, dword ptr [rbp + 332]                     ; Move 32-bit value
    cmp	eax, dword ptr [rbp + 776]                     ; Compare values
    jge	.LBB62_117                                     ; Jump instruction
    lea	rcx, [rip + "?cin@std@@3V?$basic_istream@DU?$char_traits@D@std@@@1@A"]
    lea	rdx, [rbp + 328]
    call	"??5?$basic_istream@DU?$char_traits@D@std@@@std@@QEAAAEAV01@AEAH@Z" ; Function call
    mov	qword ptr [rbp - 32], rax       # 8-byte Spill ; Move 64-bit value
    jmp	.LBB62_77                                      ; Jump instruction
    mov	rcx, qword ptr [rbp - 32]       # 8-byte Reload ; Move 64-bit value
    lea	rdx, [rbp + 324]
    call	"??5?$basic_istream@DU?$char_traits@D@std@@@std@@QEAAAEAV01@AEAH@Z" ; Function call
    mov	qword ptr [rbp - 40], rax       # 8-byte Spill ; Move 64-bit value
    jmp	.LBB62_78                                      ; Jump instruction
    mov	rcx, qword ptr [rbp - 40]       # 8-byte Reload ; Move 64-bit value
    lea	rdx, [rbp + 312]
    call	"??5?$basic_istream@DU?$char_traits@D@std@@@std@@QEAAAEAV01@AEAO@Z" ; Function call
    jmp	.LBB62_79                                      ; Jump instruction
    mov	eax, dword ptr [rbp + 328]                     ; Move 32-bit value
    dec	eax
    mov	dword ptr [rbp + 328], eax                     ; Move 32-bit value
    mov	eax, dword ptr [rbp + 324]                     ; Move 32-bit value
    dec	eax
    mov	dword ptr [rbp + 324], eax                     ; Move 32-bit value
    lea	rcx, [rbp + 287]
    call	"??0?$allocator@V?$vector@OV?$allocator@O@std@@@std@@@std@@QEAA@XZ" ; Function call
    lea	rcx, [rbp + 255]
    mov	qword ptr [rbp - 48], rcx       # 8-byte Spill ; Move 64-bit value
    call	"??0?$allocator@O@std@@QEAA@XZ"               ; Function call
    mov	r9, qword ptr [rbp - 48]        # 8-byte Reload ; Move 64-bit value
    movsxd	rdx, dword ptr [rbp + 780]                  ; Move 32-bit value
    lea	r8, [rip + INF]
    lea	rcx, [rbp + 256]
    call	"??0?$vector@OV?$allocator@O@std@@@std@@QEAA@_KAEBOAEBV?$allocator@O@1@@Z" ; Function call
    jmp	.LBB62_80                                      ; Jump instruction
    movsxd	rdx, dword ptr [rbp + 780]                  ; Move 32-bit value
    lea	rcx, [rbp + 288]
    lea	r8, [rbp + 256]
    lea	r9, [rbp + 287]
    call	"??0?$vector@V?$vector@OV?$allocator@O@std@@@std@@V?$allocator@V?$vector@OV?$allocator@O@std@@@std@@@2@@std@@QEAA@_KAEBV?$vector@OV?$allocator@O@std@@@1@AEBV?$allocator@V?$vector@OV?$allocator@O@std@@@std@@@1@@Z" ; Function call
    jmp	.LBB62_81                                      ; Jump instruction
    lea	rcx, [rbp + 256]
    call	"??1?$vector@OV?$allocator@O@std@@@std@@QEAA@XZ" ; Function call
    mov	dword ptr [rbp + 248], 0                       ; Move 32-bit value
#     Parent Loop BB62_75 Depth=2
    mov	eax, dword ptr [rbp + 248]                     ; Move 32-bit value
    cmp	eax, dword ptr [rbp + 780]                     ; Compare values
    jge	.LBB62_85                                      ; Jump instruction
    movsxd	rdx, dword ptr [rbp + 248]                  ; Move 32-bit value
    lea	rcx, [rbp + 288]
    call	"??A?$vector@V?$vector@OV?$allocator@O@std@@@std@@V?$allocator@V?$vector@OV?$allocator@O@std@@@std@@@2@@std@@QEAAAEAV?$vector@OV?$allocator@O@std@@@1@_K@Z" ; Function call
    mov	rcx, rax
    movsxd	rdx, dword ptr [rbp + 248]                  ; Move 32-bit value
    call	"??A?$vector@OV?$allocator@O@std@@@std@@QEAAAEAO_K@Z" ; Function call
    xorps	xmm0, xmm0
    movsd	qword ptr [rax], xmm0                        ; Load 64-bit double
    mov	eax, dword ptr [rbp + 248]                     ; Move 32-bit value
    add	eax, 1
    mov	dword ptr [rbp + 248], eax                     ; Move 32-bit value
    jmp	.LBB62_82                                      ; Jump instruction
    mov	dword ptr [rbp + 244], 0                       ; Move 32-bit value
#     Parent Loop BB62_75 Depth=2
#         Child Loop BB62_88 Depth 4
    mov	eax, dword ptr [rbp + 244]                     ; Move 32-bit value
    cmp	eax, dword ptr [rbp + 780]                     ; Compare values
    jge	.LBB62_96                                      ; Jump instruction
    mov	dword ptr [rbp + 240], 0                       ; Move 32-bit value
#     Parent Loop BB62_75 Depth=2
#       Parent Loop BB62_86 Depth=3
    mov	eax, dword ptr [rbp + 240]                     ; Move 32-bit value
    cmp	eax, dword ptr [rbp + 780]                     ; Compare values
    jge	.LBB62_95                                      ; Jump instruction
    mov	eax, dword ptr [rbp + 244]                     ; Move 32-bit value
    cmp	eax, dword ptr [rbp + 240]                     ; Compare values
    jne	.LBB62_91                                      ; Jump instruction
    jmp	.LBB62_94                                      ; Jump instruction
    movsxd	rdx, dword ptr [rbp + 244]                  ; Move 32-bit value
    lea	rcx, [rbp + 456]
    call	"??A?$vector@HV?$allocator@H@std@@@std@@QEAAAEAH_K@Z" ; Function call
    mov	eax, dword ptr [rax]                           ; Move 32-bit value
    mov	dword ptr [rbp + 236], eax                     ; Move 32-bit value
    movsxd	rdx, dword ptr [rbp + 240]                  ; Move 32-bit value
    lea	rcx, [rbp + 456]
    call	"??A?$vector@HV?$allocator@H@std@@@std@@QEAAAEAH_K@Z" ; Function call
    mov	eax, dword ptr [rax]                           ; Move 32-bit value
    mov	dword ptr [rbp + 232], eax                     ; Move 32-bit value
    movsxd	rdx, dword ptr [rbp + 236]                  ; Move 32-bit value
    lea	rcx, [rbp + 416]
    call	"??A?$vector@V?$vector@OV?$allocator@O@std@@@std@@V?$allocator@V?$vector@OV?$allocator@O@std@@@std@@@2@@std@@QEAAAEAV?$vector@OV?$allocator@O@std@@@1@_K@Z" ; Function call
    mov	rcx, rax
    movsxd	rdx, dword ptr [rbp + 232]                  ; Move 32-bit value
    call	"??A?$vector@OV?$allocator@O@std@@@std@@QEAAAEAO_K@Z" ; Function call
    movsd	xmm1, qword ptr [rax]           # xmm1 = mem[0],zero ; Load 64-bit double
    movsd	xmm0, qword ptr [rip + __real@3e112e0be826d695] # xmm0 = [1.0000000000000001E-9,0.0E+0] ; Load 64-bit double
    addsd	xmm0, qword ptr [rbp + 312]                  ; Add two doubles
    ucomisd	xmm0, xmm1
    jb	.LBB62_93                                       ; Jump instruction
    movsxd	rdx, dword ptr [rbp + 236]                  ; Move 32-bit value
    lea	rcx, [rbp + 416]
    call	"??A?$vector@V?$vector@OV?$allocator@O@std@@@std@@V?$allocator@V?$vector@OV?$allocator@O@std@@@std@@@2@@std@@QEAAAEAV?$vector@OV?$allocator@O@std@@@1@_K@Z" ; Function call
    mov	rcx, rax
    movsxd	rdx, dword ptr [rbp + 232]                  ; Move 32-bit value
    call	"??A?$vector@OV?$allocator@O@std@@@std@@QEAAAEAO_K@Z" ; Function call
    movsd	xmm0, qword ptr [rax]           # xmm0 = mem[0],zero ; Load 64-bit double
    movsd	qword ptr [rbp - 56], xmm0      # 8-byte Spill ; Load 64-bit double
    movsxd	rdx, dword ptr [rbp + 244]                  ; Move 32-bit value
    lea	rcx, [rbp + 288]
    call	"??A?$vector@V?$vector@OV?$allocator@O@std@@@std@@V?$allocator@V?$vector@OV?$allocator@O@std@@@std@@@2@@std@@QEAAAEAV?$vector@OV?$allocator@O@std@@@1@_K@Z" ; Function call
    mov	rcx, rax
    movsxd	rdx, dword ptr [rbp + 240]                  ; Move 32-bit value
    call	"??A?$vector@OV?$allocator@O@std@@@std@@QEAAAEAO_K@Z" ; Function call
    movsd	xmm0, qword ptr [rbp - 56]      # 8-byte Reload ; Load 64-bit double
# xmm0 = mem[0],zero
    movsd	qword ptr [rax], xmm0                        ; Load 64-bit double
    jmp	.LBB62_94                                      ; Jump instruction
    mov	eax, dword ptr [rbp + 240]                     ; Move 32-bit value
    add	eax, 1
    mov	dword ptr [rbp + 240], eax                     ; Move 32-bit value
    jmp	.LBB62_88                                      ; Jump instruction
    mov	eax, dword ptr [rbp + 244]                     ; Move 32-bit value
    add	eax, 1
    mov	dword ptr [rbp + 244], eax                     ; Move 32-bit value
    jmp	.LBB62_86                                      ; Jump instruction
    mov	dword ptr [rbp + 228], 0                       ; Move 32-bit value
#     Parent Loop BB62_75 Depth=2
#         Child Loop BB62_99 Depth 4
#           Child Loop BB62_101 Depth 5
    mov	eax, dword ptr [rbp + 228]                     ; Move 32-bit value
    cmp	eax, dword ptr [rbp + 780]                     ; Compare values
    jge	.LBB62_108                                     ; Jump instruction
    mov	dword ptr [rbp + 224], 0                       ; Move 32-bit value
#     Parent Loop BB62_75 Depth=2
#       Parent Loop BB62_97 Depth=3
#           Child Loop BB62_101 Depth 5
    mov	eax, dword ptr [rbp + 224]                     ; Move 32-bit value
    cmp	eax, dword ptr [rbp + 780]                     ; Compare values
    jge	.LBB62_107                                     ; Jump instruction
    mov	dword ptr [rbp + 220], 0                       ; Move 32-bit value
#     Parent Loop BB62_75 Depth=2
#       Parent Loop BB62_97 Depth=3
#         Parent Loop BB62_99 Depth=4
    mov	eax, dword ptr [rbp + 220]                     ; Move 32-bit value
    cmp	eax, dword ptr [rbp + 780]                     ; Compare values
    jge	.LBB62_106                                     ; Jump instruction
    movsxd	rdx, dword ptr [rbp + 224]                  ; Move 32-bit value
    lea	rcx, [rbp + 288]
    call	"??A?$vector@V?$vector@OV?$allocator@O@std@@@std@@V?$allocator@V?$vector@OV?$allocator@O@std@@@std@@@2@@std@@QEAAAEAV?$vector@OV?$allocator@O@std@@@1@_K@Z" ; Function call
    mov	rcx, rax
    movsxd	rdx, dword ptr [rbp + 228]                  ; Move 32-bit value
    call	"??A?$vector@OV?$allocator@O@std@@@std@@QEAAAEAO_K@Z" ; Function call
    movsd	xmm0, qword ptr [rax]           # xmm0 = mem[0],zero ; Load 64-bit double
    movsd	xmm1, qword ptr [rip + __real@7ff0000000000000] # xmm1 = [+Inf,0.0E+0] ; Load 64-bit double
    ucomisd	xmm0, xmm1
    jne	.LBB62_103                                     ; Jump instruction
    jp	.LBB62_103                                      ; Jump instruction
    jmp	.LBB62_105                                     ; Jump instruction
    movsxd	rdx, dword ptr [rbp + 228]                  ; Move 32-bit value
    lea	rcx, [rbp + 288]
    call	"??A?$vector@V?$vector@OV?$allocator@O@std@@@std@@V?$allocator@V?$vector@OV?$allocator@O@std@@@std@@@2@@std@@QEAAAEAV?$vector@OV?$allocator@O@std@@@1@_K@Z" ; Function call
    mov	rcx, rax
    movsxd	rdx, dword ptr [rbp + 220]                  ; Move 32-bit value
    call	"??A?$vector@OV?$allocator@O@std@@@std@@QEAAAEAO_K@Z" ; Function call
    movsd	xmm0, qword ptr [rax]           # xmm0 = mem[0],zero ; Load 64-bit double
    movsd	xmm1, qword ptr [rip + __real@7ff0000000000000] # xmm1 = [+Inf,0.0E+0] ; Load 64-bit double
    ucomisd	xmm0, xmm1
    jne	.LBB62_104                                     ; Jump instruction
    jp	.LBB62_104                                      ; Jump instruction
    jmp	.LBB62_105                                     ; Jump instruction
    movsxd	rdx, dword ptr [rbp + 224]                  ; Move 32-bit value
    lea	rcx, [rbp + 288]
    call	"??A?$vector@V?$vector@OV?$allocator@O@std@@@std@@V?$allocator@V?$vector@OV?$allocator@O@std@@@std@@@2@@std@@QEAAAEAV?$vector@OV?$allocator@O@std@@@1@_K@Z" ; Function call
    mov	rcx, rax
    movsxd	rdx, dword ptr [rbp + 228]                  ; Move 32-bit value
    call	"??A?$vector@OV?$allocator@O@std@@@std@@QEAAAEAO_K@Z" ; Function call
    movsd	xmm0, qword ptr [rax]           # xmm0 = mem[0],zero ; Load 64-bit double
    movsd	qword ptr [rbp - 72], xmm0      # 8-byte Spill ; Load 64-bit double
    movsxd	rdx, dword ptr [rbp + 228]                  ; Move 32-bit value
    lea	rcx, [rbp + 288]
    call	"??A?$vector@V?$vector@OV?$allocator@O@std@@@std@@V?$allocator@V?$vector@OV?$allocator@O@std@@@std@@@2@@std@@QEAAAEAV?$vector@OV?$allocator@O@std@@@1@_K@Z" ; Function call
    mov	rcx, rax
    movsxd	rdx, dword ptr [rbp + 220]                  ; Move 32-bit value
    call	"??A?$vector@OV?$allocator@O@std@@@std@@QEAAAEAO_K@Z" ; Function call
    movsd	xmm0, qword ptr [rbp - 72]      # 8-byte Reload ; Load 64-bit double
# xmm0 = mem[0],zero
    addsd	xmm0, qword ptr [rax]                        ; Add two doubles
    movsd	qword ptr [rbp + 208], xmm0                  ; Load 64-bit double
    movsxd	rdx, dword ptr [rbp + 224]                  ; Move 32-bit value
    lea	rcx, [rbp + 288]
    call	"??A?$vector@V?$vector@OV?$allocator@O@std@@@std@@V?$allocator@V?$vector@OV?$allocator@O@std@@@std@@@2@@std@@QEAAAEAV?$vector@OV?$allocator@O@std@@@1@_K@Z" ; Function call
    mov	rcx, rax
    movsxd	rdx, dword ptr [rbp + 220]                  ; Move 32-bit value
    call	"??A?$vector@OV?$allocator@O@std@@@std@@QEAAAEAO_K@Z" ; Function call
    mov	rcx, rax
    lea	rdx, [rbp + 208]
    call	"??$min@O@std@@YAAEBOAEBO0@Z"                 ; Function call
    movsd	xmm0, qword ptr [rax]           # xmm0 = mem[0],zero ; Load 64-bit double
    movsd	qword ptr [rbp - 64], xmm0      # 8-byte Spill ; Load 64-bit double
    movsxd	rdx, dword ptr [rbp + 224]                  ; Move 32-bit value
    lea	rcx, [rbp + 288]
    call	"??A?$vector@V?$vector@OV?$allocator@O@std@@@std@@V?$allocator@V?$vector@OV?$allocator@O@std@@@std@@@2@@std@@QEAAAEAV?$vector@OV?$allocator@O@std@@@1@_K@Z" ; Function call
    mov	rcx, rax
    movsxd	rdx, dword ptr [rbp + 220]                  ; Move 32-bit value
    call	"??A?$vector@OV?$allocator@O@std@@@std@@QEAAAEAO_K@Z" ; Function call
    movsd	xmm0, qword ptr [rbp - 64]      # 8-byte Reload ; Load 64-bit double
# xmm0 = mem[0],zero
    movsd	qword ptr [rax], xmm0                        ; Load 64-bit double
    mov	eax, dword ptr [rbp + 220]                     ; Move 32-bit value
    add	eax, 1
    mov	dword ptr [rbp + 220], eax                     ; Move 32-bit value
    jmp	.LBB62_101                                     ; Jump instruction
    mov	eax, dword ptr [rbp + 224]                     ; Move 32-bit value
    add	eax, 1
    mov	dword ptr [rbp + 224], eax                     ; Move 32-bit value
    jmp	.LBB62_99                                      ; Jump instruction
    mov	eax, dword ptr [rbp + 228]                     ; Move 32-bit value
    add	eax, 1
    mov	dword ptr [rbp + 228], eax                     ; Move 32-bit value
    jmp	.LBB62_97                                      ; Jump instruction
    movsxd	rdx, dword ptr [rbp + 328]                  ; Move 32-bit value
    lea	rcx, [rbp + 288]
    call	"??A?$vector@V?$vector@OV?$allocator@O@std@@@std@@V?$allocator@V?$vector@OV?$allocator@O@std@@@std@@@2@@std@@QEAAAEAV?$vector@OV?$allocator@O@std@@@1@_K@Z" ; Function call
    mov	rcx, rax
    movsxd	rdx, dword ptr [rbp + 324]                  ; Move 32-bit value
    call	"??A?$vector@OV?$allocator@O@std@@@std@@QEAAAEAO_K@Z" ; Function call
    movsd	xmm0, qword ptr [rax]           # xmm0 = mem[0],zero ; Load 64-bit double
    movsd	xmm1, qword ptr [rip + __real@7ff0000000000000] # xmm1 = [+Inf,0.0E+0] ; Load 64-bit double
    ucomisd	xmm0, xmm1
    jne	.LBB62_112                                     ; Jump instruction
    jp	.LBB62_112                                      ; Jump instruction
    lea	rcx, [rip + "?cout@std@@3V?$basic_ostream@DU?$char_traits@D@std@@@1@A"]
    lea	rdx, [rip + "??_C@_0L@GOOMCKGH@impossible?$AA@"]
    call	"??$?6U?$char_traits@D@std@@@std@@YAAEAV?$basic_ostream@DU?$char_traits@D@std@@@0@AEAV10@PEBD@Z" ; Function call
    mov	qword ptr [rbp - 80], rax       # 8-byte Spill ; Move 64-bit value
    jmp	.LBB62_110                                     ; Jump instruction
    mov	rcx, qword ptr [rbp - 80]       # 8-byte Reload ; Move 64-bit value
    lea	rdx, [rip + "??$endl@DU?$char_traits@D@std@@@std@@YAAEAV?$basic_ostream@DU?$char_traits@D@std@@@0@AEAV10@@Z"]
    call	"??6?$basic_ostream@DU?$char_traits@D@std@@@std@@QEAAAEAV01@P6AAEAV01@AEAV01@@Z@Z" ; Function call
    jmp	.LBB62_111                                     ; Jump instruction
    jmp	.LBB62_115                                     ; Jump instruction
    movsxd	rdx, dword ptr [rbp + 328]                  ; Move 32-bit value
    lea	rcx, [rbp + 288]
    call	"??A?$vector@V?$vector@OV?$allocator@O@std@@@std@@V?$allocator@V?$vector@OV?$allocator@O@std@@@std@@@2@@std@@QEAAAEAV?$vector@OV?$allocator@O@std@@@1@_K@Z" ; Function call
    mov	rcx, rax
    movsxd	rdx, dword ptr [rbp + 324]                  ; Move 32-bit value
    call	"??A?$vector@OV?$allocator@O@std@@@std@@QEAAAEAO_K@Z" ; Function call
    movsd	xmm1, qword ptr [rax]           # xmm1 = mem[0],zero ; Load 64-bit double
    lea	rcx, [rip + "?cout@std@@3V?$basic_ostream@DU?$char_traits@D@std@@@1@A"]
    call	"??6?$basic_ostream@DU?$char_traits@D@std@@@std@@QEAAAEAV01@O@Z" ; Function call
    mov	qword ptr [rbp - 88], rax       # 8-byte Spill ; Move 64-bit value
    jmp	.LBB62_113                                     ; Jump instruction
    mov	rcx, qword ptr [rbp - 88]       # 8-byte Reload ; Move 64-bit value
    lea	rdx, [rip + "??$endl@DU?$char_traits@D@std@@@std@@YAAEAV?$basic_ostream@DU?$char_traits@D@std@@@0@AEAV10@@Z"]
